GAS LISTING f:/K7_TOUR/CODE/plutommi/Customer/ResGenerator/gcctmp/cckxaaaa.s 			page 1


   1              		.file	"bmp2ems.c"
   4              		.text
   5              	Ltext0:
 452              	LC0:
 453 0000 424D5000 		.ascii "BMP\0"
 454              	LC1:
 455 0004 50424D00 		.ascii "PBM\0"
 456              	LC2:
 457 0008 4A504700 		.ascii "JPG\0"
 458              	LC3:
 459 000c 47494600 		.ascii "GIF\0"
 460              	LC4:
 461 0010 41424D00 		.ascii "ABM\0"
 462              	LC5:
 463 0014 41564900 		.ascii "AVI\0"
 464              	LC6:
 465 0018 33475000 		.ascii "3GP\0"
 466              	LC7:
 467 001c 4D503400 		.ascii "MP4\0"
 468              	LC8:
 469 0020 525600   		.ascii "RV\0"
 470              	LC9:
 471 0023 524D00   		.ascii "RM\0"
 472              	LC10:
 473 0026 524D5642 		.ascii "RMVB\0"
 473      00
 474              	LC11:
 475 002b 504E4700 		.ascii "PNG\0"
 476              	LC12:
 477 002f 50504E00 		.ascii "PPN\0"
 478              	LC13:
 479 0033 4D334400 		.ascii "M3D\0"
 480              	LC14:
 481 0037 434D5000 		.ascii "CMP\0"
 482              	LC15:
 483 003b 56495300 		.ascii "VIS\0"
 484              	LC16:
 485 003f 53564700 		.ascii "SVG\0"
 486              	LC17:
 487 0043 54544600 		.ascii "TTF\0"
 488              	LC18:
 489 0047 53544600 		.ascii "STF\0"
 490              	LC19:
 491 004b 43434300 		.ascii "CCC\0"
 492              	LC20:
 493 004f 4B545800 		.ascii "KTX\0"
 494 0053 8DB60000 		.align 32
 494      00008DBC 
 494      27000000 
 494      00
 495              	_image_resource_info:
 496 0060 00000000 		.long	LC0
 497 0064 01       		.byte	1
 498 0065 000000   		.space 3
 499 0068 04000000 		.long	LC1
 500 006c 04       		.byte	4
 501 006d 000000   		.space 3
GAS LISTING f:/K7_TOUR/CODE/plutommi/Customer/ResGenerator/gcctmp/cckxaaaa.s 			page 2


 502 0070 08000000 		.long	LC2
 503 0074 09       		.byte	9
 504 0075 000000   		.space 3
 505 0078 0C000000 		.long	LC3
 506 007c 03       		.byte	3
 507 007d 000000   		.space 3
 508 0080 10000000 		.long	LC4
 509 0084 28       		.byte	40
 510 0085 000000   		.space 3
 511 0088 14000000 		.long	LC5
 512 008c 0C       		.byte	12
 513 008d 000000   		.space 3
 514 0090 18000000 		.long	LC6
 515 0094 0E       		.byte	14
 516 0095 000000   		.space 3
 517 0098 1C000000 		.long	LC7
 518 009c 10       		.byte	16
 519 009d 000000   		.space 3
 520 00a0 20000000 		.long	LC8
 521 00a4 4A       		.byte	74
 522 00a5 000000   		.space 3
 523 00a8 23000000 		.long	LC9
 524 00ac 4C       		.byte	76
 525 00ad 000000   		.space 3
 526 00b0 26000000 		.long	LC10
 527 00b4 4E       		.byte	78
 528 00b5 000000   		.space 3
 529 00b8 2B000000 		.long	LC11
 530 00bc 13       		.byte	19
 531 00bd 000000   		.space 3
 532 00c0 2F000000 		.long	LC12
 533 00c4 48       		.byte	72
 534 00c5 000000   		.space 3
 535 00c8 33000000 		.long	LC13
 536 00cc 19       		.byte	25
 537 00cd 000000   		.space 3
 538 00d0 37000000 		.long	LC14
 539 00d4 1D       		.byte	29
 540 00d5 000000   		.space 3
 541 00d8 3B000000 		.long	LC15
 542 00dc 31       		.byte	49
 543 00dd 000000   		.space 3
 544 00e0 3F000000 		.long	LC16
 545 00e4 1B       		.byte	27
 546 00e5 000000   		.space 3
 547 00e8 43000000 		.long	LC17
 548 00ec 49       		.byte	73
 549 00ed 000000   		.space 3
 550 00f0 47000000 		.long	LC18
 551 00f4 49       		.byte	73
 552 00f5 000000   		.space 3
 553 00f8 4B000000 		.long	LC19
 554 00fc 49       		.byte	73
 555 00fd 000000   		.space 3
 556 0100 4F000000 		.long	LC20
 557 0104 43       		.byte	67
 558 0105 000000   		.space 3
GAS LISTING f:/K7_TOUR/CODE/plutommi/Customer/ResGenerator/gcctmp/cckxaaaa.s 			page 3


 563              	.globl _binary_mode
 564              		.bss
 565              	_binary_mode:
 566 0000 00       		.space 1
 567              	.globl _verbose_mode
 568              	_verbose_mode:
 569 0001 00       		.space 1
 570 0002 00000000 		.text
 570      00000000 
 570      00000000 
 570      0000
 571              	LC21:
 572 0108 0A4E6F74 		.ascii "\12Not a valid BMP file\0"
 572      20612076 
 572      616C6964 
 572      20424D50 
 572      2066696C 
 573              	LC22:
 574 011e 2E5C7465 		.ascii ".\\temp\\\0"
 574      6D705C00 
 575              	LC23:
 576 0126 5F74656D 		.ascii "_temp.rgb\0"
 576      702E7267 
 576      6200
 577 0130 90909090 		.align 32
 577      90909090 
 577      90909090 
 577      90909090 
 578              	LC24:
 579 0140 2E2E5C2E 		.ascii "..\\..\\Customer\\ResGenerator\\convert.exe\0"
 579      2E5C4375 
 579      73746F6D 
 579      65725C52 
 579      65734765 
 580              	LC25:
 581 0168 25732025 		.ascii "%s %s %s\0"
 581      73202573 
 581      00
 582              	LC26:
 583 0171 726200   		.ascii "rb\0"
 584              	LC27:
 585 0174 0A66696C 		.ascii "\12file_ptr open failed\12\0"
 585      655F7074 
 585      72206F70 
 585      656E2066 
 585      61696C65 
 586              	LC28:
 587 018b 0C696C65 		.ascii "\14ile_buffer malloc failed\12\0"
 587      5F627566 
 587      66657220 
 587      6D616C6C 
 587      6F632066 
 588              	LC29:
 589 01a6 25632563 		.ascii "%c%c%c%c%c%c%c%c%c\0"
 589      25632563 
 589      25632563 
 589      25632563 
GAS LISTING f:/K7_TOUR/CODE/plutommi/Customer/ResGenerator/gcctmp/cckxaaaa.s 			page 4


 589      256300
 590              	LC30:
 591 01b9 256300   		.ascii "%c\0"
 592 01bc 8D742600 		.align 32
 593              	LC31:
 594 01c0 0A7B09   		.ascii "\12{\11"
 595 01c3 30782530 		.ascii "0x%02X, 0x%02X, 0x%02X, 0x%02X, 0x%02X, 0x%02X, 0x%02X, 0x%02X, 0x%02X,\0"
 595      32582C20 
 595      30782530 
 595      32582C20 
 595      30782530 
 596              	LC32:
 597 020b 0A0900   		.ascii "\12\11\0"
 598              	LC33:
 599 020e 30782530 		.ascii "0x%02X, \0"
 599      32582C20 
 599      00
 600              	LC34:
 601 0217 0A7D3B0A 		.ascii "\12};\12\0"
 601      00
 602 021c 8D742600 		.align 32
 603              	LC35:
 604 0220 0A576964 		.ascii "\12Width=%d, Height=%d, Size=%d bytes\0"
 604      74683D25 
 604      642C2048 
 604      65696768 
 604      743D2564 
 605              	LC36:
 606 0244 0A496D61 		.ascii "\12Image Data:\0"
 606      67652044 
 606      6174613A 
 606      00
 607              	LC37:
 608 0251 0A436F6E 		.ascii "\12Convert OK\12\0"
 608      76657274 
 608      204F4B0A 
 608      00
 615              	_EMS_load:
   1:../../MMI/Resource/bmp2ems.c **** /*****************************************************************************
   2:../../MMI/Resource/bmp2ems.c **** *  Copyright Statement:
   3:../../MMI/Resource/bmp2ems.c **** *  --------------------
   4:../../MMI/Resource/bmp2ems.c **** *  This software is protected by Copyright and the information contained
   5:../../MMI/Resource/bmp2ems.c **** *  herein is confidential. The software may not be copied and the information
   6:../../MMI/Resource/bmp2ems.c **** *  contained herein may not be used or disclosed except with the written
   7:../../MMI/Resource/bmp2ems.c **** *  permission of MediaTek Inc. (C) 2005
   8:../../MMI/Resource/bmp2ems.c **** *
   9:../../MMI/Resource/bmp2ems.c **** *  BY OPENING THIS FILE, BUYER HEREBY UNEQUIVOCALLY ACKNOWLEDGES AND AGREES
  10:../../MMI/Resource/bmp2ems.c **** *  THAT THE SOFTWARE/FIRMWARE AND ITS DOCUMENTATIONS ("MEDIATEK SOFTWARE")
  11:../../MMI/Resource/bmp2ems.c **** *  RECEIVED FROM MEDIATEK AND/OR ITS REPRESENTATIVES ARE PROVIDED TO BUYER ON
  12:../../MMI/Resource/bmp2ems.c **** *  AN "AS-IS" BASIS ONLY. MEDIATEK EXPRESSLY DISCLAIMS ANY AND ALL WARRANTIES,
  13:../../MMI/Resource/bmp2ems.c **** *  EXPRESS OR IMPLIED, INCLUDING BUT NOT LIMITED TO THE IMPLIED WARRANTIES OF
  14:../../MMI/Resource/bmp2ems.c **** *  MERCHANTABILITY, FITNESS FOR A PARTICULAR PURPOSE OR NONINFRINGEMENT.
  15:../../MMI/Resource/bmp2ems.c **** *  NEITHER DOES MEDIATEK PROVIDE ANY WARRANTY WHATSOEVER WITH RESPECT TO THE
  16:../../MMI/Resource/bmp2ems.c **** *  SOFTWARE OF ANY THIRD PARTY WHICH MAY BE USED BY, INCORPORATED IN, OR
  17:../../MMI/Resource/bmp2ems.c **** *  SUPPLIED WITH THE MEDIATEK SOFTWARE, AND BUYER AGREES TO LOOK ONLY TO SUCH
  18:../../MMI/Resource/bmp2ems.c **** *  THIRD PARTY FOR ANY WARRANTY CLAIM RELATING THERETO. MEDIATEK SHALL ALSO
  19:../../MMI/Resource/bmp2ems.c **** *  NOT BE RESPONSIBLE FOR ANY MEDIATEK SOFTWARE RELEASES MADE TO BUYER'S
GAS LISTING f:/K7_TOUR/CODE/plutommi/Customer/ResGenerator/gcctmp/cckxaaaa.s 			page 5


  20:../../MMI/Resource/bmp2ems.c **** *  SPECIFICATION OR TO CONFORM TO A PARTICULAR STANDARD OR OPEN FORUM.
  21:../../MMI/Resource/bmp2ems.c **** *
  22:../../MMI/Resource/bmp2ems.c **** *  BUYER'S SOLE AND EXCLUSIVE REMEDY AND MEDIATEK'S ENTIRE AND CUMULATIVE
  23:../../MMI/Resource/bmp2ems.c **** *  LIABILITY WITH RESPECT TO THE MEDIATEK SOFTWARE RELEASED HEREUNDER WILL BE,
  24:../../MMI/Resource/bmp2ems.c **** *  AT MEDIATEK'S OPTION, TO REVISE OR REPLACE THE MEDIATEK SOFTWARE AT ISSUE,
  25:../../MMI/Resource/bmp2ems.c **** *  OR REFUND ANY SOFTWARE LICENSE FEES OR SERVICE CHARGE PAID BY BUYER TO
  26:../../MMI/Resource/bmp2ems.c **** *  MEDIATEK FOR SUCH MEDIATEK SOFTWARE AT ISSUE. 
  27:../../MMI/Resource/bmp2ems.c **** *
  28:../../MMI/Resource/bmp2ems.c **** *  THE TRANSACTION CONTEMPLATED HEREUNDER SHALL BE CONSTRUED IN ACCORDANCE
  29:../../MMI/Resource/bmp2ems.c **** *  WITH THE LAWS OF THE STATE OF CALIFORNIA, USA, EXCLUDING ITS CONFLICT OF
  30:../../MMI/Resource/bmp2ems.c **** *  LAWS PRINCIPLES.  ANY DISPUTES, CONTROVERSIES OR CLAIMS ARISING THEREOF AND
  31:../../MMI/Resource/bmp2ems.c **** *  RELATED THERETO SHALL BE SETTLED BY ARBITRATION IN SAN FRANCISCO, CA, UNDER
  32:../../MMI/Resource/bmp2ems.c **** *  THE RULES OF THE INTERNATIONAL CHAMBER OF COMMERCE (ICC).
  33:../../MMI/Resource/bmp2ems.c **** *
  34:../../MMI/Resource/bmp2ems.c **** *****************************************************************************/
  35:../../MMI/Resource/bmp2ems.c **** 
  36:../../MMI/Resource/bmp2ems.c **** /*******************************************************************************
  37:../../MMI/Resource/bmp2ems.c ****  * Filename:
  38:../../MMI/Resource/bmp2ems.c ****  * ---------
  39:../../MMI/Resource/bmp2ems.c ****  *  bmp2ems.c
  40:../../MMI/Resource/bmp2ems.c ****  *
  41:../../MMI/Resource/bmp2ems.c ****  * Project:
  42:../../MMI/Resource/bmp2ems.c ****  * --------
  43:../../MMI/Resource/bmp2ems.c ****  *  MAUI
  44:../../MMI/Resource/bmp2ems.c ****  *
  45:../../MMI/Resource/bmp2ems.c ****  * Description:
  46:../../MMI/Resource/bmp2ems.c ****  * ------------
  47:../../MMI/Resource/bmp2ems.c ****  *  
  48:../../MMI/Resource/bmp2ems.c ****  *
  49:../../MMI/Resource/bmp2ems.c ****  * Author:
  50:../../MMI/Resource/bmp2ems.c ****  * -------
  51:../../MMI/Resource/bmp2ems.c ****  *  
  52:../../MMI/Resource/bmp2ems.c ****  *
  53:../../MMI/Resource/bmp2ems.c ****  *==============================================================================
  54:../../MMI/Resource/bmp2ems.c ****  *             HISTORY
  55:../../MMI/Resource/bmp2ems.c ****  * Below this line, this part is controlled by PVCS VM. DO NOT MODIFY!! 
  56:../../MMI/Resource/bmp2ems.c ****  *------------------------------------------------------------------------------
  57:../../MMI/Resource/bmp2ems.c ****  * removed!
  58:../../MMI/Resource/bmp2ems.c ****  *
  59:../../MMI/Resource/bmp2ems.c ****  * removed!
  60:../../MMI/Resource/bmp2ems.c ****  * removed!
  61:../../MMI/Resource/bmp2ems.c ****  * removed!
  62:../../MMI/Resource/bmp2ems.c ****  *
  63:../../MMI/Resource/bmp2ems.c ****  * removed!
  64:../../MMI/Resource/bmp2ems.c ****  * removed!
  65:../../MMI/Resource/bmp2ems.c ****  * removed!
  66:../../MMI/Resource/bmp2ems.c ****  *
  67:../../MMI/Resource/bmp2ems.c ****  * removed!
  68:../../MMI/Resource/bmp2ems.c ****  * removed!
  69:../../MMI/Resource/bmp2ems.c ****  * removed!
  70:../../MMI/Resource/bmp2ems.c ****  *
  71:../../MMI/Resource/bmp2ems.c ****  * removed!
  72:../../MMI/Resource/bmp2ems.c ****  * removed!
  73:../../MMI/Resource/bmp2ems.c ****  * removed!
  74:../../MMI/Resource/bmp2ems.c ****  *
  75:../../MMI/Resource/bmp2ems.c ****  * removed!
  76:../../MMI/Resource/bmp2ems.c ****  * removed!
GAS LISTING f:/K7_TOUR/CODE/plutommi/Customer/ResGenerator/gcctmp/cckxaaaa.s 			page 6


  77:../../MMI/Resource/bmp2ems.c ****  * removed!
  78:../../MMI/Resource/bmp2ems.c ****  *
  79:../../MMI/Resource/bmp2ems.c ****  * removed!
  80:../../MMI/Resource/bmp2ems.c ****  * removed!
  81:../../MMI/Resource/bmp2ems.c ****  * removed!
  82:../../MMI/Resource/bmp2ems.c ****  *
  83:../../MMI/Resource/bmp2ems.c ****  * removed!
  84:../../MMI/Resource/bmp2ems.c ****  * removed!
  85:../../MMI/Resource/bmp2ems.c ****  * removed!
  86:../../MMI/Resource/bmp2ems.c ****  *
  87:../../MMI/Resource/bmp2ems.c ****  * removed!
  88:../../MMI/Resource/bmp2ems.c ****  * removed!
  89:../../MMI/Resource/bmp2ems.c ****  * removed!
  90:../../MMI/Resource/bmp2ems.c ****  *
  91:../../MMI/Resource/bmp2ems.c ****  * removed!
  92:../../MMI/Resource/bmp2ems.c ****  * removed!
  93:../../MMI/Resource/bmp2ems.c ****  * removed!
  94:../../MMI/Resource/bmp2ems.c ****  *
  95:../../MMI/Resource/bmp2ems.c ****  * removed!
  96:../../MMI/Resource/bmp2ems.c ****  * removed!
  97:../../MMI/Resource/bmp2ems.c ****  * removed!
  98:../../MMI/Resource/bmp2ems.c ****  *
  99:../../MMI/Resource/bmp2ems.c ****  * removed!
 100:../../MMI/Resource/bmp2ems.c ****  * removed!
 101:../../MMI/Resource/bmp2ems.c ****  * removed!
 102:../../MMI/Resource/bmp2ems.c ****  *
 103:../../MMI/Resource/bmp2ems.c ****  * removed!
 104:../../MMI/Resource/bmp2ems.c ****  * removed!
 105:../../MMI/Resource/bmp2ems.c ****  * removed!
 106:../../MMI/Resource/bmp2ems.c ****  *
 107:../../MMI/Resource/bmp2ems.c ****  * removed!
 108:../../MMI/Resource/bmp2ems.c ****  * removed!
 109:../../MMI/Resource/bmp2ems.c ****  * removed!
 110:../../MMI/Resource/bmp2ems.c ****  *
 111:../../MMI/Resource/bmp2ems.c ****  * removed!
 112:../../MMI/Resource/bmp2ems.c ****  * removed!
 113:../../MMI/Resource/bmp2ems.c ****  * removed!
 114:../../MMI/Resource/bmp2ems.c ****  *
 115:../../MMI/Resource/bmp2ems.c ****  * removed!
 116:../../MMI/Resource/bmp2ems.c ****  * removed!
 117:../../MMI/Resource/bmp2ems.c ****  * removed!
 118:../../MMI/Resource/bmp2ems.c ****  *
 119:../../MMI/Resource/bmp2ems.c ****  * removed!
 120:../../MMI/Resource/bmp2ems.c ****  * removed!
 121:../../MMI/Resource/bmp2ems.c ****  * removed!
 122:../../MMI/Resource/bmp2ems.c ****  *
 123:../../MMI/Resource/bmp2ems.c ****  *------------------------------------------------------------------------------
 124:../../MMI/Resource/bmp2ems.c ****  * Upper this line, this part is controlled by PVCS VM. DO NOT MODIFY!! 
 125:../../MMI/Resource/bmp2ems.c ****  *==============================================================================
 126:../../MMI/Resource/bmp2ems.c ****  *******************************************************************************/
 127:../../MMI/Resource/bmp2ems.c **** 
 128:../../MMI/Resource/bmp2ems.c **** #include <stdio.h>
 129:../../MMI/Resource/bmp2ems.c **** #include <stdlib.h>
 130:../../MMI/Resource/bmp2ems.c **** 
 131:../../MMI/Resource/bmp2ems.c **** #include "ResDevice.h"
 132:../../MMI/Resource/bmp2ems.c **** #include "ResBytestream.h"
 133:../../MMI/Resource/bmp2ems.c **** #include "ImgDecoderDef.h"
GAS LISTING f:/K7_TOUR/CODE/plutommi/Customer/ResGenerator/gcctmp/cckxaaaa.s 			page 7


 134:../../MMI/Resource/bmp2ems.c **** #include "mmi_features.h"
 135:../../MMI/Resource/bmp2ems.c **** 
 136:../../MMI/Resource/bmp2ems.c **** #include "WriteResUtil.h"
 137:../../MMI/Resource/bmp2ems.c **** 
 138:../../MMI/Resource/bmp2ems.c **** extern FILE *dest_file;
 139:../../MMI/Resource/bmp2ems.c **** extern int toolFlag;
 140:../../MMI/Resource/bmp2ems.c **** 
 141:../../MMI/Resource/bmp2ems.c **** U8 binary_mode = 0;
 142:../../MMI/Resource/bmp2ems.c **** U8 verbose_mode = 0;
 143:../../MMI/Resource/bmp2ems.c **** 
 144:../../MMI/Resource/bmp2ems.c **** #ifdef __MMI_RESOURCE_ENFB_SUPPORT__
 145:../../MMI/Resource/bmp2ems.c **** extern FILE *enfb_img_data_file;
 146:../../MMI/Resource/bmp2ems.c **** extern U32 enfb_offset;
 147:../../MMI/Resource/bmp2ems.c **** extern U32 enfb_size;
 148:../../MMI/Resource/bmp2ems.c **** extern MMI_BOOL ENFBAssociatedIDAdded;
 149:../../MMI/Resource/bmp2ems.c **** 
 150:../../MMI/Resource/bmp2ems.c **** #include "ImageGetDimension.h"
 151:../../MMI/Resource/bmp2ems.c **** #endif
 152:../../MMI/Resource/bmp2ems.c **** 
 153:../../MMI/Resource/bmp2ems.c **** 
 154:../../MMI/Resource/bmp2ems.c **** /*****************************************************************************
 155:../../MMI/Resource/bmp2ems.c ****  * FUNCTION
 156:../../MMI/Resource/bmp2ems.c ****  *  EMS_load
 157:../../MMI/Resource/bmp2ems.c ****  * DESCRIPTION
 158:../../MMI/Resource/bmp2ems.c ****  *  
 159:../../MMI/Resource/bmp2ems.c ****  * PARAMETERS
 160:../../MMI/Resource/bmp2ems.c ****  *  file            [?]     
 161:../../MMI/Resource/bmp2ems.c ****  *  filename        [?]     
 162:../../MMI/Resource/bmp2ems.c ****  * RETURNS
 163:../../MMI/Resource/bmp2ems.c ****  *  
 164:../../MMI/Resource/bmp2ems.c ****  *****************************************************************************/
 165:../../MMI/Resource/bmp2ems.c **** static U8 EMS_load(bytestream *file, char *filename, ResgenImageOutStream * outstream, SetImageProc
 166:../../MMI/Resource/bmp2ems.c **** {
 617              	LM1:
 618 025e 55       		pushl	%ebp
 619 025f 89E5     		movl	%esp, %ebp
 620 0261 53       		pushl	%ebx
 621 0262 B8E41400 		movl	$5348, %eax
 621      00
 622 0267 E8000000 		call	__alloca
 622      00
 167:../../MMI/Resource/bmp2ems.c ****     /*----------------------------------------------------------------*/
 168:../../MMI/Resource/bmp2ems.c ****     /* Local Variables                                                */
 169:../../MMI/Resource/bmp2ems.c ****     /*----------------------------------------------------------------*/
 170:../../MMI/Resource/bmp2ems.c ****     bitmap_file_header file_header;
 171:../../MMI/Resource/bmp2ems.c ****     bitmap_info_header info_header;
 172:../../MMI/Resource/bmp2ems.c ****     S32 i, j, k;
 173:../../MMI/Resource/bmp2ems.c ****     S32 bits_per_pixel, width, height, PDU_length;
 174:../../MMI/Resource/bmp2ems.c ****     U8 buffer[2048];
 175:../../MMI/Resource/bmp2ems.c ****     U8 mask;
 176:../../MMI/Resource/bmp2ems.c ****     U8 data;
 177:../../MMI/Resource/bmp2ems.c ****     char cmdbuf[1024];
 178:../../MMI/Resource/bmp2ems.c ****     FILE *file_ptr;
 179:../../MMI/Resource/bmp2ems.c ****     S32 file_length;
 180:../../MMI/Resource/bmp2ems.c ****     U8 *file_buffer;
 181:../../MMI/Resource/bmp2ems.c ****     bytestream *rgb_image;
 182:../../MMI/Resource/bmp2ems.c ****     U8 scale_data;
GAS LISTING f:/K7_TOUR/CODE/plutommi/Customer/ResGenerator/gcctmp/cckxaaaa.s 			page 8


 183:../../MMI/Resource/bmp2ems.c **** #ifdef __MMI_RESOURCE_ENFB_SUPPORT__
 184:../../MMI/Resource/bmp2ems.c ****     U32 enfb_width, enfb_height;
 185:../../MMI/Resource/bmp2ems.c ****     S32 enfb_ret;
 186:../../MMI/Resource/bmp2ems.c **** #endif
 187:../../MMI/Resource/bmp2ems.c ****     char temp_filename1[1024];
 188:../../MMI/Resource/bmp2ems.c ****     char temp_filename2[1024];
 189:../../MMI/Resource/bmp2ems.c **** 
 190:../../MMI/Resource/bmp2ems.c ****     /*----------------------------------------------------------------*/
 191:../../MMI/Resource/bmp2ems.c ****     /* Code Body                                                      */
 192:../../MMI/Resource/bmp2ems.c ****     /*----------------------------------------------------------------*/
 193:../../MMI/Resource/bmp2ems.c ****     BMP_load_file_header(&file_header, file);
 624              	LM2:
 625              	LBB2:
 626 026c 8B4508   		movl	8(%ebp), %eax
 627 026f 89442404 		movl	%eax, 4(%esp)
 628 0273 8D45E8   		leal	-24(%ebp), %eax
 629 0276 890424   		movl	%eax, (%esp)
 630 0279 E8000000 		call	_BMP_load_file_header
 630      00
 194:../../MMI/Resource/bmp2ems.c ****     if ((file_header.file_type & 0xff) != 'B')
 632              	LM3:
 633 027e 0FB745E8 		movzwl	-24(%ebp), %eax
 634 0282 25FF0000 		andl	$255, %eax
 634      00
 635 0287 83F842   		cmpl	$66, %eax
 636 028a 741B     		je	L20
 195:../../MMI/Resource/bmp2ems.c ****     {
 196:../../MMI/Resource/bmp2ems.c ****         printf("\nNot a valid BMP file");
 638              	LM4:
 639 028c C7042408 		movl	$LC21, (%esp)
 639      010000
 640 0293 E8000000 		call	_printf
 640      00
 197:../../MMI/Resource/bmp2ems.c ****         return (0);
 642              	LM5:
 643 0298 C78564EB 		movl	$0, -5276(%ebp)
 643      FFFF0000 
 643      0000
 644 02a2 E9200B00 		jmp	L19
 644      00
 645              	L20:
 198:../../MMI/Resource/bmp2ems.c ****     }
 199:../../MMI/Resource/bmp2ems.c ****     if ((file_header.file_type >> 8) != 'M')
 647              	LM6:
 648 02a7 0FB745E8 		movzwl	-24(%ebp), %eax
 649 02ab C1E808   		shrl	$8, %eax
 650 02ae 6683F84D 		cmpw	$77, %ax
 651 02b2 741B     		je	L21
 200:../../MMI/Resource/bmp2ems.c ****     {
 201:../../MMI/Resource/bmp2ems.c ****         printf("\nNot a valid BMP file");
 653              	LM7:
 654 02b4 C7042408 		movl	$LC21, (%esp)
 654      010000
 655 02bb E8000000 		call	_printf
 655      00
 202:../../MMI/Resource/bmp2ems.c ****         return (0);
 657              	LM8:
GAS LISTING f:/K7_TOUR/CODE/plutommi/Customer/ResGenerator/gcctmp/cckxaaaa.s 			page 9


 658 02c0 C78564EB 		movl	$0, -5276(%ebp)
 658      FFFF0000 
 658      0000
 659 02ca E9F80A00 		jmp	L19
 659      00
 660              	L21:
 203:../../MMI/Resource/bmp2ems.c ****     }
 204:../../MMI/Resource/bmp2ems.c ****     BMP_load_info_header(&info_header, file);
 662              	LM9:
 663 02cf 8B4508   		movl	8(%ebp), %eax
 664 02d2 89442404 		movl	%eax, 4(%esp)
 665 02d6 8D45B8   		leal	-72(%ebp), %eax
 666 02d9 890424   		movl	%eax, (%esp)
 667 02dc E8000000 		call	_BMP_load_info_header
 667      00
 205:../../MMI/Resource/bmp2ems.c ****     width = info_header.width;
 669              	LM10:
 670 02e1 8B45BC   		movl	-68(%ebp), %eax
 671 02e4 8945A4   		movl	%eax, -92(%ebp)
 206:../../MMI/Resource/bmp2ems.c ****     height = info_header.height;
 673              	LM11:
 674 02e7 8B45C0   		movl	-64(%ebp), %eax
 675 02ea 8945A0   		movl	%eax, -96(%ebp)
 207:../../MMI/Resource/bmp2ems.c ****     if (info_header.bits_per_pixel == 1)
 677              	LM12:
 678 02ed 66837DC6 		cmpw	$1, -58(%ebp)
 678      01
 679 02f2 7519     		jne	L22
 208:../../MMI/Resource/bmp2ems.c ****     {
 209:../../MMI/Resource/bmp2ems.c ****         bits_per_pixel = 1;
 681              	LM13:
 682 02f4 C745A801 		movl	$1, -88(%ebp)
 682      000000
 210:../../MMI/Resource/bmp2ems.c ****         PDU_length = ((width * height) + 7) >> 3;
 684              	LM14:
 685 02fb 8B45A4   		movl	-92(%ebp), %eax
 686 02fe 0FAF45A0 		imull	-96(%ebp), %eax
 687 0302 83C007   		addl	$7, %eax
 688 0305 C1F803   		sarl	$3, %eax
 689 0308 89459C   		movl	%eax, -100(%ebp)
 690 030b EB5B     		jmp	L23
 691              	L22:
 211:../../MMI/Resource/bmp2ems.c **** 
 212:../../MMI/Resource/bmp2ems.c ****     }
 213:../../MMI/Resource/bmp2ems.c ****     else if (info_header.bits_per_pixel == 4)
 693              	LM15:
 694 030d 66837DC6 		cmpw	$4, -58(%ebp)
 694      04
 695 0312 751B     		jne	L24
 214:../../MMI/Resource/bmp2ems.c ****     {
 215:../../MMI/Resource/bmp2ems.c ****         bits_per_pixel = 2;
 697              	LM16:
 698 0314 C745A802 		movl	$2, -88(%ebp)
 698      000000
 216:../../MMI/Resource/bmp2ems.c ****         PDU_length = (((width * height) << 1) + 7) >> 3;
 700              	LM17:
 701 031b 8B45A4   		movl	-92(%ebp), %eax
GAS LISTING f:/K7_TOUR/CODE/plutommi/Customer/ResGenerator/gcctmp/cckxaaaa.s 			page 10


 702 031e 0FAF45A0 		imull	-96(%ebp), %eax
 703 0322 01C0     		addl	%eax, %eax
 704 0324 83C007   		addl	$7, %eax
 705 0327 C1F803   		sarl	$3, %eax
 706 032a 89459C   		movl	%eax, -100(%ebp)
 707 032d EB39     		jmp	L23
 708              	L24:
 217:../../MMI/Resource/bmp2ems.c ****     }
 218:../../MMI/Resource/bmp2ems.c ****     else if (info_header.bits_per_pixel == 8)
 710              	LM18:
 711 032f 66837DC6 		cmpw	$8, -58(%ebp)
 711      08
 712 0334 7523     		jne	L26
 219:../../MMI/Resource/bmp2ems.c ****     {
 220:../../MMI/Resource/bmp2ems.c ****         bits_per_pixel = 6;
 714              	LM19:
 715 0336 C745A806 		movl	$6, -88(%ebp)
 715      000000
 221:../../MMI/Resource/bmp2ems.c ****         PDU_length = (((width * height) * 6) + 7) >> 3;
 717              	LM20:
 718 033d 8B45A4   		movl	-92(%ebp), %eax
 719 0340 89C2     		movl	%eax, %edx
 720 0342 0FAF55A0 		imull	-96(%ebp), %edx
 721 0346 89D0     		movl	%edx, %eax
 722 0348 01C0     		addl	%eax, %eax
 723 034a 01D0     		addl	%edx, %eax
 724 034c 01C0     		addl	%eax, %eax
 725 034e 83C007   		addl	$7, %eax
 726 0351 C1F803   		sarl	$3, %eax
 727 0354 89459C   		movl	%eax, -100(%ebp)
 728 0357 EB0F     		jmp	L23
 729              	L26:
 222:../../MMI/Resource/bmp2ems.c ****     }
 223:../../MMI/Resource/bmp2ems.c ****     else
 224:../../MMI/Resource/bmp2ems.c ****     {
 225:../../MMI/Resource/bmp2ems.c ****         return (0);
 731              	LM21:
 732 0359 C78564EB 		movl	$0, -5276(%ebp)
 732      FFFF0000 
 732      0000
 733 0363 E95F0A00 		jmp	L19
 733      00
 734              	L23:
 226:../../MMI/Resource/bmp2ems.c ****     }
 227:../../MMI/Resource/bmp2ems.c **** 
 228:../../MMI/Resource/bmp2ems.c ****     processData->res_size = PDU_length;
 736              	LM22:
 737 0368 8B5514   		movl	20(%ebp), %edx
 738 036b 8B459C   		movl	-100(%ebp), %eax
 739 036e 89820002 		movl	%eax, 512(%edx)
 739      0000
 229:../../MMI/Resource/bmp2ems.c **** 
 230:../../MMI/Resource/bmp2ems.c ****     bytestream_fseek(file, file_header.bitmap_offset, SEEK_SET);
 741              	LM23:
 742 0374 C7442408 		movl	$0, 8(%esp)
 742      00000000 
 743 037c 8B45F4   		movl	-12(%ebp), %eax
GAS LISTING f:/K7_TOUR/CODE/plutommi/Customer/ResGenerator/gcctmp/cckxaaaa.s 			page 11


 744 037f 89442404 		movl	%eax, 4(%esp)
 745 0383 8B4508   		movl	8(%ebp), %eax
 746 0386 890424   		movl	%eax, (%esp)
 747 0389 E8000000 		call	_bytestream_fseek
 747      00
 231:../../MMI/Resource/bmp2ems.c ****     Extract_Name(temp_filename1, filename, SYSTEM_IMAGE);
 749              	LM24:
 750 038e C7442408 		movl	$0, 8(%esp)
 750      00000000 
 751 0396 8B450C   		movl	12(%ebp), %eax
 752 0399 89442404 		movl	%eax, 4(%esp)
 753 039d 8D8568EF 		leal	-4248(%ebp), %eax
 753      FFFF
 754 03a3 890424   		movl	%eax, (%esp)
 755 03a6 E8000000 		call	_Extract_Name
 755      00
 232:../../MMI/Resource/bmp2ems.c ****     strcpy(temp_filename2, ".\\temp\\");
 757              	LM25:
 758 03ab C7442404 		movl	$LC22, 4(%esp)
 758      1E010000 
 759 03b3 8D8568EB 		leal	-5272(%ebp), %eax
 759      FFFF
 760 03b9 890424   		movl	%eax, (%esp)
 761 03bc E8000000 		call	_strcpy
 761      00
 233:../../MMI/Resource/bmp2ems.c ****     strcat(temp_filename2, temp_filename1);
 763              	LM26:
 764 03c1 8D8568EF 		leal	-4248(%ebp), %eax
 764      FFFF
 765 03c7 89442404 		movl	%eax, 4(%esp)
 766 03cb 8D8568EB 		leal	-5272(%ebp), %eax
 766      FFFF
 767 03d1 890424   		movl	%eax, (%esp)
 768 03d4 E8000000 		call	_strcat
 768      00
 234:../../MMI/Resource/bmp2ems.c ****     strcat(temp_filename2, "_temp.rgb");
 770              	LM27:
 771 03d9 C7442404 		movl	$LC23, 4(%esp)
 771      26010000 
 772 03e1 8D8568EB 		leal	-5272(%ebp), %eax
 772      FFFF
 773 03e7 890424   		movl	%eax, (%esp)
 774 03ea E8000000 		call	_strcat
 774      00
 235:../../MMI/Resource/bmp2ems.c ****     sprintf(cmdbuf, "%s %s %s", "..\\..\\Customer\\ResGenerator\\convert.exe", filename, temp_filen
 776              	LM28:
 777 03ef 8D8568EB 		leal	-5272(%ebp), %eax
 777      FFFF
 778 03f5 89442410 		movl	%eax, 16(%esp)
 779 03f9 8B450C   		movl	12(%ebp), %eax
 780 03fc 8944240C 		movl	%eax, 12(%esp)
 781 0400 C7442408 		movl	$LC24, 8(%esp)
 781      40010000 
 782 0408 C7442404 		movl	$LC25, 4(%esp)
 782      68010000 
 783 0410 8D8588F3 		leal	-3192(%ebp), %eax
 783      FFFF
GAS LISTING f:/K7_TOUR/CODE/plutommi/Customer/ResGenerator/gcctmp/cckxaaaa.s 			page 12


 784 0416 890424   		movl	%eax, (%esp)
 785 0419 E8000000 		call	_sprintf
 785      00
 236:../../MMI/Resource/bmp2ems.c ****     system(cmdbuf);
 787              	LM29:
 788 041e 8D8588F3 		leal	-3192(%ebp), %eax
 788      FFFF
 789 0424 890424   		movl	%eax, (%esp)
 790 0427 E8000000 		call	_system
 790      00
 237:../../MMI/Resource/bmp2ems.c ****     file_ptr = fopen(temp_filename2, "rb");
 792              	LM30:
 793 042c C7442404 		movl	$LC26, 4(%esp)
 793      71010000 
 794 0434 8D8568EB 		leal	-5272(%ebp), %eax
 794      FFFF
 795 043a 890424   		movl	%eax, (%esp)
 796 043d E8000000 		call	_fopen
 796      00
 797 0442 898584F3 		movl	%eax, -3196(%ebp)
 797      FFFF
 238:../../MMI/Resource/bmp2ems.c ****     if (file_ptr == NULL)
 799              	LM31:
 800 0448 83BD84F3 		cmpl	$0, -3196(%ebp)
 800      FFFF00
 801 044f 751B     		jne	L28
 239:../../MMI/Resource/bmp2ems.c ****     {
 240:../../MMI/Resource/bmp2ems.c ****         printf("\nfile_ptr open failed\n");
 803              	LM32:
 804 0451 C7042474 		movl	$LC27, (%esp)
 804      010000
 805 0458 E8000000 		call	_printf
 805      00
 241:../../MMI/Resource/bmp2ems.c ****         return (0);            
 807              	LM33:
 808 045d C78564EB 		movl	$0, -5276(%ebp)
 808      FFFF0000 
 808      0000
 809 0467 E95B0900 		jmp	L19
 809      00
 810              	L28:
 242:../../MMI/Resource/bmp2ems.c ****     }
 243:../../MMI/Resource/bmp2ems.c ****     fseek(file_ptr, 0, SEEK_END);
 812              	LM34:
 813 046c C7442408 		movl	$2, 8(%esp)
 813      02000000 
 814 0474 C7442404 		movl	$0, 4(%esp)
 814      00000000 
 815 047c 8B8584F3 		movl	-3196(%ebp), %eax
 815      FFFF
 816 0482 890424   		movl	%eax, (%esp)
 817 0485 E8000000 		call	_fseek
 817      00
 244:../../MMI/Resource/bmp2ems.c ****     file_length = ftell(file_ptr);
 819              	LM35:
 820 048a 8B8584F3 		movl	-3196(%ebp), %eax
 820      FFFF
GAS LISTING f:/K7_TOUR/CODE/plutommi/Customer/ResGenerator/gcctmp/cckxaaaa.s 			page 13


 821 0490 890424   		movl	%eax, (%esp)
 822 0493 E8000000 		call	_ftell
 822      00
 823 0498 898580F3 		movl	%eax, -3200(%ebp)
 823      FFFF
 245:../../MMI/Resource/bmp2ems.c ****     fseek(file_ptr, 0, SEEK_SET);
 825              	LM36:
 826 049e C7442408 		movl	$0, 8(%esp)
 826      00000000 
 827 04a6 C7442404 		movl	$0, 4(%esp)
 827      00000000 
 828 04ae 8B8584F3 		movl	-3196(%ebp), %eax
 828      FFFF
 829 04b4 890424   		movl	%eax, (%esp)
 830 04b7 E8000000 		call	_fseek
 830      00
 246:../../MMI/Resource/bmp2ems.c ****     file_buffer = (U8*) malloc(file_length);
 832              	LM37:
 833 04bc 8B8580F3 		movl	-3200(%ebp), %eax
 833      FFFF
 834 04c2 890424   		movl	%eax, (%esp)
 835 04c5 E8000000 		call	_malloc
 835      00
 836 04ca 89857CF3 		movl	%eax, -3204(%ebp)
 836      FFFF
 247:../../MMI/Resource/bmp2ems.c ****     if (file_buffer == NULL)
 838              	LM38:
 839 04d0 83BD7CF3 		cmpl	$0, -3204(%ebp)
 839      FFFF00
 840 04d7 7529     		jne	L29
 248:../../MMI/Resource/bmp2ems.c ****     {
 249:../../MMI/Resource/bmp2ems.c ****         printf("\file_buffer malloc failed\n");
 842              	LM39:
 843 04d9 C704248B 		movl	$LC28, (%esp)
 843      010000
 844 04e0 E8000000 		call	_printf
 844      00
 250:../../MMI/Resource/bmp2ems.c ****         fclose(file_ptr);
 846              	LM40:
 847 04e5 8B8584F3 		movl	-3196(%ebp), %eax
 847      FFFF
 848 04eb 890424   		movl	%eax, (%esp)
 849 04ee E8000000 		call	_fclose
 849      00
 251:../../MMI/Resource/bmp2ems.c ****         return (0);            
 851              	LM41:
 852 04f3 C78564EB 		movl	$0, -5276(%ebp)
 852      FFFF0000 
 852      0000
 853 04fd E9C50800 		jmp	L19
 853      00
 854              	L29:
 252:../../MMI/Resource/bmp2ems.c ****     }
 253:../../MMI/Resource/bmp2ems.c ****     fread(file_buffer, 1, file_length, file_ptr);
 856              	LM42:
 857 0502 8B8584F3 		movl	-3196(%ebp), %eax
 857      FFFF
GAS LISTING f:/K7_TOUR/CODE/plutommi/Customer/ResGenerator/gcctmp/cckxaaaa.s 			page 14


 858 0508 8944240C 		movl	%eax, 12(%esp)
 859 050c 8B8580F3 		movl	-3200(%ebp), %eax
 859      FFFF
 860 0512 89442408 		movl	%eax, 8(%esp)
 861 0516 C7442404 		movl	$1, 4(%esp)
 861      01000000 
 862 051e 8B857CF3 		movl	-3204(%ebp), %eax
 862      FFFF
 863 0524 890424   		movl	%eax, (%esp)
 864 0527 E8000000 		call	_fread
 864      00
 254:../../MMI/Resource/bmp2ems.c ****     fclose(file_ptr);
 866              	LM43:
 867 052c 8B8584F3 		movl	-3196(%ebp), %eax
 867      FFFF
 868 0532 890424   		movl	%eax, (%esp)
 869 0535 E8000000 		call	_fclose
 869      00
 255:../../MMI/Resource/bmp2ems.c ****     bytestream_initialize(&rgb_image, file_buffer, file_length);
 871              	LM44:
 872 053a 8B8580F3 		movl	-3200(%ebp), %eax
 872      FFFF
 873 0540 89442408 		movl	%eax, 8(%esp)
 874 0544 8B857CF3 		movl	-3204(%ebp), %eax
 874      FFFF
 875 054a 89442404 		movl	%eax, 4(%esp)
 876 054e 8D8578F3 		leal	-3208(%ebp), %eax
 876      FFFF
 877 0554 890424   		movl	%eax, (%esp)
 878 0557 E8000000 		call	_bytestream_initialize
 878      00
 256:../../MMI/Resource/bmp2ems.c ****     free(file_buffer);
 880              	LM45:
 881 055c 8B857CF3 		movl	-3204(%ebp), %eax
 881      FFFF
 882 0562 890424   		movl	%eax, (%esp)
 883 0565 E8000000 		call	_free
 883      00
 257:../../MMI/Resource/bmp2ems.c **** 
 258:../../MMI/Resource/bmp2ems.c ****     if (binary_mode)
 885              	LM46:
 886 056a 803D0000 		cmpb	$0, _binary_mode
 886      000000
 887 0571 0F849304 		je	L30
 887      0000
 259:../../MMI/Resource/bmp2ems.c ****     {
 260:../../MMI/Resource/bmp2ems.c ****         if (bits_per_pixel == 1)
 889              	LM47:
 890 0577 837DA801 		cmpl	$1, -88(%ebp)
 891 057b 0F85E700 		jne	L31
 891      0000
 261:../../MMI/Resource/bmp2ems.c ****         {
 262:../../MMI/Resource/bmp2ems.c ****             for (i = 0; i < PDU_length; i++)
 893              	LM48:
 894 0581 C745B400 		movl	$0, -76(%ebp)
 894      000000
 895              	L32:
GAS LISTING f:/K7_TOUR/CODE/plutommi/Customer/ResGenerator/gcctmp/cckxaaaa.s 			page 15


 896 0588 8B45B4   		movl	-76(%ebp), %eax
 897 058b 3B459C   		cmpl	-100(%ebp), %eax
 898 058e 7C05     		jl	L35
 899 0590 E9DE0200 		jmp	L42
 899      00
 900              	L35:
 263:../../MMI/Resource/bmp2ems.c ****             {
 264:../../MMI/Resource/bmp2ems.c ****                 buffer[i] = 0x00;
 902              	LM49:
 903 0595 8D45F8   		leal	-8(%ebp), %eax
 904 0598 0345B4   		addl	-76(%ebp), %eax
 905 059b 2D600800 		subl	$2144, %eax
 905      00
 906 05a0 C60000   		movb	$0, (%eax)
 265:../../MMI/Resource/bmp2ems.c ****                 for (k = 8; k; k--)
 908              	LM50:
 909 05a3 C745AC08 		movl	$8, -84(%ebp)
 909      000000
 910              	L36:
 911 05aa 837DAC00 		cmpl	$0, -84(%ebp)
 912 05ae 7505     		jne	L39
 913 05b0 E9A90000 		jmp	L34
 913      00
 914              	L39:
 266:../../MMI/Resource/bmp2ems.c ****                 {
 267:../../MMI/Resource/bmp2ems.c ****                     data =
 916              	LM51:
 917 05b5 8D8578F3 		leal	-3208(%ebp), %eax
 917      FFFF
 918 05bb 890424   		movl	%eax, (%esp)
 919 05be E8000000 		call	_bytestream_fgetbyte
 919      00
 920 05c3 0FB6D8   		movzbl	%al, %ebx
 921 05c6 8D8578F3 		leal	-3208(%ebp), %eax
 921      FFFF
 922 05cc 890424   		movl	%eax, (%esp)
 923 05cf E8000000 		call	_bytestream_fgetbyte
 923      00
 924 05d4 0FB6C0   		movzbl	%al, %eax
 925 05d7 01C3     		addl	%eax, %ebx
 926 05d9 8D8578F3 		leal	-3208(%ebp), %eax
 926      FFFF
 927 05df 890424   		movl	%eax, (%esp)
 928 05e2 E8000000 		call	_bytestream_fgetbyte
 928      00
 929 05e7 0FB6C0   		movzbl	%al, %eax
 930 05ea 01C3     		addl	%eax, %ebx
 931 05ec 899D54EB 		movl	%ebx, -5292(%ebp)
 931      FFFF
 932 05f2 B8565555 		movl	$1431655766, %eax
 932      55
 933 05f7 F7AD54EB 		imull	-5292(%ebp)
 933      FFFF
 934 05fd 89D1     		movl	%edx, %ecx
 935 05ff 8B8554EB 		movl	-5292(%ebp), %eax
 935      FFFF
 936 0605 C1F81F   		sarl	$31, %eax
GAS LISTING f:/K7_TOUR/CODE/plutommi/Customer/ResGenerator/gcctmp/cckxaaaa.s 			page 16


 937 0608 29C1     		subl	%eax, %ecx
 938 060a 89C8     		movl	%ecx, %eax
 939 060c 888596F7 		movb	%al, -2154(%ebp)
 939      FFFF
 268:../../MMI/Resource/bmp2ems.c ****                         (bytestream_fgetbyte(&rgb_image) + bytestream_fgetbyte(&rgb_image) +
 269:../../MMI/Resource/bmp2ems.c ****                          bytestream_fgetbyte(&rgb_image)) / 3;
 270:../../MMI/Resource/bmp2ems.c ****                     if (data >= 0 && data < 128)
 941              	LM52:
 942 0612 80BD96F7 		cmpb	$0, -2154(%ebp)
 942      FFFF00
 943 0619 7809     		js	L40
 271:../../MMI/Resource/bmp2ems.c ****                     {
 272:../../MMI/Resource/bmp2ems.c ****                         scale_data = 0x01;
 945              	LM53:
 946 061b C68577F3 		movb	$1, -3209(%ebp)
 946      FFFF01
 947 0622 EB07     		jmp	L41
 948              	L40:
 273:../../MMI/Resource/bmp2ems.c ****                     }
 274:../../MMI/Resource/bmp2ems.c ****                     else
 275:../../MMI/Resource/bmp2ems.c ****                     {
 276:../../MMI/Resource/bmp2ems.c ****                         scale_data = 0x00;
 950              	LM54:
 951 0624 C68577F3 		movb	$0, -3209(%ebp)
 951      FFFF00
 952              	L41:
 277:../../MMI/Resource/bmp2ems.c ****                     }
 278:../../MMI/Resource/bmp2ems.c ****                     buffer[i] |= scale_data << (k - 1);
 954              	LM55:
 955 062b 8D45F8   		leal	-8(%ebp), %eax
 956 062e 0345B4   		addl	-76(%ebp), %eax
 957 0631 8D98A0F7 		leal	-2144(%eax), %ebx
 957      FFFF
 958 0637 8D45F8   		leal	-8(%ebp), %eax
 959 063a 0345B4   		addl	-76(%ebp), %eax
 960 063d 8D90A0F7 		leal	-2144(%eax), %edx
 960      FFFF
 961 0643 0FB68577 		movzbl	-3209(%ebp), %eax
 961      F3FFFF
 962 064a 8B4DAC   		movl	-84(%ebp), %ecx
 963 064d 49       		decl	%ecx
 964 064e D3E0     		sall	%cl, %eax
 965 0650 0A02     		orb	(%edx), %al
 966 0652 8803     		movb	%al, (%ebx)
 968              	LM56:
 969 0654 8D45AC   		leal	-84(%ebp), %eax
 970 0657 FF08     		decl	(%eax)
 971 0659 E94CFFFF 		jmp	L36
 971      FF
 973              	LM57:
 974              	L34:
 975 065e 8D45B4   		leal	-76(%ebp), %eax
 976 0661 FF00     		incl	(%eax)
 977 0663 E920FFFF 		jmp	L32
 977      FF
 978              	L31:
 279:../../MMI/Resource/bmp2ems.c ****                 }
GAS LISTING f:/K7_TOUR/CODE/plutommi/Customer/ResGenerator/gcctmp/cckxaaaa.s 			page 17


 280:../../MMI/Resource/bmp2ems.c ****             }
 281:../../MMI/Resource/bmp2ems.c ****         }
 282:../../MMI/Resource/bmp2ems.c ****         else if (bits_per_pixel == 2)
 980              	LM58:
 981 0668 837DA802 		cmpl	$2, -88(%ebp)
 982 066c 0F852001 		jne	L43
 982      0000
 283:../../MMI/Resource/bmp2ems.c ****         {
 284:../../MMI/Resource/bmp2ems.c ****             for (i = 0; i < PDU_length; i++)
 984              	LM59:
 985 0672 C745B400 		movl	$0, -76(%ebp)
 985      000000
 986              	L44:
 987 0679 8B45B4   		movl	-76(%ebp), %eax
 988 067c 3B459C   		cmpl	-100(%ebp), %eax
 989 067f 7C05     		jl	L47
 990 0681 E9ED0100 		jmp	L42
 990      00
 991              	L47:
 285:../../MMI/Resource/bmp2ems.c ****             {
 286:../../MMI/Resource/bmp2ems.c ****                 buffer[i] = 0x00;
 993              	LM60:
 994 0686 8D45F8   		leal	-8(%ebp), %eax
 995 0689 0345B4   		addl	-76(%ebp), %eax
 996 068c 2D600800 		subl	$2144, %eax
 996      00
 997 0691 C60000   		movb	$0, (%eax)
 287:../../MMI/Resource/bmp2ems.c ****                 for (k = 8; k; k = k - 2)
 999              	LM61:
 1000 0694 C745AC08 		movl	$8, -84(%ebp)
 1000      000000
 1001              	L48:
 1002 069b 837DAC00 		cmpl	$0, -84(%ebp)
 1003 069f 7505     		jne	L51
 1004 06a1 E9E20000 		jmp	L46
 1004      00
 1005              	L51:
 288:../../MMI/Resource/bmp2ems.c ****                 {
 289:../../MMI/Resource/bmp2ems.c ****                     data =
 1007              	LM62:
 1008 06a6 8D8578F3 		leal	-3208(%ebp), %eax
 1008      FFFF
 1009 06ac 890424   		movl	%eax, (%esp)
 1010 06af E8000000 		call	_bytestream_fgetbyte
 1010      00
 1011 06b4 0FB6D8   		movzbl	%al, %ebx
 1012 06b7 8D8578F3 		leal	-3208(%ebp), %eax
 1012      FFFF
 1013 06bd 890424   		movl	%eax, (%esp)
 1014 06c0 E8000000 		call	_bytestream_fgetbyte
 1014      00
 1015 06c5 0FB6C0   		movzbl	%al, %eax
 1016 06c8 01C3     		addl	%eax, %ebx
 1017 06ca 8D8578F3 		leal	-3208(%ebp), %eax
 1017      FFFF
 1018 06d0 890424   		movl	%eax, (%esp)
 1019 06d3 E8000000 		call	_bytestream_fgetbyte
GAS LISTING f:/K7_TOUR/CODE/plutommi/Customer/ResGenerator/gcctmp/cckxaaaa.s 			page 18


 1019      00
 1020 06d8 0FB6C0   		movzbl	%al, %eax
 1021 06db 01C3     		addl	%eax, %ebx
 1022 06dd 899D54EB 		movl	%ebx, -5292(%ebp)
 1022      FFFF
 1023 06e3 B8565555 		movl	$1431655766, %eax
 1023      55
 1024 06e8 F7AD54EB 		imull	-5292(%ebp)
 1024      FFFF
 1025 06ee 89D1     		movl	%edx, %ecx
 1026 06f0 8B8554EB 		movl	-5292(%ebp), %eax
 1026      FFFF
 1027 06f6 C1F81F   		sarl	$31, %eax
 1028 06f9 29C1     		subl	%eax, %ecx
 1029 06fb 89C8     		movl	%ecx, %eax
 1030 06fd 888596F7 		movb	%al, -2154(%ebp)
 1030      FFFF
 290:../../MMI/Resource/bmp2ems.c ****                         (bytestream_fgetbyte(&rgb_image) + bytestream_fgetbyte(&rgb_image) +
 291:../../MMI/Resource/bmp2ems.c ****                          bytestream_fgetbyte(&rgb_image)) / 3;
 292:../../MMI/Resource/bmp2ems.c ****                     if (data >= 0 && data < 64)
 1032              	LM63:
 1033 0703 80BD96F7 		cmpb	$63, -2154(%ebp)
 1033      FFFF3F
 1034 070a 7709     		ja	L52
 293:../../MMI/Resource/bmp2ems.c ****                     {
 294:../../MMI/Resource/bmp2ems.c ****                         scale_data = 0x00;
 1036              	LM64:
 1037 070c C68577F3 		movb	$0, -3209(%ebp)
 1037      FFFF00
 1038 0713 EB3D     		jmp	L53
 1039              	L52:
 295:../../MMI/Resource/bmp2ems.c ****                     }
 296:../../MMI/Resource/bmp2ems.c ****                     else if (data >= 64 && data < 128)
 1041              	LM65:
 1042 0715 80BD96F7 		cmpb	$63, -2154(%ebp)
 1042      FFFF3F
 1043 071c 7612     		jbe	L54
 1044 071e 80BD96F7 		cmpb	$0, -2154(%ebp)
 1044      FFFF00
 1045 0725 7809     		js	L54
 297:../../MMI/Resource/bmp2ems.c ****                     {
 298:../../MMI/Resource/bmp2ems.c ****                         scale_data = 0x01;
 1047              	LM66:
 1048 0727 C68577F3 		movb	$1, -3209(%ebp)
 1048      FFFF01
 1049 072e EB22     		jmp	L53
 1050              	L54:
 299:../../MMI/Resource/bmp2ems.c ****                     }
 300:../../MMI/Resource/bmp2ems.c ****                     else if (data >= 128 && data < 192)
 1052              	LM67:
 1053 0730 80BD96F7 		cmpb	$0, -2154(%ebp)
 1053      FFFF00
 1054 0737 7912     		jns	L56
 1055 0739 80BD96F7 		cmpb	$-65, -2154(%ebp)
 1055      FFFFBF
 1056 0740 7709     		ja	L56
 301:../../MMI/Resource/bmp2ems.c ****                     {
GAS LISTING f:/K7_TOUR/CODE/plutommi/Customer/ResGenerator/gcctmp/cckxaaaa.s 			page 19


 302:../../MMI/Resource/bmp2ems.c ****                         scale_data = 0x02;
 1058              	LM68:
 1059 0742 C68577F3 		movb	$2, -3209(%ebp)
 1059      FFFF02
 1060 0749 EB07     		jmp	L53
 1061              	L56:
 303:../../MMI/Resource/bmp2ems.c ****                     }
 304:../../MMI/Resource/bmp2ems.c ****                     else
 305:../../MMI/Resource/bmp2ems.c ****                     {
 306:../../MMI/Resource/bmp2ems.c ****                         scale_data = 0x03;
 1063              	LM69:
 1064 074b C68577F3 		movb	$3, -3209(%ebp)
 1064      FFFF03
 1065              	L53:
 307:../../MMI/Resource/bmp2ems.c ****                     }
 308:../../MMI/Resource/bmp2ems.c ****                     buffer[i] |= scale_data << (k - 2);
 1067              	LM70:
 1068 0752 8D45F8   		leal	-8(%ebp), %eax
 1069 0755 0345B4   		addl	-76(%ebp), %eax
 1070 0758 8D98A0F7 		leal	-2144(%eax), %ebx
 1070      FFFF
 1071 075e 8D45F8   		leal	-8(%ebp), %eax
 1072 0761 0345B4   		addl	-76(%ebp), %eax
 1073 0764 8D90A0F7 		leal	-2144(%eax), %edx
 1073      FFFF
 1074 076a 0FB68577 		movzbl	-3209(%ebp), %eax
 1074      F3FFFF
 1075 0771 8B4DAC   		movl	-84(%ebp), %ecx
 1076 0774 83E902   		subl	$2, %ecx
 1077 0777 D3E0     		sall	%cl, %eax
 1078 0779 0A02     		orb	(%edx), %al
 1079 077b 8803     		movb	%al, (%ebx)
 1081              	LM71:
 1082 077d 8D45AC   		leal	-84(%ebp), %eax
 1083 0780 832802   		subl	$2, (%eax)
 1084 0783 E913FFFF 		jmp	L48
 1084      FF
 1086              	LM72:
 1087              	L46:
 1088 0788 8D45B4   		leal	-76(%ebp), %eax
 1089 078b FF00     		incl	(%eax)
 1090 078d E9E7FEFF 		jmp	L44
 1090      FF
 1091              	L43:
 309:../../MMI/Resource/bmp2ems.c ****                 }
 310:../../MMI/Resource/bmp2ems.c ****             }
 311:../../MMI/Resource/bmp2ems.c ****         }
 312:../../MMI/Resource/bmp2ems.c ****         else if (bits_per_pixel == 6)
 1093              	LM73:
 1094 0792 837DA806 		cmpl	$6, -88(%ebp)
 1095 0796 0F85D700 		jne	L42
 1095      0000
 313:../../MMI/Resource/bmp2ems.c ****         {
 314:../../MMI/Resource/bmp2ems.c ****             for (i = 0; i < PDU_length; i++)
 1097              	LM74:
 1098 079c C745B400 		movl	$0, -76(%ebp)
 1098      000000
GAS LISTING f:/K7_TOUR/CODE/plutommi/Customer/ResGenerator/gcctmp/cckxaaaa.s 			page 20


 1099              	L60:
 1100 07a3 8B45B4   		movl	-76(%ebp), %eax
 1101 07a6 3B459C   		cmpl	-100(%ebp), %eax
 1102 07a9 7C05     		jl	L63
 1103 07ab E9C30000 		jmp	L42
 1103      00
 1104              	L63:
 315:../../MMI/Resource/bmp2ems.c ****             {
 316:../../MMI/Resource/bmp2ems.c ****                 buffer[i] = 0x00;
 1106              	LM75:
 1107 07b0 8D45F8   		leal	-8(%ebp), %eax
 1108 07b3 0345B4   		addl	-76(%ebp), %eax
 1109 07b6 2D600800 		subl	$2144, %eax
 1109      00
 1110 07bb C60000   		movb	$0, (%eax)
 317:../../MMI/Resource/bmp2ems.c ****                 for (k = 8; k; k = k - 2)
 1112              	LM76:
 1113 07be C745AC08 		movl	$8, -84(%ebp)
 1113      000000
 1114              	L64:
 1115 07c5 837DAC00 		cmpl	$0, -84(%ebp)
 1116 07c9 7505     		jne	L67
 1117 07cb E9990000 		jmp	L62
 1117      00
 1118              	L67:
 318:../../MMI/Resource/bmp2ems.c ****                 {
 319:../../MMI/Resource/bmp2ems.c ****                     data = bytestream_fgetbyte(&rgb_image);
 1120              	LM77:
 1121 07d0 8D8578F3 		leal	-3208(%ebp), %eax
 1121      FFFF
 1122 07d6 890424   		movl	%eax, (%esp)
 1123 07d9 E8000000 		call	_bytestream_fgetbyte
 1123      00
 1124 07de 888596F7 		movb	%al, -2154(%ebp)
 1124      FFFF
 320:../../MMI/Resource/bmp2ems.c ****                     if (data >= 0 && data < 64)
 1126              	LM78:
 1127 07e4 80BD96F7 		cmpb	$63, -2154(%ebp)
 1127      FFFF3F
 1128 07eb 7709     		ja	L68
 321:../../MMI/Resource/bmp2ems.c ****                     {
 322:../../MMI/Resource/bmp2ems.c ****                         scale_data = 0x00;
 1130              	LM79:
 1131 07ed C68577F3 		movb	$0, -3209(%ebp)
 1131      FFFF00
 1132 07f4 EB3D     		jmp	L69
 1133              	L68:
 323:../../MMI/Resource/bmp2ems.c ****                     }
 324:../../MMI/Resource/bmp2ems.c ****                     else if (data >= 64 && data < 128)
 1135              	LM80:
 1136 07f6 80BD96F7 		cmpb	$63, -2154(%ebp)
 1136      FFFF3F
 1137 07fd 7612     		jbe	L70
 1138 07ff 80BD96F7 		cmpb	$0, -2154(%ebp)
 1138      FFFF00
 1139 0806 7809     		js	L70
 325:../../MMI/Resource/bmp2ems.c ****                     {
GAS LISTING f:/K7_TOUR/CODE/plutommi/Customer/ResGenerator/gcctmp/cckxaaaa.s 			page 21


 326:../../MMI/Resource/bmp2ems.c ****                         scale_data = 0x01;
 1141              	LM81:
 1142 0808 C68577F3 		movb	$1, -3209(%ebp)
 1142      FFFF01
 1143 080f EB22     		jmp	L69
 1144              	L70:
 327:../../MMI/Resource/bmp2ems.c ****                     }
 328:../../MMI/Resource/bmp2ems.c ****                     else if (data >= 128 && data < 192)
 1146              	LM82:
 1147 0811 80BD96F7 		cmpb	$0, -2154(%ebp)
 1147      FFFF00
 1148 0818 7912     		jns	L72
 1149 081a 80BD96F7 		cmpb	$-65, -2154(%ebp)
 1149      FFFFBF
 1150 0821 7709     		ja	L72
 329:../../MMI/Resource/bmp2ems.c ****                     {
 330:../../MMI/Resource/bmp2ems.c ****                         scale_data = 0x02;
 1152              	LM83:
 1153 0823 C68577F3 		movb	$2, -3209(%ebp)
 1153      FFFF02
 1154 082a EB07     		jmp	L69
 1155              	L72:
 331:../../MMI/Resource/bmp2ems.c ****                     }
 332:../../MMI/Resource/bmp2ems.c ****                     else
 333:../../MMI/Resource/bmp2ems.c ****                     {
 334:../../MMI/Resource/bmp2ems.c ****                         scale_data = 0x03;
 1157              	LM84:
 1158 082c C68577F3 		movb	$3, -3209(%ebp)
 1158      FFFF03
 1159              	L69:
 335:../../MMI/Resource/bmp2ems.c ****                     }
 336:../../MMI/Resource/bmp2ems.c ****                     buffer[i] |= scale_data << (k - 2);
 1161              	LM85:
 1162 0833 8D45F8   		leal	-8(%ebp), %eax
 1163 0836 0345B4   		addl	-76(%ebp), %eax
 1164 0839 8D98A0F7 		leal	-2144(%eax), %ebx
 1164      FFFF
 1165 083f 8D45F8   		leal	-8(%ebp), %eax
 1166 0842 0345B4   		addl	-76(%ebp), %eax
 1167 0845 8D90A0F7 		leal	-2144(%eax), %edx
 1167      FFFF
 1168 084b 0FB68577 		movzbl	-3209(%ebp), %eax
 1168      F3FFFF
 1169 0852 8B4DAC   		movl	-84(%ebp), %ecx
 1170 0855 83E902   		subl	$2, %ecx
 1171 0858 D3E0     		sall	%cl, %eax
 1172 085a 0A02     		orb	(%edx), %al
 1173 085c 8803     		movb	%al, (%ebx)
 1175              	LM86:
 1176 085e 8D45AC   		leal	-84(%ebp), %eax
 1177 0861 832802   		subl	$2, (%eax)
 1178 0864 E95CFFFF 		jmp	L64
 1178      FF
 1180              	LM87:
 1181              	L62:
 1182 0869 8D45B4   		leal	-76(%ebp), %eax
 1183 086c FF00     		incl	(%eax)
GAS LISTING f:/K7_TOUR/CODE/plutommi/Customer/ResGenerator/gcctmp/cckxaaaa.s 			page 22


 1184 086e E930FFFF 		jmp	L60
 1184      FF
 1185              	L42:
 337:../../MMI/Resource/bmp2ems.c ****                 }
 338:../../MMI/Resource/bmp2ems.c ****             }
 339:../../MMI/Resource/bmp2ems.c ****         }
 340:../../MMI/Resource/bmp2ems.c ****     #ifdef __MMI_RESOURCE_ENFB_SUPPORT__
 341:../../MMI/Resource/bmp2ems.c ****         enfb_ret = Image_Test(filename, &enfb_width, &enfb_height, processData->disable_enfb);
 342:../../MMI/Resource/bmp2ems.c ****         if (enfb_ret != ENFB_IMAGE_NONE)
 343:../../MMI/Resource/bmp2ems.c ****         {
 344:../../MMI/Resource/bmp2ems.c ****             processData->enfb_flag = 1;
 345:../../MMI/Resource/bmp2ems.c ****             if (enfb_ret == ENFB_IMAGE_ASSOCIATE)
 346:../../MMI/Resource/bmp2ems.c ****             {
 347:../../MMI/Resource/bmp2ems.c ****                 ENFBAssociatedIDAdded = MMI_TRUE;
 348:../../MMI/Resource/bmp2ems.c ****             }
 349:../../MMI/Resource/bmp2ems.c ****         }
 350:../../MMI/Resource/bmp2ems.c ****     #endif
 351:../../MMI/Resource/bmp2ems.c ****         if (toolFlag == 1)  /* Write to file in binary format */
 1187              	LM88:
 1188 0873 833D0000 		cmpl	$1, _toolFlag
 1188      000001
 1189 087a 0F85AE00 		jne	L74
 1189      0000
 352:../../MMI/Resource/bmp2ems.c ****         {
 353:../../MMI/Resource/bmp2ems.c ****             fprintf(
 1191              	LM89:
 1192 0880 8B459C   		movl	-100(%ebp), %eax
 1193 0883 C1F808   		sarl	$8, %eax
 1194 0886 0FB6C0   		movzbl	%al, %eax
 1195 0889 89442428 		movl	%eax, 40(%esp)
 1196 088d 0FB6459C 		movzbl	-100(%ebp), %eax
 1197 0891 89442424 		movl	%eax, 36(%esp)
 1198 0895 8B45A0   		movl	-96(%ebp), %eax
 1199 0898 C1F808   		sarl	$8, %eax
 1200 089b 0FB6C0   		movzbl	%al, %eax
 1201 089e 89442420 		movl	%eax, 32(%esp)
 1202 08a2 0FB645A0 		movzbl	-96(%ebp), %eax
 1203 08a6 8944241C 		movl	%eax, 28(%esp)
 1204 08aa 8B45A4   		movl	-92(%ebp), %eax
 1205 08ad C1F808   		sarl	$8, %eax
 1206 08b0 0FB6C0   		movzbl	%al, %eax
 1207 08b3 89442418 		movl	%eax, 24(%esp)
 1208 08b7 0FB645A4 		movzbl	-92(%ebp), %eax
 1209 08bb 89442414 		movl	%eax, 20(%esp)
 1210 08bf C7442410 		movl	$0, 16(%esp)
 1210      00000000 
 1211 08c7 0FB645A8 		movzbl	-88(%ebp), %eax
 1212 08cb 8944240C 		movl	%eax, 12(%esp)
 1213 08cf C7442408 		movl	$1, 8(%esp)
 1213      01000000 
 1214 08d7 C7442404 		movl	$LC29, 4(%esp)
 1214      A6010000 
 1215 08df A1000000 		movl	_dest_file, %eax
 1215      00
 1216 08e4 890424   		movl	%eax, (%esp)
 1217 08e7 E8000000 		call	_fprintf
 1217      00
GAS LISTING f:/K7_TOUR/CODE/plutommi/Customer/ResGenerator/gcctmp/cckxaaaa.s 			page 23


 354:../../MMI/Resource/bmp2ems.c ****                 dest_file,
 355:../../MMI/Resource/bmp2ems.c ****                 "%c%c%c%c%c%c%c%c%c",
 356:../../MMI/Resource/bmp2ems.c ****                 (U8) 1,
 357:../../MMI/Resource/bmp2ems.c ****                 (U8) bits_per_pixel,
 358:../../MMI/Resource/bmp2ems.c ****                 (U8) 0,
 359:../../MMI/Resource/bmp2ems.c ****                 (U8) (width & 0xff),
 360:../../MMI/Resource/bmp2ems.c ****                 (U8) ((width >> 8) & 0xff),
 361:../../MMI/Resource/bmp2ems.c ****                 (U8) (height & 0xff),
 362:../../MMI/Resource/bmp2ems.c ****                 (U8) ((height >> 8) & 0xff),
 363:../../MMI/Resource/bmp2ems.c ****                 (U8) ((PDU_length) & 0xff),
 364:../../MMI/Resource/bmp2ems.c ****                 (U8) ((PDU_length) >> 8) & 0xff);
 365:../../MMI/Resource/bmp2ems.c ****             for (i = 0; i < PDU_length; i++)
 1219              	LM90:
 1220 08ec C745B400 		movl	$0, -76(%ebp)
 1220      000000
 1221              	L75:
 1222 08f3 8B45B4   		movl	-76(%ebp), %eax
 1223 08f6 3B459C   		cmpl	-100(%ebp), %eax
 1224 08f9 7C05     		jl	L78
 1225 08fb E9A80400 		jmp	L85
 1225      00
 1226              	L78:
 366:../../MMI/Resource/bmp2ems.c ****             {
 367:../../MMI/Resource/bmp2ems.c ****                 fprintf(dest_file, "%c", buffer[i]);
 1228              	LM91:
 1229 0900 8D45F8   		leal	-8(%ebp), %eax
 1230 0903 0345B4   		addl	-76(%ebp), %eax
 1231 0906 2D600800 		subl	$2144, %eax
 1231      00
 1232 090b 0FB600   		movzbl	(%eax), %eax
 1233 090e 89442408 		movl	%eax, 8(%esp)
 1234 0912 C7442404 		movl	$LC30, 4(%esp)
 1234      B9010000 
 1235 091a A1000000 		movl	_dest_file, %eax
 1235      00
 1236 091f 890424   		movl	%eax, (%esp)
 1237 0922 E8000000 		call	_fprintf
 1237      00
 1239              	LM92:
 1240 0927 8D45B4   		leal	-76(%ebp), %eax
 1241 092a FF00     		incl	(%eax)
 1242 092c EBC5     		jmp	L75
 1243              	L74:
 368:../../MMI/Resource/bmp2ems.c ****             }
 369:../../MMI/Resource/bmp2ems.c ****         }
 370:../../MMI/Resource/bmp2ems.c ****     #ifdef __MMI_RESOURCE_ENFB_SUPPORT__
 371:../../MMI/Resource/bmp2ems.c ****         else if (processData->enfb_flag == 1) /* write ENFB header to CustImgDataxxx.h and image he
 372:../../MMI/Resource/bmp2ems.c ****         {
 373:../../MMI/Resource/bmp2ems.c ****             enfb_size = 9 + PDU_length;
 374:../../MMI/Resource/bmp2ems.c ****             
 375:../../MMI/Resource/bmp2ems.c ****             /* write ENFB header to CustImgDataxxx.h */
 376:../../MMI/Resource/bmp2ems.c ****             ImageOutStreamPrintf(outstream,
 377:../../MMI/Resource/bmp2ems.c ****                 "\n{\t0x%02X, 0x%02X, 0x%02X, 0x%02X, 0x%02X, 0x%02X, 0x%02X, 0x%02X, 0x%02X, 0x%02
 378:../../MMI/Resource/bmp2ems.c ****                 (U8) 255,//type
 379:../../MMI/Resource/bmp2ems.c ****                 (U8) ENFBAssociatedIDAdded,//associated id
 380:../../MMI/Resource/bmp2ems.c ****                 (U8) 0,//reserved
 381:../../MMI/Resource/bmp2ems.c ****                 (U8) 0,//reserved
GAS LISTING f:/K7_TOUR/CODE/plutommi/Customer/ResGenerator/gcctmp/cckxaaaa.s 			page 24


 382:../../MMI/Resource/bmp2ems.c ****                 (U8) (enfb_offset & 0xff),
 383:../../MMI/Resource/bmp2ems.c ****                 (U8) ((enfb_offset >> 8) & 0xff),
 384:../../MMI/Resource/bmp2ems.c ****                 (U8) ((enfb_offset >> 16) & 0xff),
 385:../../MMI/Resource/bmp2ems.c ****                 (U8) ((enfb_offset >> 24) & 0xff),
 386:../../MMI/Resource/bmp2ems.c ****                 (U8) (enfb_size & 0xff),
 387:../../MMI/Resource/bmp2ems.c ****                 (U8) ((enfb_size >> 8) & 0xff),
 388:../../MMI/Resource/bmp2ems.c ****                 (U8) ((enfb_size >> 16) & 0xff),
 389:../../MMI/Resource/bmp2ems.c ****                 (U8) ((enfb_size >> 24) & 0xff));
 390:../../MMI/Resource/bmp2ems.c ****             
 391:../../MMI/Resource/bmp2ems.c ****             /* image header/data to ENFB image data file */
 392:../../MMI/Resource/bmp2ems.c ****             fprintf(
 393:../../MMI/Resource/bmp2ems.c ****                 enfb_img_data_file,
 394:../../MMI/Resource/bmp2ems.c ****                 "%c%c%c%c%c%c%c%c%c",
 395:../../MMI/Resource/bmp2ems.c ****                 (U8) 1,
 396:../../MMI/Resource/bmp2ems.c ****                 (U8) bits_per_pixel,
 397:../../MMI/Resource/bmp2ems.c ****                 (U8) 0,
 398:../../MMI/Resource/bmp2ems.c ****                 (U8) (width & 0xff),
 399:../../MMI/Resource/bmp2ems.c ****                 (U8) ((width >> 8) & 0xff),
 400:../../MMI/Resource/bmp2ems.c ****                 (U8) (height & 0xff),
 401:../../MMI/Resource/bmp2ems.c ****                 (U8) ((height >> 8) & 0xff),
 402:../../MMI/Resource/bmp2ems.c ****                 (U8) ((PDU_length) & 0xff),
 403:../../MMI/Resource/bmp2ems.c ****                 (U8) ((PDU_length) >> 8) & 0xff);
 404:../../MMI/Resource/bmp2ems.c ****             for (i = 0; i < PDU_length; i++)
 405:../../MMI/Resource/bmp2ems.c ****             {
 406:../../MMI/Resource/bmp2ems.c ****                 fprintf(enfb_img_data_file, "%c", buffer[i]);
 407:../../MMI/Resource/bmp2ems.c ****             }
 408:../../MMI/Resource/bmp2ems.c ****             
 409:../../MMI/Resource/bmp2ems.c ****             enfb_offset += enfb_size;
 410:../../MMI/Resource/bmp2ems.c ****             processData->enfb_flag = 0;
 411:../../MMI/Resource/bmp2ems.c ****         }
 412:../../MMI/Resource/bmp2ems.c ****     #endif
 413:../../MMI/Resource/bmp2ems.c ****         else    /* Write to .c .h file */
 414:../../MMI/Resource/bmp2ems.c ****         {
 415:../../MMI/Resource/bmp2ems.c ****             ImageOutStreamPrintf(outstream,
 1245              	LM93:
 1246 092e 8B459C   		movl	-100(%ebp), %eax
 1247 0931 C1F808   		sarl	$8, %eax
 1248 0934 0FB6C0   		movzbl	%al, %eax
 1249 0937 89442428 		movl	%eax, 40(%esp)
 1250 093b 0FB6459C 		movzbl	-100(%ebp), %eax
 1251 093f 89442424 		movl	%eax, 36(%esp)
 1252 0943 8B45A0   		movl	-96(%ebp), %eax
 1253 0946 C1F808   		sarl	$8, %eax
 1254 0949 0FB6C0   		movzbl	%al, %eax
 1255 094c 89442420 		movl	%eax, 32(%esp)
 1256 0950 0FB645A0 		movzbl	-96(%ebp), %eax
 1257 0954 8944241C 		movl	%eax, 28(%esp)
 1258 0958 8B45A4   		movl	-92(%ebp), %eax
 1259 095b C1F808   		sarl	$8, %eax
 1260 095e 0FB6C0   		movzbl	%al, %eax
 1261 0961 89442418 		movl	%eax, 24(%esp)
 1262 0965 0FB645A4 		movzbl	-92(%ebp), %eax
 1263 0969 89442414 		movl	%eax, 20(%esp)
 1264 096d C7442410 		movl	$0, 16(%esp)
 1264      00000000 
 1265 0975 0FB645A8 		movzbl	-88(%ebp), %eax
 1266 0979 8944240C 		movl	%eax, 12(%esp)
GAS LISTING f:/K7_TOUR/CODE/plutommi/Customer/ResGenerator/gcctmp/cckxaaaa.s 			page 25


 1267 097d C7442408 		movl	$1, 8(%esp)
 1267      01000000 
 1268 0985 C7442404 		movl	$LC31, 4(%esp)
 1268      C0010000 
 1269 098d 8B4510   		movl	16(%ebp), %eax
 1270 0990 890424   		movl	%eax, (%esp)
 1271 0993 E8000000 		call	_ImageOutStreamPrintf
 1271      00
 416:../../MMI/Resource/bmp2ems.c ****                 "\n{\t0x%02X, 0x%02X, 0x%02X, 0x%02X, 0x%02X, 0x%02X, 0x%02X, 0x%02X, 0x%02X,",
 417:../../MMI/Resource/bmp2ems.c ****                 (U8) 1,
 418:../../MMI/Resource/bmp2ems.c ****                 (U8) bits_per_pixel,
 419:../../MMI/Resource/bmp2ems.c ****                 (U8) 0,
 420:../../MMI/Resource/bmp2ems.c ****                 (U8) (width & 0xff),
 421:../../MMI/Resource/bmp2ems.c ****                 (U8) ((width >> 8) & 0xff),
 422:../../MMI/Resource/bmp2ems.c ****                 (U8) (height & 0xff),
 423:../../MMI/Resource/bmp2ems.c ****                 (U8) ((height >> 8) & 0xff),
 424:../../MMI/Resource/bmp2ems.c ****                 (U8) ((PDU_length) & 0xff),
 425:../../MMI/Resource/bmp2ems.c ****                 (U8) ((PDU_length) >> 8) & 0xff);
 426:../../MMI/Resource/bmp2ems.c ****             for (i = 0; i < PDU_length; i++)
 1273              	LM94:
 1274 0998 C745B400 		movl	$0, -76(%ebp)
 1274      000000
 1275              	L80:
 1276 099f 8B45B4   		movl	-76(%ebp), %eax
 1277 09a2 3B459C   		cmpl	-100(%ebp), %eax
 1278 09a5 7C02     		jl	L83
 1279 09a7 EB49     		jmp	L81
 1280              	L83:
 427:../../MMI/Resource/bmp2ems.c ****             {
 428:../../MMI/Resource/bmp2ems.c ****                 if ((i % 16) == 0)
 1282              	LM95:
 1283 09a9 8B45B4   		movl	-76(%ebp), %eax
 1284 09ac 83E00F   		andl	$15, %eax
 1285 09af 85C0     		testl	%eax, %eax
 1286 09b1 7513     		jne	L84
 429:../../MMI/Resource/bmp2ems.c ****                 {
 430:../../MMI/Resource/bmp2ems.c ****                     ImageOutStreamPrintf(outstream, "\n\t");
 1288              	LM96:
 1289 09b3 C7442404 		movl	$LC32, 4(%esp)
 1289      0B020000 
 1290 09bb 8B4510   		movl	16(%ebp), %eax
 1291 09be 890424   		movl	%eax, (%esp)
 1292 09c1 E8000000 		call	_ImageOutStreamPrintf
 1292      00
 1293              	L84:
 431:../../MMI/Resource/bmp2ems.c ****                 }
 432:../../MMI/Resource/bmp2ems.c ****                 ImageOutStreamPrintf(outstream, "0x%02X, ", buffer[i]);
 1295              	LM97:
 1296 09c6 8D45F8   		leal	-8(%ebp), %eax
 1297 09c9 0345B4   		addl	-76(%ebp), %eax
 1298 09cc 2D600800 		subl	$2144, %eax
 1298      00
 1299 09d1 0FB600   		movzbl	(%eax), %eax
 1300 09d4 89442408 		movl	%eax, 8(%esp)
 1301 09d8 C7442404 		movl	$LC33, 4(%esp)
 1301      0E020000 
 1302 09e0 8B4510   		movl	16(%ebp), %eax
GAS LISTING f:/K7_TOUR/CODE/plutommi/Customer/ResGenerator/gcctmp/cckxaaaa.s 			page 26


 1303 09e3 890424   		movl	%eax, (%esp)
 1304 09e6 E8000000 		call	_ImageOutStreamPrintf
 1304      00
 1306              	LM98:
 1307 09eb 8D45B4   		leal	-76(%ebp), %eax
 1308 09ee FF00     		incl	(%eax)
 1309 09f0 EBAD     		jmp	L80
 1310              	L81:
 433:../../MMI/Resource/bmp2ems.c ****             }
 434:../../MMI/Resource/bmp2ems.c ****             ImageOutStreamPrintf(outstream, "\n};\n");
 1312              	LM99:
 1313 09f2 C7442404 		movl	$LC34, 4(%esp)
 1313      17020000 
 1314 09fa 8B4510   		movl	16(%ebp), %eax
 1315 09fd 890424   		movl	%eax, (%esp)
 1316 0a00 E8000000 		call	_ImageOutStreamPrintf
 1316      00
 1317 0a05 E99E0300 		jmp	L85
 1317      00
 1318              	L30:
 435:../../MMI/Resource/bmp2ems.c ****         }
 436:../../MMI/Resource/bmp2ems.c ****     }
 437:../../MMI/Resource/bmp2ems.c ****     else
 438:../../MMI/Resource/bmp2ems.c ****     {
 439:../../MMI/Resource/bmp2ems.c ****         if (verbose_mode)
 1320              	LM100:
 1321 0a0a 803D0100 		cmpb	$0, _verbose_mode
 1321      000000
 1322 0a11 7421     		je	L86
 440:../../MMI/Resource/bmp2ems.c ****         {
 441:../../MMI/Resource/bmp2ems.c ****             printf("\nWidth=%d, Height=%d, Size=%d bytes", width, height, PDU_length);
 1324              	LM101:
 1325 0a13 8B459C   		movl	-100(%ebp), %eax
 1326 0a16 8944240C 		movl	%eax, 12(%esp)
 1327 0a1a 8B45A0   		movl	-96(%ebp), %eax
 1328 0a1d 89442408 		movl	%eax, 8(%esp)
 1329 0a21 8B45A4   		movl	-92(%ebp), %eax
 1330 0a24 89442404 		movl	%eax, 4(%esp)
 1331 0a28 C7042420 		movl	$LC35, (%esp)
 1331      020000
 1332 0a2f E8000000 		call	_printf
 1332      00
 1333              	L86:
 442:../../MMI/Resource/bmp2ems.c ****         }
 443:../../MMI/Resource/bmp2ems.c ****         if (bits_per_pixel == 1)
 1335              	LM102:
 1336 0a34 837DA801 		cmpl	$1, -88(%ebp)
 1337 0a38 0F85E700 		jne	L87
 1337      0000
 444:../../MMI/Resource/bmp2ems.c ****         {
 445:../../MMI/Resource/bmp2ems.c ****             for (i = 0; i < PDU_length; i++)
 1339              	LM103:
 1340 0a3e C745B400 		movl	$0, -76(%ebp)
 1340      000000
 1341              	L88:
 1342 0a45 8B45B4   		movl	-76(%ebp), %eax
 1343 0a48 3B459C   		cmpl	-100(%ebp), %eax
GAS LISTING f:/K7_TOUR/CODE/plutommi/Customer/ResGenerator/gcctmp/cckxaaaa.s 			page 27


 1344 0a4b 7C05     		jl	L91
 1345 0a4d E9DE0200 		jmp	L98
 1345      00
 1346              	L91:
 446:../../MMI/Resource/bmp2ems.c ****             {
 447:../../MMI/Resource/bmp2ems.c ****                 buffer[i] = 0x00;
 1348              	LM104:
 1349 0a52 8D45F8   		leal	-8(%ebp), %eax
 1350 0a55 0345B4   		addl	-76(%ebp), %eax
 1351 0a58 2D600800 		subl	$2144, %eax
 1351      00
 1352 0a5d C60000   		movb	$0, (%eax)
 448:../../MMI/Resource/bmp2ems.c ****                 for (k = 8; k; k--)
 1354              	LM105:
 1355 0a60 C745AC08 		movl	$8, -84(%ebp)
 1355      000000
 1356              	L92:
 1357 0a67 837DAC00 		cmpl	$0, -84(%ebp)
 1358 0a6b 7505     		jne	L95
 1359 0a6d E9A90000 		jmp	L90
 1359      00
 1360              	L95:
 449:../../MMI/Resource/bmp2ems.c ****                 {
 450:../../MMI/Resource/bmp2ems.c ****                     data =
 1362              	LM106:
 1363 0a72 8D8578F3 		leal	-3208(%ebp), %eax
 1363      FFFF
 1364 0a78 890424   		movl	%eax, (%esp)
 1365 0a7b E8000000 		call	_bytestream_fgetbyte
 1365      00
 1366 0a80 0FB6D8   		movzbl	%al, %ebx
 1367 0a83 8D8578F3 		leal	-3208(%ebp), %eax
 1367      FFFF
 1368 0a89 890424   		movl	%eax, (%esp)
 1369 0a8c E8000000 		call	_bytestream_fgetbyte
 1369      00
 1370 0a91 0FB6C0   		movzbl	%al, %eax
 1371 0a94 01C3     		addl	%eax, %ebx
 1372 0a96 8D8578F3 		leal	-3208(%ebp), %eax
 1372      FFFF
 1373 0a9c 890424   		movl	%eax, (%esp)
 1374 0a9f E8000000 		call	_bytestream_fgetbyte
 1374      00
 1375 0aa4 0FB6C0   		movzbl	%al, %eax
 1376 0aa7 01C3     		addl	%eax, %ebx
 1377 0aa9 899D54EB 		movl	%ebx, -5292(%ebp)
 1377      FFFF
 1378 0aaf B8565555 		movl	$1431655766, %eax
 1378      55
 1379 0ab4 F7AD54EB 		imull	-5292(%ebp)
 1379      FFFF
 1380 0aba 89D1     		movl	%edx, %ecx
 1381 0abc 8B8554EB 		movl	-5292(%ebp), %eax
 1381      FFFF
 1382 0ac2 C1F81F   		sarl	$31, %eax
 1383 0ac5 29C1     		subl	%eax, %ecx
 1384 0ac7 89C8     		movl	%ecx, %eax
GAS LISTING f:/K7_TOUR/CODE/plutommi/Customer/ResGenerator/gcctmp/cckxaaaa.s 			page 28


 1385 0ac9 888596F7 		movb	%al, -2154(%ebp)
 1385      FFFF
 451:../../MMI/Resource/bmp2ems.c ****                         (bytestream_fgetbyte(&rgb_image) + bytestream_fgetbyte(&rgb_image) +
 452:../../MMI/Resource/bmp2ems.c ****                          bytestream_fgetbyte(&rgb_image)) / 3;
 453:../../MMI/Resource/bmp2ems.c ****                     if (data >= 0 && data < 128)
 1387              	LM107:
 1388 0acf 80BD96F7 		cmpb	$0, -2154(%ebp)
 1388      FFFF00
 1389 0ad6 7809     		js	L96
 454:../../MMI/Resource/bmp2ems.c ****                     {
 455:../../MMI/Resource/bmp2ems.c ****                         scale_data = 0x01;
 1391              	LM108:
 1392 0ad8 C68577F3 		movb	$1, -3209(%ebp)
 1392      FFFF01
 1393 0adf EB07     		jmp	L97
 1394              	L96:
 456:../../MMI/Resource/bmp2ems.c ****                     }
 457:../../MMI/Resource/bmp2ems.c ****                     else
 458:../../MMI/Resource/bmp2ems.c ****                     {
 459:../../MMI/Resource/bmp2ems.c ****                         scale_data = 0x00;
 1396              	LM109:
 1397 0ae1 C68577F3 		movb	$0, -3209(%ebp)
 1397      FFFF00
 1398              	L97:
 460:../../MMI/Resource/bmp2ems.c ****                     }
 461:../../MMI/Resource/bmp2ems.c ****                     buffer[i] |= scale_data << (k - 1);
 1400              	LM110:
 1401 0ae8 8D45F8   		leal	-8(%ebp), %eax
 1402 0aeb 0345B4   		addl	-76(%ebp), %eax
 1403 0aee 8D98A0F7 		leal	-2144(%eax), %ebx
 1403      FFFF
 1404 0af4 8D45F8   		leal	-8(%ebp), %eax
 1405 0af7 0345B4   		addl	-76(%ebp), %eax
 1406 0afa 8D90A0F7 		leal	-2144(%eax), %edx
 1406      FFFF
 1407 0b00 0FB68577 		movzbl	-3209(%ebp), %eax
 1407      F3FFFF
 1408 0b07 8B4DAC   		movl	-84(%ebp), %ecx
 1409 0b0a 49       		decl	%ecx
 1410 0b0b D3E0     		sall	%cl, %eax
 1411 0b0d 0A02     		orb	(%edx), %al
 1412 0b0f 8803     		movb	%al, (%ebx)
 1414              	LM111:
 1415 0b11 8D45AC   		leal	-84(%ebp), %eax
 1416 0b14 FF08     		decl	(%eax)
 1417 0b16 E94CFFFF 		jmp	L92
 1417      FF
 1419              	LM112:
 1420              	L90:
 1421 0b1b 8D45B4   		leal	-76(%ebp), %eax
 1422 0b1e FF00     		incl	(%eax)
 1423 0b20 E920FFFF 		jmp	L88
 1423      FF
 1424              	L87:
 462:../../MMI/Resource/bmp2ems.c ****                 }
 463:../../MMI/Resource/bmp2ems.c ****             }
 464:../../MMI/Resource/bmp2ems.c ****         }
GAS LISTING f:/K7_TOUR/CODE/plutommi/Customer/ResGenerator/gcctmp/cckxaaaa.s 			page 29


 465:../../MMI/Resource/bmp2ems.c ****         else if (bits_per_pixel == 2)
 1426              	LM113:
 1427 0b25 837DA802 		cmpl	$2, -88(%ebp)
 1428 0b29 0F852001 		jne	L99
 1428      0000
 466:../../MMI/Resource/bmp2ems.c ****         {
 467:../../MMI/Resource/bmp2ems.c ****             for (i = 0; i < PDU_length; i++)
 1430              	LM114:
 1431 0b2f C745B400 		movl	$0, -76(%ebp)
 1431      000000
 1432              	L100:
 1433 0b36 8B45B4   		movl	-76(%ebp), %eax
 1434 0b39 3B459C   		cmpl	-100(%ebp), %eax
 1435 0b3c 7C05     		jl	L103
 1436 0b3e E9ED0100 		jmp	L98
 1436      00
 1437              	L103:
 468:../../MMI/Resource/bmp2ems.c ****             {
 469:../../MMI/Resource/bmp2ems.c ****                 buffer[i] = 0x00;
 1439              	LM115:
 1440 0b43 8D45F8   		leal	-8(%ebp), %eax
 1441 0b46 0345B4   		addl	-76(%ebp), %eax
 1442 0b49 2D600800 		subl	$2144, %eax
 1442      00
 1443 0b4e C60000   		movb	$0, (%eax)
 470:../../MMI/Resource/bmp2ems.c ****                 for (k = 8; k; k = k - 2)
 1445              	LM116:
 1446 0b51 C745AC08 		movl	$8, -84(%ebp)
 1446      000000
 1447              	L104:
 1448 0b58 837DAC00 		cmpl	$0, -84(%ebp)
 1449 0b5c 7505     		jne	L107
 1450 0b5e E9E20000 		jmp	L102
 1450      00
 1451              	L107:
 471:../../MMI/Resource/bmp2ems.c ****                 {
 472:../../MMI/Resource/bmp2ems.c ****                     data =
 1453              	LM117:
 1454 0b63 8D8578F3 		leal	-3208(%ebp), %eax
 1454      FFFF
 1455 0b69 890424   		movl	%eax, (%esp)
 1456 0b6c E8000000 		call	_bytestream_fgetbyte
 1456      00
 1457 0b71 0FB6D8   		movzbl	%al, %ebx
 1458 0b74 8D8578F3 		leal	-3208(%ebp), %eax
 1458      FFFF
 1459 0b7a 890424   		movl	%eax, (%esp)
 1460 0b7d E8000000 		call	_bytestream_fgetbyte
 1460      00
 1461 0b82 0FB6C0   		movzbl	%al, %eax
 1462 0b85 01C3     		addl	%eax, %ebx
 1463 0b87 8D8578F3 		leal	-3208(%ebp), %eax
 1463      FFFF
 1464 0b8d 890424   		movl	%eax, (%esp)
 1465 0b90 E8000000 		call	_bytestream_fgetbyte
 1465      00
 1466 0b95 0FB6C0   		movzbl	%al, %eax
GAS LISTING f:/K7_TOUR/CODE/plutommi/Customer/ResGenerator/gcctmp/cckxaaaa.s 			page 30


 1467 0b98 01C3     		addl	%eax, %ebx
 1468 0b9a 899D54EB 		movl	%ebx, -5292(%ebp)
 1468      FFFF
 1469 0ba0 B8565555 		movl	$1431655766, %eax
 1469      55
 1470 0ba5 F7AD54EB 		imull	-5292(%ebp)
 1470      FFFF
 1471 0bab 89D1     		movl	%edx, %ecx
 1472 0bad 8B8554EB 		movl	-5292(%ebp), %eax
 1472      FFFF
 1473 0bb3 C1F81F   		sarl	$31, %eax
 1474 0bb6 29C1     		subl	%eax, %ecx
 1475 0bb8 89C8     		movl	%ecx, %eax
 1476 0bba 888596F7 		movb	%al, -2154(%ebp)
 1476      FFFF
 473:../../MMI/Resource/bmp2ems.c ****                         (bytestream_fgetbyte(&rgb_image) + bytestream_fgetbyte(&rgb_image) +
 474:../../MMI/Resource/bmp2ems.c ****                          bytestream_fgetbyte(&rgb_image)) / 3;
 475:../../MMI/Resource/bmp2ems.c ****                     if (data >= 0 && data < 64)
 1478              	LM118:
 1479 0bc0 80BD96F7 		cmpb	$63, -2154(%ebp)
 1479      FFFF3F
 1480 0bc7 7709     		ja	L108
 476:../../MMI/Resource/bmp2ems.c ****                     {
 477:../../MMI/Resource/bmp2ems.c ****                         scale_data = 0x00;
 1482              	LM119:
 1483 0bc9 C68577F3 		movb	$0, -3209(%ebp)
 1483      FFFF00
 1484 0bd0 EB3D     		jmp	L109
 1485              	L108:
 478:../../MMI/Resource/bmp2ems.c ****                     }
 479:../../MMI/Resource/bmp2ems.c ****                     else if (data >= 64 && data < 128)
 1487              	LM120:
 1488 0bd2 80BD96F7 		cmpb	$63, -2154(%ebp)
 1488      FFFF3F
 1489 0bd9 7612     		jbe	L110
 1490 0bdb 80BD96F7 		cmpb	$0, -2154(%ebp)
 1490      FFFF00
 1491 0be2 7809     		js	L110
 480:../../MMI/Resource/bmp2ems.c ****                     {
 481:../../MMI/Resource/bmp2ems.c ****                         scale_data = 0x01;
 1493              	LM121:
 1494 0be4 C68577F3 		movb	$1, -3209(%ebp)
 1494      FFFF01
 1495 0beb EB22     		jmp	L109
 1496              	L110:
 482:../../MMI/Resource/bmp2ems.c ****                     }
 483:../../MMI/Resource/bmp2ems.c ****                     else if (data >= 128 && data < 192)
 1498              	LM122:
 1499 0bed 80BD96F7 		cmpb	$0, -2154(%ebp)
 1499      FFFF00
 1500 0bf4 7912     		jns	L112
 1501 0bf6 80BD96F7 		cmpb	$-65, -2154(%ebp)
 1501      FFFFBF
 1502 0bfd 7709     		ja	L112
 484:../../MMI/Resource/bmp2ems.c ****                     {
 485:../../MMI/Resource/bmp2ems.c ****                         scale_data = 0x02;
 1504              	LM123:
GAS LISTING f:/K7_TOUR/CODE/plutommi/Customer/ResGenerator/gcctmp/cckxaaaa.s 			page 31


 1505 0bff C68577F3 		movb	$2, -3209(%ebp)
 1505      FFFF02
 1506 0c06 EB07     		jmp	L109
 1507              	L112:
 486:../../MMI/Resource/bmp2ems.c ****                     }
 487:../../MMI/Resource/bmp2ems.c ****                     else
 488:../../MMI/Resource/bmp2ems.c ****                     {
 489:../../MMI/Resource/bmp2ems.c ****                         scale_data = 0x03;
 1509              	LM124:
 1510 0c08 C68577F3 		movb	$3, -3209(%ebp)
 1510      FFFF03
 1511              	L109:
 490:../../MMI/Resource/bmp2ems.c ****                     }
 491:../../MMI/Resource/bmp2ems.c ****                     buffer[i] |= scale_data << (k - 2);
 1513              	LM125:
 1514 0c0f 8D45F8   		leal	-8(%ebp), %eax
 1515 0c12 0345B4   		addl	-76(%ebp), %eax
 1516 0c15 8D98A0F7 		leal	-2144(%eax), %ebx
 1516      FFFF
 1517 0c1b 8D45F8   		leal	-8(%ebp), %eax
 1518 0c1e 0345B4   		addl	-76(%ebp), %eax
 1519 0c21 8D90A0F7 		leal	-2144(%eax), %edx
 1519      FFFF
 1520 0c27 0FB68577 		movzbl	-3209(%ebp), %eax
 1520      F3FFFF
 1521 0c2e 8B4DAC   		movl	-84(%ebp), %ecx
 1522 0c31 83E902   		subl	$2, %ecx
 1523 0c34 D3E0     		sall	%cl, %eax
 1524 0c36 0A02     		orb	(%edx), %al
 1525 0c38 8803     		movb	%al, (%ebx)
 1527              	LM126:
 1528 0c3a 8D45AC   		leal	-84(%ebp), %eax
 1529 0c3d 832802   		subl	$2, (%eax)
 1530 0c40 E913FFFF 		jmp	L104
 1530      FF
 1532              	LM127:
 1533              	L102:
 1534 0c45 8D45B4   		leal	-76(%ebp), %eax
 1535 0c48 FF00     		incl	(%eax)
 1536 0c4a E9E7FEFF 		jmp	L100
 1536      FF
 1537              	L99:
 492:../../MMI/Resource/bmp2ems.c ****                 }
 493:../../MMI/Resource/bmp2ems.c ****             }
 494:../../MMI/Resource/bmp2ems.c ****         }
 495:../../MMI/Resource/bmp2ems.c ****         else if (bits_per_pixel == 6)
 1539              	LM128:
 1540 0c4f 837DA806 		cmpl	$6, -88(%ebp)
 1541 0c53 0F85D700 		jne	L98
 1541      0000
 496:../../MMI/Resource/bmp2ems.c ****         {
 497:../../MMI/Resource/bmp2ems.c ****             for (i = 0; i < PDU_length; i++)
 1543              	LM129:
 1544 0c59 C745B400 		movl	$0, -76(%ebp)
 1544      000000
 1545              	L116:
 1546 0c60 8B45B4   		movl	-76(%ebp), %eax
GAS LISTING f:/K7_TOUR/CODE/plutommi/Customer/ResGenerator/gcctmp/cckxaaaa.s 			page 32


 1547 0c63 3B459C   		cmpl	-100(%ebp), %eax
 1548 0c66 7C05     		jl	L119
 1549 0c68 E9C30000 		jmp	L98
 1549      00
 1550              	L119:
 498:../../MMI/Resource/bmp2ems.c ****             {
 499:../../MMI/Resource/bmp2ems.c ****                 buffer[i] = 0x00;
 1552              	LM130:
 1553 0c6d 8D45F8   		leal	-8(%ebp), %eax
 1554 0c70 0345B4   		addl	-76(%ebp), %eax
 1555 0c73 2D600800 		subl	$2144, %eax
 1555      00
 1556 0c78 C60000   		movb	$0, (%eax)
 500:../../MMI/Resource/bmp2ems.c ****                 for (k = 8; k; k = k - 2)
 1558              	LM131:
 1559 0c7b C745AC08 		movl	$8, -84(%ebp)
 1559      000000
 1560              	L120:
 1561 0c82 837DAC00 		cmpl	$0, -84(%ebp)
 1562 0c86 7505     		jne	L123
 1563 0c88 E9990000 		jmp	L118
 1563      00
 1564              	L123:
 501:../../MMI/Resource/bmp2ems.c ****                 {
 502:../../MMI/Resource/bmp2ems.c ****                     data = bytestream_fgetbyte(&rgb_image);
 1566              	LM132:
 1567 0c8d 8D8578F3 		leal	-3208(%ebp), %eax
 1567      FFFF
 1568 0c93 890424   		movl	%eax, (%esp)
 1569 0c96 E8000000 		call	_bytestream_fgetbyte
 1569      00
 1570 0c9b 888596F7 		movb	%al, -2154(%ebp)
 1570      FFFF
 503:../../MMI/Resource/bmp2ems.c ****                     if (data >= 0 && data < 64)
 1572              	LM133:
 1573 0ca1 80BD96F7 		cmpb	$63, -2154(%ebp)
 1573      FFFF3F
 1574 0ca8 7709     		ja	L124
 504:../../MMI/Resource/bmp2ems.c ****                     {
 505:../../MMI/Resource/bmp2ems.c ****                         scale_data = 0x00;
 1576              	LM134:
 1577 0caa C68577F3 		movb	$0, -3209(%ebp)
 1577      FFFF00
 1578 0cb1 EB3D     		jmp	L125
 1579              	L124:
 506:../../MMI/Resource/bmp2ems.c ****                     }
 507:../../MMI/Resource/bmp2ems.c ****                     else if (data >= 64 && data < 128)
 1581              	LM135:
 1582 0cb3 80BD96F7 		cmpb	$63, -2154(%ebp)
 1582      FFFF3F
 1583 0cba 7612     		jbe	L126
 1584 0cbc 80BD96F7 		cmpb	$0, -2154(%ebp)
 1584      FFFF00
 1585 0cc3 7809     		js	L126
 508:../../MMI/Resource/bmp2ems.c ****                     {
 509:../../MMI/Resource/bmp2ems.c ****                         scale_data = 0x01;
 1587              	LM136:
GAS LISTING f:/K7_TOUR/CODE/plutommi/Customer/ResGenerator/gcctmp/cckxaaaa.s 			page 33


 1588 0cc5 C68577F3 		movb	$1, -3209(%ebp)
 1588      FFFF01
 1589 0ccc EB22     		jmp	L125
 1590              	L126:
 510:../../MMI/Resource/bmp2ems.c ****                     }
 511:../../MMI/Resource/bmp2ems.c ****                     else if (data >= 128 && data < 192)
 1592              	LM137:
 1593 0cce 80BD96F7 		cmpb	$0, -2154(%ebp)
 1593      FFFF00
 1594 0cd5 7912     		jns	L128
 1595 0cd7 80BD96F7 		cmpb	$-65, -2154(%ebp)
 1595      FFFFBF
 1596 0cde 7709     		ja	L128
 512:../../MMI/Resource/bmp2ems.c ****                     {
 513:../../MMI/Resource/bmp2ems.c ****                         scale_data = 0x02;
 1598              	LM138:
 1599 0ce0 C68577F3 		movb	$2, -3209(%ebp)
 1599      FFFF02
 1600 0ce7 EB07     		jmp	L125
 1601              	L128:
 514:../../MMI/Resource/bmp2ems.c ****                     }
 515:../../MMI/Resource/bmp2ems.c ****                     else
 516:../../MMI/Resource/bmp2ems.c ****                     {
 517:../../MMI/Resource/bmp2ems.c ****                         scale_data = 0x03;
 1603              	LM139:
 1604 0ce9 C68577F3 		movb	$3, -3209(%ebp)
 1604      FFFF03
 1605              	L125:
 518:../../MMI/Resource/bmp2ems.c ****                     }
 519:../../MMI/Resource/bmp2ems.c ****                     buffer[i] |= scale_data << (k - 2);
 1607              	LM140:
 1608 0cf0 8D45F8   		leal	-8(%ebp), %eax
 1609 0cf3 0345B4   		addl	-76(%ebp), %eax
 1610 0cf6 8D98A0F7 		leal	-2144(%eax), %ebx
 1610      FFFF
 1611 0cfc 8D45F8   		leal	-8(%ebp), %eax
 1612 0cff 0345B4   		addl	-76(%ebp), %eax
 1613 0d02 8D90A0F7 		leal	-2144(%eax), %edx
 1613      FFFF
 1614 0d08 0FB68577 		movzbl	-3209(%ebp), %eax
 1614      F3FFFF
 1615 0d0f 8B4DAC   		movl	-84(%ebp), %ecx
 1616 0d12 83E902   		subl	$2, %ecx
 1617 0d15 D3E0     		sall	%cl, %eax
 1618 0d17 0A02     		orb	(%edx), %al
 1619 0d19 8803     		movb	%al, (%ebx)
 1621              	LM141:
 1622 0d1b 8D45AC   		leal	-84(%ebp), %eax
 1623 0d1e 832802   		subl	$2, (%eax)
 1624 0d21 E95CFFFF 		jmp	L120
 1624      FF
 1626              	LM142:
 1627              	L118:
 1628 0d26 8D45B4   		leal	-76(%ebp), %eax
 1629 0d29 FF00     		incl	(%eax)
 1630 0d2b E930FFFF 		jmp	L116
 1630      FF
GAS LISTING f:/K7_TOUR/CODE/plutommi/Customer/ResGenerator/gcctmp/cckxaaaa.s 			page 34


 1631              	L98:
 520:../../MMI/Resource/bmp2ems.c ****                 }
 521:../../MMI/Resource/bmp2ems.c ****             }
 522:../../MMI/Resource/bmp2ems.c ****         }
 523:../../MMI/Resource/bmp2ems.c ****         if (verbose_mode)
 1633              	LM143:
 1634 0d30 803D0100 		cmpb	$0, _verbose_mode
 1634      000000
 1635 0d37 740C     		je	L130
 524:../../MMI/Resource/bmp2ems.c ****         {
 525:../../MMI/Resource/bmp2ems.c ****             printf("\nImage Data:");
 1637              	LM144:
 1638 0d39 C7042444 		movl	$LC36, (%esp)
 1638      020000
 1639 0d40 E8000000 		call	_printf
 1639      00
 1640              	L130:
 526:../../MMI/Resource/bmp2ems.c ****         }
 527:../../MMI/Resource/bmp2ems.c ****         printf(
 1642              	LM145:
 1643 0d45 8B459C   		movl	-100(%ebp), %eax
 1644 0d48 C1F808   		sarl	$8, %eax
 1645 0d4b 0FB6C0   		movzbl	%al, %eax
 1646 0d4e 89442424 		movl	%eax, 36(%esp)
 1647 0d52 0FB6459C 		movzbl	-100(%ebp), %eax
 1648 0d56 89442420 		movl	%eax, 32(%esp)
 1649 0d5a 8B45A0   		movl	-96(%ebp), %eax
 1650 0d5d C1F808   		sarl	$8, %eax
 1651 0d60 0FB6C0   		movzbl	%al, %eax
 1652 0d63 8944241C 		movl	%eax, 28(%esp)
 1653 0d67 0FB645A0 		movzbl	-96(%ebp), %eax
 1654 0d6b 89442418 		movl	%eax, 24(%esp)
 1655 0d6f 8B45A4   		movl	-92(%ebp), %eax
 1656 0d72 C1F808   		sarl	$8, %eax
 1657 0d75 0FB6C0   		movzbl	%al, %eax
 1658 0d78 89442414 		movl	%eax, 20(%esp)
 1659 0d7c 0FB645A4 		movzbl	-92(%ebp), %eax
 1660 0d80 89442410 		movl	%eax, 16(%esp)
 1661 0d84 C744240C 		movl	$0, 12(%esp)
 1661      00000000 
 1662 0d8c 0FB645A8 		movzbl	-88(%ebp), %eax
 1663 0d90 89442408 		movl	%eax, 8(%esp)
 1664 0d94 C7442404 		movl	$1, 4(%esp)
 1664      01000000 
 1665 0d9c C70424C0 		movl	$LC31, (%esp)
 1665      010000
 1666 0da3 E8000000 		call	_printf
 1666      00
 1667              	L85:
 528:../../MMI/Resource/bmp2ems.c ****             "\n{\t0x%02X, 0x%02X, 0x%02X, 0x%02X, 0x%02X, 0x%02X, 0x%02X, 0x%02X, 0x%02X,",
 529:../../MMI/Resource/bmp2ems.c ****             (U8) 1,
 530:../../MMI/Resource/bmp2ems.c ****             (U8) bits_per_pixel,
 531:../../MMI/Resource/bmp2ems.c ****             (U8) 0,
 532:../../MMI/Resource/bmp2ems.c ****             (U8) (width & 0xff),
 533:../../MMI/Resource/bmp2ems.c ****             (U8) ((width >> 8) & 0xff),
 534:../../MMI/Resource/bmp2ems.c ****             (U8) (height & 0xff),
 535:../../MMI/Resource/bmp2ems.c ****             (U8) ((height >> 8) & 0xff),
GAS LISTING f:/K7_TOUR/CODE/plutommi/Customer/ResGenerator/gcctmp/cckxaaaa.s 			page 35


 536:../../MMI/Resource/bmp2ems.c ****             (U8) ((PDU_length) & 0xff),
 537:../../MMI/Resource/bmp2ems.c ****             (U8) ((PDU_length) >> 8) & 0xff);
 538:../../MMI/Resource/bmp2ems.c ****     }
 539:../../MMI/Resource/bmp2ems.c ****     if (verbose_mode)
 1669              	LM146:
 1670 0da8 803D0100 		cmpb	$0, _verbose_mode
 1670      000000
 1671 0daf 740C     		je	L131
 540:../../MMI/Resource/bmp2ems.c ****     {
 541:../../MMI/Resource/bmp2ems.c ****         printf("\nConvert OK\n");
 1673              	LM147:
 1674 0db1 C7042451 		movl	$LC37, (%esp)
 1674      020000
 1675 0db8 E8000000 		call	_printf
 1675      00
 1676              	L131:
 542:../../MMI/Resource/bmp2ems.c ****     }
 543:../../MMI/Resource/bmp2ems.c ****     return (1);
 1678              	LM148:
 1679 0dbd C78564EB 		movl	$1, -5276(%ebp)
 1679      FFFF0100 
 1679      0000
 544:../../MMI/Resource/bmp2ems.c **** }
 1681              	LM149:
 1682              	L19:
 1683              	LBE2:
 1684 0dc7 8B8564EB 		movl	-5276(%ebp), %eax
 1684      FFFF
 1685 0dcd 81C4E414 		addl	$5348, %esp
 1685      0000
 1686 0dd3 5B       		popl	%ebx
 1687 0dd4 5D       		popl	%ebp
 1688 0dd5 C3       		ret
 1711              	Lscope0:
 1713              	LC38:
 1714 0dd6 0A457272 		.ascii "\12Err opening %s\0"
 1714      206F7065 
 1714      6E696E67 
 1714      20257300 
 1715              	LC39:
 1716 0de6 0A424D50 		.ascii "\12BMP to EMS PDU converter\0"
 1716      20746F20 
 1716      454D5320 
 1716      50445520 
 1716      636F6E76 
 1717              		.align 32
 1718              	LC40:
 1719 0e00 0A286329 		.ascii "\12(c) 2003 Pixtel communications Inc.\0"
 1719      20323030 
 1719      33205069 
 1719      7874656C 
 1719      20636F6D 
 1720 0e25 90909090 		.align 32
 1720      90909090 
 1720      90909090 
 1720      90909090 
 1720      90909090 
GAS LISTING f:/K7_TOUR/CODE/plutommi/Customer/ResGenerator/gcctmp/cckxaaaa.s 			page 36


 1721              	LC41:
 1722 0e40 0A457272 		.ascii "\12Err allocating memory of size %d bytes\0"
 1722      20616C6C 
 1722      6F636174 
 1722      696E6720 
 1722      6D656D6F 
 1729              	.globl _bmp2ems
 1731              	_bmp2ems:
 545:../../MMI/Resource/bmp2ems.c **** 
 546:../../MMI/Resource/bmp2ems.c **** 
 547:../../MMI/Resource/bmp2ems.c **** /*****************************************************************************
 548:../../MMI/Resource/bmp2ems.c ****  * FUNCTION
 549:../../MMI/Resource/bmp2ems.c ****  *  bmp2ems
 550:../../MMI/Resource/bmp2ems.c ****  * DESCRIPTION
 551:../../MMI/Resource/bmp2ems.c ****  *  
 552:../../MMI/Resource/bmp2ems.c ****  * PARAMETERS
 553:../../MMI/Resource/bmp2ems.c ****  *  in_filename         [?]         
 554:../../MMI/Resource/bmp2ems.c ****  *  out_filename        [?]         
 555:../../MMI/Resource/bmp2ems.c ****  *  binary_flag         [IN]        
 556:../../MMI/Resource/bmp2ems.c ****  *  verbose_flag        [IN]        
 557:../../MMI/Resource/bmp2ems.c ****  * RETURNS
 558:../../MMI/Resource/bmp2ems.c ****  *  
 559:../../MMI/Resource/bmp2ems.c ****  *****************************************************************************/
 560:../../MMI/Resource/bmp2ems.c **** int bmp2ems(char *in_filename, ResgenImageOutStream * outstream, int binary_flag, int verbose_flag,
 561:../../MMI/Resource/bmp2ems.c **** {
 1733              	LM150:
 1734 0e68 55       		pushl	%ebp
 1735 0e69 89E5     		movl	%esp, %ebp
 1736 0e6b 83EC58   		subl	$88, %esp
 562:../../MMI/Resource/bmp2ems.c ****     /*----------------------------------------------------------------*/
 563:../../MMI/Resource/bmp2ems.c ****     /* Local Variables                                                */
 564:../../MMI/Resource/bmp2ems.c ****     /*----------------------------------------------------------------*/
 565:../../MMI/Resource/bmp2ems.c ****     FILE *infile;
 566:../../MMI/Resource/bmp2ems.c ****     bytestream inimage;
 567:../../MMI/Resource/bmp2ems.c ****     S32 file_length;
 568:../../MMI/Resource/bmp2ems.c ****     U8 *buffer;
 569:../../MMI/Resource/bmp2ems.c ****     S32 i, bitmap_size, total_data_size;
 570:../../MMI/Resource/bmp2ems.c ****     int ret;
 571:../../MMI/Resource/bmp2ems.c **** 
 572:../../MMI/Resource/bmp2ems.c ****     /*----------------------------------------------------------------*/
 573:../../MMI/Resource/bmp2ems.c ****     /* Code Body                                                      */
 574:../../MMI/Resource/bmp2ems.c ****     /*----------------------------------------------------------------*/
 575:../../MMI/Resource/bmp2ems.c ****     infile = fopen(in_filename, "rb");
 1738              	LM151:
 1739              	LBB3:
 1740 0e6e C7442404 		movl	$LC26, 4(%esp)
 1740      71010000 
 1741 0e76 8B4508   		movl	8(%ebp), %eax
 1742 0e79 890424   		movl	%eax, (%esp)
 1743 0e7c E8000000 		call	_fopen
 1743      00
 1744 0e81 8945F4   		movl	%eax, -12(%ebp)
 576:../../MMI/Resource/bmp2ems.c ****     if (infile == NULL)
 1746              	LM152:
 1747 0e84 837DF400 		cmpl	$0, -12(%ebp)
 1748 0e88 751F     		jne	L133
 577:../../MMI/Resource/bmp2ems.c ****     {
GAS LISTING f:/K7_TOUR/CODE/plutommi/Customer/ResGenerator/gcctmp/cckxaaaa.s 			page 37


 578:../../MMI/Resource/bmp2ems.c ****         printf("\nErr opening %s", in_filename);
 1750              	LM153:
 1751 0e8a 8B4508   		movl	8(%ebp), %eax
 1752 0e8d 89442404 		movl	%eax, 4(%esp)
 1753 0e91 C70424D6 		movl	$LC38, (%esp)
 1753      0D0000
 1754 0e98 E8000000 		call	_printf
 1754      00
 579:../../MMI/Resource/bmp2ems.c ****         return 0;
 1756              	LM154:
 1757 0e9d C745BC00 		movl	$0, -68(%ebp)
 1757      000000
 1758 0ea4 E9360100 		jmp	L132
 1758      00
 1759              	L133:
 580:../../MMI/Resource/bmp2ems.c ****     }
 581:../../MMI/Resource/bmp2ems.c **** 
 582:../../MMI/Resource/bmp2ems.c ****     if (binary_flag == 1)
 1761              	LM155:
 1762 0ea9 837D1001 		cmpl	$1, 16(%ebp)
 1763 0ead 7507     		jne	L134
 583:../../MMI/Resource/bmp2ems.c ****     {
 584:../../MMI/Resource/bmp2ems.c ****         binary_mode = 1;
 1765              	LM156:
 1766 0eaf C6050000 		movb	$1, _binary_mode
 1766      000001
 1767              	L134:
 585:../../MMI/Resource/bmp2ems.c ****     }
 586:../../MMI/Resource/bmp2ems.c **** 
 587:../../MMI/Resource/bmp2ems.c ****     if (verbose_flag == 1)
 1769              	LM157:
 1770 0eb6 837D1401 		cmpl	$1, 20(%ebp)
 1771 0eba 7507     		jne	L135
 588:../../MMI/Resource/bmp2ems.c ****     {
 589:../../MMI/Resource/bmp2ems.c ****         verbose_mode = 1;
 1773              	LM158:
 1774 0ebc C6050100 		movb	$1, _verbose_mode
 1774      000001
 1775              	L135:
 590:../../MMI/Resource/bmp2ems.c ****     }
 591:../../MMI/Resource/bmp2ems.c **** 
 592:../../MMI/Resource/bmp2ems.c ****     if (verbose_mode)
 1777              	LM159:
 1778 0ec3 803D0100 		cmpb	$0, _verbose_mode
 1778      000000
 1779 0eca 7418     		je	L136
 593:../../MMI/Resource/bmp2ems.c ****     {
 594:../../MMI/Resource/bmp2ems.c ****         printf("\nBMP to EMS PDU converter");
 1781              	LM160:
 1782 0ecc C70424E6 		movl	$LC39, (%esp)
 1782      0D0000
 1783 0ed3 E8000000 		call	_printf
 1783      00
 595:../../MMI/Resource/bmp2ems.c ****         printf("\n(c) 2003 Pixtel communications Inc.");
 1785              	LM161:
 1786 0ed8 C7042400 		movl	$LC40, (%esp)
 1786      0E0000
GAS LISTING f:/K7_TOUR/CODE/plutommi/Customer/ResGenerator/gcctmp/cckxaaaa.s 			page 38


 1787 0edf E8000000 		call	_printf
 1787      00
 1788              	L136:
 596:../../MMI/Resource/bmp2ems.c ****     }
 597:../../MMI/Resource/bmp2ems.c **** 
 598:../../MMI/Resource/bmp2ems.c ****     fseek(infile, 0, SEEK_END);
 1790              	LM162:
 1791 0ee4 C7442408 		movl	$2, 8(%esp)
 1791      02000000 
 1792 0eec C7442404 		movl	$0, 4(%esp)
 1792      00000000 
 1793 0ef4 8B45F4   		movl	-12(%ebp), %eax
 1794 0ef7 890424   		movl	%eax, (%esp)
 1795 0efa E8000000 		call	_fseek
 1795      00
 599:../../MMI/Resource/bmp2ems.c ****     file_length = ftell(infile);
 1797              	LM163:
 1798 0eff 8B45F4   		movl	-12(%ebp), %eax
 1799 0f02 890424   		movl	%eax, (%esp)
 1800 0f05 E8000000 		call	_ftell
 1800      00
 1801 0f0a 8945D4   		movl	%eax, -44(%ebp)
 600:../../MMI/Resource/bmp2ems.c ****     fseek(infile, 0, SEEK_SET);
 1803              	LM164:
 1804 0f0d C7442408 		movl	$0, 8(%esp)
 1804      00000000 
 1805 0f15 C7442404 		movl	$0, 4(%esp)
 1805      00000000 
 1806 0f1d 8B45F4   		movl	-12(%ebp), %eax
 1807 0f20 890424   		movl	%eax, (%esp)
 1808 0f23 E8000000 		call	_fseek
 1808      00
 601:../../MMI/Resource/bmp2ems.c **** 
 602:../../MMI/Resource/bmp2ems.c ****     buffer = (U8*) malloc(file_length);
 1810              	LM165:
 1811 0f28 8B45D4   		movl	-44(%ebp), %eax
 1812 0f2b 890424   		movl	%eax, (%esp)
 1813 0f2e E8000000 		call	_malloc
 1813      00
 1814 0f33 8945D0   		movl	%eax, -48(%ebp)
 603:../../MMI/Resource/bmp2ems.c ****     if (buffer == NULL)
 1816              	LM166:
 1817 0f36 837DD000 		cmpl	$0, -48(%ebp)
 1818 0f3a 7527     		jne	L137
 604:../../MMI/Resource/bmp2ems.c ****     {
 605:../../MMI/Resource/bmp2ems.c ****         printf("\nErr allocating memory of size %d bytes", file_length);
 1820              	LM167:
 1821 0f3c 8B45D4   		movl	-44(%ebp), %eax
 1822 0f3f 89442404 		movl	%eax, 4(%esp)
 1823 0f43 C7042440 		movl	$LC41, (%esp)
 1823      0E0000
 1824 0f4a E8000000 		call	_printf
 1824      00
 606:../../MMI/Resource/bmp2ems.c ****         fclose(infile);
 1826              	LM168:
 1827 0f4f 8B45F4   		movl	-12(%ebp), %eax
 1828 0f52 890424   		movl	%eax, (%esp)
GAS LISTING f:/K7_TOUR/CODE/plutommi/Customer/ResGenerator/gcctmp/cckxaaaa.s 			page 39


 1829 0f55 E8000000 		call	_fclose
 1829      00
 607:../../MMI/Resource/bmp2ems.c ****         return 0;
 1831              	LM169:
 1832 0f5a C745BC00 		movl	$0, -68(%ebp)
 1832      000000
 1833 0f61 EB7C     		jmp	L132
 1834              	L137:
 608:../../MMI/Resource/bmp2ems.c ****     }
 609:../../MMI/Resource/bmp2ems.c **** 
 610:../../MMI/Resource/bmp2ems.c ****     fread(buffer, 1, file_length, infile);
 1836              	LM170:
 1837 0f63 8B45F4   		movl	-12(%ebp), %eax
 1838 0f66 8944240C 		movl	%eax, 12(%esp)
 1839 0f6a 8B45D4   		movl	-44(%ebp), %eax
 1840 0f6d 89442408 		movl	%eax, 8(%esp)
 1841 0f71 C7442404 		movl	$1, 4(%esp)
 1841      01000000 
 1842 0f79 8B45D0   		movl	-48(%ebp), %eax
 1843 0f7c 890424   		movl	%eax, (%esp)
 1844 0f7f E8000000 		call	_fread
 1844      00
 611:../../MMI/Resource/bmp2ems.c ****     fclose(infile);
 1846              	LM171:
 1847 0f84 8B45F4   		movl	-12(%ebp), %eax
 1848 0f87 890424   		movl	%eax, (%esp)
 1849 0f8a E8000000 		call	_fclose
 1849      00
 612:../../MMI/Resource/bmp2ems.c ****     bytestream_initialize(&inimage, buffer, file_length);
 1851              	LM172:
 1852 0f8f 8B45D4   		movl	-44(%ebp), %eax
 1853 0f92 89442408 		movl	%eax, 8(%esp)
 1854 0f96 8B45D0   		movl	-48(%ebp), %eax
 1855 0f99 89442404 		movl	%eax, 4(%esp)
 1856 0f9d 8D45D8   		leal	-40(%ebp), %eax
 1857 0fa0 890424   		movl	%eax, (%esp)
 1858 0fa3 E8000000 		call	_bytestream_initialize
 1858      00
 613:../../MMI/Resource/bmp2ems.c ****     ret = EMS_load(&inimage, in_filename, outstream, processData);
 1860              	LM173:
 1861 0fa8 8B4518   		movl	24(%ebp), %eax
 1862 0fab 8944240C 		movl	%eax, 12(%esp)
 1863 0faf 8B450C   		movl	12(%ebp), %eax
 1864 0fb2 89442408 		movl	%eax, 8(%esp)
 1865 0fb6 8B4508   		movl	8(%ebp), %eax
 1866 0fb9 89442404 		movl	%eax, 4(%esp)
 1867 0fbd 8D45D8   		leal	-40(%ebp), %eax
 1868 0fc0 890424   		movl	%eax, (%esp)
 1869 0fc3 E896F2FF 		call	_EMS_load
 1869      FF
 1870 0fc8 0FB6C0   		movzbl	%al, %eax
 1871 0fcb 8945C0   		movl	%eax, -64(%ebp)
 614:../../MMI/Resource/bmp2ems.c ****     free(buffer);
 1873              	LM174:
 1874 0fce 8B45D0   		movl	-48(%ebp), %eax
 1875 0fd1 890424   		movl	%eax, (%esp)
 1876 0fd4 E8000000 		call	_free
GAS LISTING f:/K7_TOUR/CODE/plutommi/Customer/ResGenerator/gcctmp/cckxaaaa.s 			page 40


 1876      00
 615:../../MMI/Resource/bmp2ems.c ****     return ret;
 1878              	LM175:
 1879 0fd9 8B45C0   		movl	-64(%ebp), %eax
 1880 0fdc 8945BC   		movl	%eax, -68(%ebp)
 616:../../MMI/Resource/bmp2ems.c **** }
 1882              	LM176:
 1883              	L132:
 1884              	LBE3:
 1885 0fdf 8B45BC   		movl	-68(%ebp), %eax
 1886 0fe2 C9       		leave
 1887 0fe3 C3       		ret
 1898              	Lscope1:
 1903              		.text
 1905              	Letext:
GAS LISTING f:/K7_TOUR/CODE/plutommi/Customer/ResGenerator/gcctmp/cckxaaaa.s 			page 41


DEFINED SYMBOLS
                            *ABS*:00000000 bmp2ems.c
f:/K7_TOUR/CODE/plutommi/Customer/ResGenerator/gcctmp/cckxaaaa.s:495    .text:00000060 _image_resource_info
f:/K7_TOUR/CODE/plutommi/Customer/ResGenerator/gcctmp/cckxaaaa.s:565    .bss:00000000 _binary_mode
f:/K7_TOUR/CODE/plutommi/Customer/ResGenerator/gcctmp/cckxaaaa.s:568    .bss:00000001 _verbose_mode
f:/K7_TOUR/CODE/plutommi/Customer/ResGenerator/gcctmp/cckxaaaa.s:615    .text:0000025e _EMS_load
f:/K7_TOUR/CODE/plutommi/Customer/ResGenerator/gcctmp/cckxaaaa.s:1731   .text:00000e68 _bmp2ems

UNDEFINED SYMBOLS
__alloca
_toolFlag
_dest_file
_ImageOutStreamPrintf
_fprintf
_bytestream_fgetbyte
_free
_bytestream_initialize
_fread
_fclose
_malloc
_ftell
_fseek
_fopen
_system
_sprintf
_strcat
_strcpy
_Extract_Name
_bytestream_fseek
_BMP_load_info_header
_printf
_BMP_load_file_header
