GAS LISTING f:/K7_TOUR/CODE/plutommi/Customer/ResGenerator/gcctmp/ccaobaaa.s 			page 1


   1              		.file	"BMPLoader.c"
   4              		.text
   5              	Ltext0:
 462              	LC0:
 463 0000 424D5000 		.ascii "BMP\0"
 464              	LC1:
 465 0004 50424D00 		.ascii "PBM\0"
 466              	LC2:
 467 0008 4A504700 		.ascii "JPG\0"
 468              	LC3:
 469 000c 47494600 		.ascii "GIF\0"
 470              	LC4:
 471 0010 41424D00 		.ascii "ABM\0"
 472              	LC5:
 473 0014 41564900 		.ascii "AVI\0"
 474              	LC6:
 475 0018 33475000 		.ascii "3GP\0"
 476              	LC7:
 477 001c 4D503400 		.ascii "MP4\0"
 478              	LC8:
 479 0020 525600   		.ascii "RV\0"
 480              	LC9:
 481 0023 524D00   		.ascii "RM\0"
 482              	LC10:
 483 0026 524D5642 		.ascii "RMVB\0"
 483      00
 484              	LC11:
 485 002b 504E4700 		.ascii "PNG\0"
 486              	LC12:
 487 002f 50504E00 		.ascii "PPN\0"
 488              	LC13:
 489 0033 4D334400 		.ascii "M3D\0"
 490              	LC14:
 491 0037 434D5000 		.ascii "CMP\0"
 492              	LC15:
 493 003b 56495300 		.ascii "VIS\0"
 494              	LC16:
 495 003f 53564700 		.ascii "SVG\0"
 496              	LC17:
 497 0043 54544600 		.ascii "TTF\0"
 498              	LC18:
 499 0047 53544600 		.ascii "STF\0"
 500              	LC19:
 501 004b 43434300 		.ascii "CCC\0"
 502              	LC20:
 503 004f 4B545800 		.ascii "KTX\0"
 504 0053 8DB60000 		.align 32
 504      00008DBC 
 504      27000000 
 504      00
 505              	_image_resource_info:
 506 0060 00000000 		.long	LC0
 507 0064 01       		.byte	1
 508 0065 000000   		.space 3
 509 0068 04000000 		.long	LC1
 510 006c 04       		.byte	4
 511 006d 000000   		.space 3
GAS LISTING f:/K7_TOUR/CODE/plutommi/Customer/ResGenerator/gcctmp/ccaobaaa.s 			page 2


 512 0070 08000000 		.long	LC2
 513 0074 09       		.byte	9
 514 0075 000000   		.space 3
 515 0078 0C000000 		.long	LC3
 516 007c 03       		.byte	3
 517 007d 000000   		.space 3
 518 0080 10000000 		.long	LC4
 519 0084 28       		.byte	40
 520 0085 000000   		.space 3
 521 0088 14000000 		.long	LC5
 522 008c 0C       		.byte	12
 523 008d 000000   		.space 3
 524 0090 18000000 		.long	LC6
 525 0094 0E       		.byte	14
 526 0095 000000   		.space 3
 527 0098 1C000000 		.long	LC7
 528 009c 10       		.byte	16
 529 009d 000000   		.space 3
 530 00a0 20000000 		.long	LC8
 531 00a4 4A       		.byte	74
 532 00a5 000000   		.space 3
 533 00a8 23000000 		.long	LC9
 534 00ac 4C       		.byte	76
 535 00ad 000000   		.space 3
 536 00b0 26000000 		.long	LC10
 537 00b4 4E       		.byte	78
 538 00b5 000000   		.space 3
 539 00b8 2B000000 		.long	LC11
 540 00bc 13       		.byte	19
 541 00bd 000000   		.space 3
 542 00c0 2F000000 		.long	LC12
 543 00c4 48       		.byte	72
 544 00c5 000000   		.space 3
 545 00c8 33000000 		.long	LC13
 546 00cc 19       		.byte	25
 547 00cd 000000   		.space 3
 548 00d0 37000000 		.long	LC14
 549 00d4 1D       		.byte	29
 550 00d5 000000   		.space 3
 551 00d8 3B000000 		.long	LC15
 552 00dc 31       		.byte	49
 553 00dd 000000   		.space 3
 554 00e0 3F000000 		.long	LC16
 555 00e4 1B       		.byte	27
 556 00e5 000000   		.space 3
 557 00e8 43000000 		.long	LC17
 558 00ec 49       		.byte	73
 559 00ed 000000   		.space 3
 560 00f0 47000000 		.long	LC18
 561 00f4 49       		.byte	73
 562 00f5 000000   		.space 3
 563 00f8 4B000000 		.long	LC19
 564 00fc 49       		.byte	73
 565 00fd 000000   		.space 3
 566 0100 4F000000 		.long	LC20
 567 0104 43       		.byte	67
 568 0105 000000   		.space 3
GAS LISTING f:/K7_TOUR/CODE/plutommi/Customer/ResGenerator/gcctmp/ccaobaaa.s 			page 3


 588              	_BMP_write_color:
   1:../../MMI/Resource/BMPLoader.c **** /*****************************************************************************
   2:../../MMI/Resource/BMPLoader.c **** *  Copyright Statement:
   3:../../MMI/Resource/BMPLoader.c **** *  --------------------
   4:../../MMI/Resource/BMPLoader.c **** *  This software is protected by Copyright and the information contained
   5:../../MMI/Resource/BMPLoader.c **** *  herein is confidential. The software may not be copied and the information
   6:../../MMI/Resource/BMPLoader.c **** *  contained herein may not be used or disclosed except with the written
   7:../../MMI/Resource/BMPLoader.c **** *  permission of MediaTek Inc. (C) 2005
   8:../../MMI/Resource/BMPLoader.c **** *
   9:../../MMI/Resource/BMPLoader.c **** *  BY OPENING THIS FILE, BUYER HEREBY UNEQUIVOCALLY ACKNOWLEDGES AND AGREES
  10:../../MMI/Resource/BMPLoader.c **** *  THAT THE SOFTWARE/FIRMWARE AND ITS DOCUMENTATIONS ("MEDIATEK SOFTWARE")
  11:../../MMI/Resource/BMPLoader.c **** *  RECEIVED FROM MEDIATEK AND/OR ITS REPRESENTATIVES ARE PROVIDED TO BUYER ON
  12:../../MMI/Resource/BMPLoader.c **** *  AN "AS-IS" BASIS ONLY. MEDIATEK EXPRESSLY DISCLAIMS ANY AND ALL WARRANTIES,
  13:../../MMI/Resource/BMPLoader.c **** *  EXPRESS OR IMPLIED, INCLUDING BUT NOT LIMITED TO THE IMPLIED WARRANTIES OF
  14:../../MMI/Resource/BMPLoader.c **** *  MERCHANTABILITY, FITNESS FOR A PARTICULAR PURPOSE OR NONINFRINGEMENT.
  15:../../MMI/Resource/BMPLoader.c **** *  NEITHER DOES MEDIATEK PROVIDE ANY WARRANTY WHATSOEVER WITH RESPECT TO THE
  16:../../MMI/Resource/BMPLoader.c **** *  SOFTWARE OF ANY THIRD PARTY WHICH MAY BE USED BY, INCORPORATED IN, OR
  17:../../MMI/Resource/BMPLoader.c **** *  SUPPLIED WITH THE MEDIATEK SOFTWARE, AND BUYER AGREES TO LOOK ONLY TO SUCH
  18:../../MMI/Resource/BMPLoader.c **** *  THIRD PARTY FOR ANY WARRANTY CLAIM RELATING THERETO. MEDIATEK SHALL ALSO
  19:../../MMI/Resource/BMPLoader.c **** *  NOT BE RESPONSIBLE FOR ANY MEDIATEK SOFTWARE RELEASES MADE TO BUYER'S
  20:../../MMI/Resource/BMPLoader.c **** *  SPECIFICATION OR TO CONFORM TO A PARTICULAR STANDARD OR OPEN FORUM.
  21:../../MMI/Resource/BMPLoader.c **** *
  22:../../MMI/Resource/BMPLoader.c **** *  BUYER'S SOLE AND EXCLUSIVE REMEDY AND MEDIATEK'S ENTIRE AND CUMULATIVE
  23:../../MMI/Resource/BMPLoader.c **** *  LIABILITY WITH RESPECT TO THE MEDIATEK SOFTWARE RELEASED HEREUNDER WILL BE,
  24:../../MMI/Resource/BMPLoader.c **** *  AT MEDIATEK'S OPTION, TO REVISE OR REPLACE THE MEDIATEK SOFTWARE AT ISSUE,
  25:../../MMI/Resource/BMPLoader.c **** *  OR REFUND ANY SOFTWARE LICENSE FEES OR SERVICE CHARGE PAID BY BUYER TO
  26:../../MMI/Resource/BMPLoader.c **** *  MEDIATEK FOR SUCH MEDIATEK SOFTWARE AT ISSUE. 
  27:../../MMI/Resource/BMPLoader.c **** *
  28:../../MMI/Resource/BMPLoader.c **** *  THE TRANSACTION CONTEMPLATED HEREUNDER SHALL BE CONSTRUED IN ACCORDANCE
  29:../../MMI/Resource/BMPLoader.c **** *  WITH THE LAWS OF THE STATE OF CALIFORNIA, USA, EXCLUDING ITS CONFLICT OF
  30:../../MMI/Resource/BMPLoader.c **** *  LAWS PRINCIPLES.  ANY DISPUTES, CONTROVERSIES OR CLAIMS ARISING THEREOF AND
  31:../../MMI/Resource/BMPLoader.c **** *  RELATED THERETO SHALL BE SETTLED BY ARBITRATION IN SAN FRANCISCO, CA, UNDER
  32:../../MMI/Resource/BMPLoader.c **** *  THE RULES OF THE INTERNATIONAL CHAMBER OF COMMERCE (ICC).
  33:../../MMI/Resource/BMPLoader.c **** *
  34:../../MMI/Resource/BMPLoader.c **** *****************************************************************************/
  35:../../MMI/Resource/BMPLoader.c **** 
  36:../../MMI/Resource/BMPLoader.c **** /*******************************************************************************
  37:../../MMI/Resource/BMPLoader.c ****  * Filename:
  38:../../MMI/Resource/BMPLoader.c ****  * ---------
  39:../../MMI/Resource/BMPLoader.c ****  *  BMPLoader.c
  40:../../MMI/Resource/BMPLoader.c ****  *
  41:../../MMI/Resource/BMPLoader.c ****  * Project:
  42:../../MMI/Resource/BMPLoader.c ****  * --------
  43:../../MMI/Resource/BMPLoader.c ****  *  MAUI
  44:../../MMI/Resource/BMPLoader.c ****  *
  45:../../MMI/Resource/BMPLoader.c ****  * Description:
  46:../../MMI/Resource/BMPLoader.c ****  * ------------
  47:../../MMI/Resource/BMPLoader.c ****  *  
  48:../../MMI/Resource/BMPLoader.c ****  *
  49:../../MMI/Resource/BMPLoader.c ****  * Author:
  50:../../MMI/Resource/BMPLoader.c ****  * -------
  51:../../MMI/Resource/BMPLoader.c ****  *  
  52:../../MMI/Resource/BMPLoader.c ****  *
  53:../../MMI/Resource/BMPLoader.c ****  *==============================================================================
  54:../../MMI/Resource/BMPLoader.c ****  *             HISTORY
  55:../../MMI/Resource/BMPLoader.c ****  * Below this line, this part is controlled by PVCS VM. DO NOT MODIFY!! 
  56:../../MMI/Resource/BMPLoader.c ****  *------------------------------------------------------------------------------
GAS LISTING f:/K7_TOUR/CODE/plutommi/Customer/ResGenerator/gcctmp/ccaobaaa.s 			page 4


  57:../../MMI/Resource/BMPLoader.c ****  * removed!
  58:../../MMI/Resource/BMPLoader.c ****  *
  59:../../MMI/Resource/BMPLoader.c ****  * removed!
  60:../../MMI/Resource/BMPLoader.c ****  * removed!
  61:../../MMI/Resource/BMPLoader.c ****  * removed!
  62:../../MMI/Resource/BMPLoader.c ****  *
  63:../../MMI/Resource/BMPLoader.c ****  * removed!
  64:../../MMI/Resource/BMPLoader.c ****  * removed!
  65:../../MMI/Resource/BMPLoader.c ****  * removed!
  66:../../MMI/Resource/BMPLoader.c ****  *
  67:../../MMI/Resource/BMPLoader.c ****  * removed!
  68:../../MMI/Resource/BMPLoader.c ****  * removed!
  69:../../MMI/Resource/BMPLoader.c ****  * removed!
  70:../../MMI/Resource/BMPLoader.c ****  *
  71:../../MMI/Resource/BMPLoader.c ****  * removed!
  72:../../MMI/Resource/BMPLoader.c ****  * removed!
  73:../../MMI/Resource/BMPLoader.c ****  * removed!
  74:../../MMI/Resource/BMPLoader.c ****  *
  75:../../MMI/Resource/BMPLoader.c ****  * removed!
  76:../../MMI/Resource/BMPLoader.c ****  * removed!
  77:../../MMI/Resource/BMPLoader.c ****  * removed!
  78:../../MMI/Resource/BMPLoader.c ****  *
  79:../../MMI/Resource/BMPLoader.c ****  * removed!
  80:../../MMI/Resource/BMPLoader.c ****  * removed!
  81:../../MMI/Resource/BMPLoader.c ****  * removed!
  82:../../MMI/Resource/BMPLoader.c ****  *
  83:../../MMI/Resource/BMPLoader.c ****  * removed!
  84:../../MMI/Resource/BMPLoader.c ****  * removed!
  85:../../MMI/Resource/BMPLoader.c ****  * removed!
  86:../../MMI/Resource/BMPLoader.c ****  *
  87:../../MMI/Resource/BMPLoader.c ****  * removed!
  88:../../MMI/Resource/BMPLoader.c ****  * removed!
  89:../../MMI/Resource/BMPLoader.c ****  * removed!
  90:../../MMI/Resource/BMPLoader.c ****  *
  91:../../MMI/Resource/BMPLoader.c ****  * removed!
  92:../../MMI/Resource/BMPLoader.c ****  * removed!
  93:../../MMI/Resource/BMPLoader.c ****  * removed!
  94:../../MMI/Resource/BMPLoader.c ****  *
  95:../../MMI/Resource/BMPLoader.c ****  * removed!
  96:../../MMI/Resource/BMPLoader.c ****  * removed!
  97:../../MMI/Resource/BMPLoader.c ****  * removed!
  98:../../MMI/Resource/BMPLoader.c ****  *
  99:../../MMI/Resource/BMPLoader.c ****  * removed!
 100:../../MMI/Resource/BMPLoader.c ****  * removed!
 101:../../MMI/Resource/BMPLoader.c ****  * removed!
 102:../../MMI/Resource/BMPLoader.c ****  *
 103:../../MMI/Resource/BMPLoader.c ****  * removed!
 104:../../MMI/Resource/BMPLoader.c ****  * removed!
 105:../../MMI/Resource/BMPLoader.c ****  * removed!
 106:../../MMI/Resource/BMPLoader.c ****  *
 107:../../MMI/Resource/BMPLoader.c ****  * removed!
 108:../../MMI/Resource/BMPLoader.c ****  * removed!
 109:../../MMI/Resource/BMPLoader.c ****  * removed!
 110:../../MMI/Resource/BMPLoader.c ****  *
 111:../../MMI/Resource/BMPLoader.c ****  * removed!
 112:../../MMI/Resource/BMPLoader.c ****  * removed!
 113:../../MMI/Resource/BMPLoader.c ****  * removed!
GAS LISTING f:/K7_TOUR/CODE/plutommi/Customer/ResGenerator/gcctmp/ccaobaaa.s 			page 5


 114:../../MMI/Resource/BMPLoader.c ****  *
 115:../../MMI/Resource/BMPLoader.c ****  * removed!
 116:../../MMI/Resource/BMPLoader.c ****  * removed!
 117:../../MMI/Resource/BMPLoader.c ****  * removed!
 118:../../MMI/Resource/BMPLoader.c ****  *
 119:../../MMI/Resource/BMPLoader.c ****  * removed!
 120:../../MMI/Resource/BMPLoader.c ****  * removed!
 121:../../MMI/Resource/BMPLoader.c ****  * removed!
 122:../../MMI/Resource/BMPLoader.c ****  *
 123:../../MMI/Resource/BMPLoader.c ****  * removed!
 124:../../MMI/Resource/BMPLoader.c ****  * removed!
 125:../../MMI/Resource/BMPLoader.c ****  * removed!
 126:../../MMI/Resource/BMPLoader.c ****  *
 127:../../MMI/Resource/BMPLoader.c ****  * removed!
 128:../../MMI/Resource/BMPLoader.c ****  * removed!
 129:../../MMI/Resource/BMPLoader.c ****  * removed!
 130:../../MMI/Resource/BMPLoader.c ****  *
 131:../../MMI/Resource/BMPLoader.c ****  * removed!
 132:../../MMI/Resource/BMPLoader.c ****  * removed!
 133:../../MMI/Resource/BMPLoader.c ****  * removed!
 134:../../MMI/Resource/BMPLoader.c ****  *
 135:../../MMI/Resource/BMPLoader.c ****  * removed!
 136:../../MMI/Resource/BMPLoader.c ****  * removed!
 137:../../MMI/Resource/BMPLoader.c ****  * removed!
 138:../../MMI/Resource/BMPLoader.c ****  *
 139:../../MMI/Resource/BMPLoader.c ****  *------------------------------------------------------------------------------
 140:../../MMI/Resource/BMPLoader.c ****  * Upper this line, this part is controlled by PVCS VM. DO NOT MODIFY!! 
 141:../../MMI/Resource/BMPLoader.c ****  *==============================================================================
 142:../../MMI/Resource/BMPLoader.c ****  *******************************************************************************/
 143:../../MMI/Resource/BMPLoader.c **** 
 144:../../MMI/Resource/BMPLoader.c **** #include <stdio.h>
 145:../../MMI/Resource/BMPLoader.c **** #include <stdlib.h>
 146:../../MMI/Resource/BMPLoader.c **** 
 147:../../MMI/Resource/BMPLoader.c **** #include "ResDevice.h"
 148:../../MMI/Resource/BMPLoader.c **** #include "ResBytestream.h"
 149:../../MMI/Resource/BMPLoader.c **** #include "ImgDecoderDef.h"
 150:../../MMI/Resource/BMPLoader.c **** #include "mmi_features.h"
 151:../../MMI/Resource/BMPLoader.c **** #include "gui_config.h"
 152:../../MMI/Resource/BMPLoader.c **** #include "ImageGetDimension.h"
 153:../../MMI/Resource/BMPLoader.c **** #include "gui_resource_type.h"
 154:../../MMI/Resource/BMPLoader.c **** #include "WriteResUtil.h"
 155:../../MMI/Resource/BMPLoader.c **** #include "ResgenLogCAPI.h"
 156:../../MMI/Resource/BMPLoader.c **** 
 157:../../MMI/Resource/BMPLoader.c **** extern FILE *dest_file;
 158:../../MMI/Resource/BMPLoader.c **** extern int toolFlag;
 159:../../MMI/Resource/BMPLoader.c **** 
 160:../../MMI/Resource/BMPLoader.c **** #ifdef __MMI_RESOURCE_ENFB_SUPPORT__
 161:../../MMI/Resource/BMPLoader.c **** extern FILE *enfb_img_data_file;
 162:../../MMI/Resource/BMPLoader.c **** extern U32 enfb_offset;
 163:../../MMI/Resource/BMPLoader.c **** extern U32 enfb_size;
 164:../../MMI/Resource/BMPLoader.c **** extern MMI_BOOL ENFBAssociatedIDAdded;
 165:../../MMI/Resource/BMPLoader.c **** #endif
 166:../../MMI/Resource/BMPLoader.c **** 
 167:../../MMI/Resource/BMPLoader.c **** #define BMPLDR_TAG  "BMPLOADER"
 168:../../MMI/Resource/BMPLoader.c **** 
 169:../../MMI/Resource/BMPLoader.c **** #define BMPLDR_LOG_D(format, args...) RES_LOG_D((BMPLDR_TAG), (format) , ##args)
 170:../../MMI/Resource/BMPLoader.c **** #define BMPLDR_LOG_V(format, args...) RES_LOG_V((BMPLDR_TAG), (format) , ##args)
GAS LISTING f:/K7_TOUR/CODE/plutommi/Customer/ResGenerator/gcctmp/ccaobaaa.s 			page 6


 171:../../MMI/Resource/BMPLoader.c **** #define BMPLDR_LOG_W(format, args...) RES_LOG_W((BMPLDR_TAG), (format) , ##args)
 172:../../MMI/Resource/BMPLoader.c **** #define BMPLDR_LOG_E(format, args...) RES_LOG_E((BMPLDR_TAG), (format) , ##args)
 173:../../MMI/Resource/BMPLoader.c **** 
 174:../../MMI/Resource/BMPLoader.c **** 
 175:../../MMI/Resource/BMPLoader.c **** static U8 BMP_load(bytestream *file, bitmap *b, S8 color_depth);
 176:../../MMI/Resource/BMPLoader.c **** 
 177:../../MMI/Resource/BMPLoader.c **** #if(!WINGUI_DIRECT_IMAGE_DISPLAY)
 178:../../MMI/Resource/BMPLoader.c **** static S32 BMP_write_color(
 179:../../MMI/Resource/BMPLoader.c ****         U8 *start,
 180:../../MMI/Resource/BMPLoader.c ****         U8 A,
 181:../../MMI/Resource/BMPLoader.c ****         U8 R,
 182:../../MMI/Resource/BMPLoader.c ****         U8 G,
 183:../../MMI/Resource/BMPLoader.c ****         U8 B,
 184:../../MMI/Resource/BMPLoader.c ****         S8 dest_color_depth,
 185:../../MMI/Resource/BMPLoader.c ****         U8 transparent)
 186:../../MMI/Resource/BMPLoader.c **** {
 590              	LM1:
 591 0108 55       		pushl	%ebp
 592 0109 89E5     		movl	%esp, %ebp
 593 010b 57       		pushl	%edi
 594 010c 56       		pushl	%esi
 595 010d 53       		pushl	%ebx
 596 010e 83EC14   		subl	$20, %esp
 597 0111 8B450C   		movl	12(%ebp), %eax
 598 0114 8B5510   		movl	16(%ebp), %edx
 599 0117 8B4D14   		movl	20(%ebp), %ecx
 600 011a 8B5D18   		movl	24(%ebp), %ebx
 601 011d 8B751C   		movl	28(%ebp), %esi
 602 0120 8B7D20   		movl	32(%ebp), %edi
 603 0123 8845F3   		movb	%al, -13(%ebp)
 604 0126 8855F2   		movb	%dl, -14(%ebp)
 605 0129 884DF1   		movb	%cl, -15(%ebp)
 606 012c 885DF0   		movb	%bl, -16(%ebp)
 607 012f 89F0     		movl	%esi, %eax
 608 0131 8845EF   		movb	%al, -17(%ebp)
 609 0134 89F8     		movl	%edi, %eax
 610 0136 8845EE   		movb	%al, -18(%ebp)
 187:../../MMI/Resource/BMPLoader.c ****     switch (dest_color_depth)
 612              	LM2:
 613              	LBB2:
 614 0139 0FBE45EF 		movsbl	-17(%ebp),%eax
 615 013d 8945E0   		movl	%eax, -32(%ebp)
 616 0140 837DE018 		cmpl	$24, -32(%ebp)
 617 0144 745F     		je	L24
 618 0146 837DE018 		cmpl	$24, -32(%ebp)
 619 014a 7F05     		jg	L32
 620 014c E99A0000 		jmp	L28
 620      00
 621              	L32:
 622 0151 837DE020 		cmpl	$32, -32(%ebp)
 623 0155 7405     		je	L21
 624 0157 E98F0000 		jmp	L28
 624      00
 625              	L21:
 188:../../MMI/Resource/BMPLoader.c ****     {
 189:../../MMI/Resource/BMPLoader.c ****         case 32:
 190:../../MMI/Resource/BMPLoader.c ****         {   
GAS LISTING f:/K7_TOUR/CODE/plutommi/Customer/ResGenerator/gcctmp/ccaobaaa.s 			page 7


 191:../../MMI/Resource/BMPLoader.c ****             U32 *color = (U32 *)start;
 627              	LM3:
 628              	LBB3:
 629 015c 8B4508   		movl	8(%ebp), %eax
 630 015f 8945E8   		movl	%eax, -24(%ebp)
 192:../../MMI/Resource/BMPLoader.c **** 
 193:../../MMI/Resource/BMPLoader.c ****             if (transparent)
 632              	LM4:
 633 0162 807DEE00 		cmpb	$0, -18(%ebp)
 634 0166 740B     		je	L22
 194:../../MMI/Resource/BMPLoader.c ****             {
 195:../../MMI/Resource/BMPLoader.c ****                 *color = (U32)RGB_TRANSPARENT_COLOR_32;
 636              	LM5:
 637 0168 8B45E8   		movl	-24(%ebp), %eax
 638 016b C7007856 		movl	$305419896, (%eax)
 638      3412
 639 0171 EB26     		jmp	L23
 640              	L22:
 196:../../MMI/Resource/BMPLoader.c ****             }
 197:../../MMI/Resource/BMPLoader.c ****             else
 198:../../MMI/Resource/BMPLoader.c ****             {
 199:../../MMI/Resource/BMPLoader.c ****                 *color = (U32)MMI_RGB_TO_HW_FORMAT_32(A,R,G,B);
 642              	LM6:
 643 0173 8B4DE8   		movl	-24(%ebp), %ecx
 644 0176 0FB645F3 		movzbl	-13(%ebp), %eax
 645 017a 89C2     		movl	%eax, %edx
 646 017c C1E218   		sall	$24, %edx
 647 017f 0FB645F2 		movzbl	-14(%ebp), %eax
 648 0183 C1E010   		sall	$16, %eax
 649 0186 09C2     		orl	%eax, %edx
 650 0188 0FB645F1 		movzbl	-15(%ebp), %eax
 651 018c C1E008   		sall	$8, %eax
 652 018f 09C2     		orl	%eax, %edx
 653 0191 0FB645F0 		movzbl	-16(%ebp), %eax
 654 0195 09D0     		orl	%edx, %eax
 655 0197 8901     		movl	%eax, (%ecx)
 656              	L23:
 200:../../MMI/Resource/BMPLoader.c ****             }
 201:../../MMI/Resource/BMPLoader.c ****             return 4;
 658              	LM7:
 659 0199 C745E404 		movl	$4, -28(%ebp)
 659      000000
 660 01a0 E9930000 		jmp	L19
 660      00
 661              	L24:
 202:../../MMI/Resource/BMPLoader.c ****             break;
 203:../../MMI/Resource/BMPLoader.c ****         }
 204:../../MMI/Resource/BMPLoader.c ****             
 205:../../MMI/Resource/BMPLoader.c ****         case 24:
 206:../../MMI/Resource/BMPLoader.c ****         {
 207:../../MMI/Resource/BMPLoader.c ****             if (transparent)
 663              	LM8:
 664              	LBE3:
 665 01a5 807DEE00 		cmpb	$0, -18(%ebp)
 666 01a9 7418     		je	L25
 208:../../MMI/Resource/BMPLoader.c ****             {
 209:../../MMI/Resource/BMPLoader.c ****                 *start = (U8)0x56;
GAS LISTING f:/K7_TOUR/CODE/plutommi/Customer/ResGenerator/gcctmp/ccaobaaa.s 			page 8


 668              	LM9:
 669 01ab 8B4508   		movl	8(%ebp), %eax
 670 01ae C60056   		movb	$86, (%eax)
 210:../../MMI/Resource/BMPLoader.c ****                 *(start+1) = (U8)0x34;
 672              	LM10:
 673 01b1 8B4508   		movl	8(%ebp), %eax
 674 01b4 40       		incl	%eax
 675 01b5 C60034   		movb	$52, (%eax)
 211:../../MMI/Resource/BMPLoader.c ****                 *(start+2) = (U8)0x12;
 677              	LM11:
 678 01b8 8B4508   		movl	8(%ebp), %eax
 679 01bb 83C002   		addl	$2, %eax
 680 01be C60012   		movb	$18, (%eax)
 681 01c1 EB1F     		jmp	L26
 682              	L25:
 212:../../MMI/Resource/BMPLoader.c ****             }
 213:../../MMI/Resource/BMPLoader.c ****             else
 214:../../MMI/Resource/BMPLoader.c ****             {
 215:../../MMI/Resource/BMPLoader.c ****                 *start = B;
 684              	LM12:
 685 01c3 8B5508   		movl	8(%ebp), %edx
 686 01c6 0FB645F0 		movzbl	-16(%ebp), %eax
 687 01ca 8802     		movb	%al, (%edx)
 216:../../MMI/Resource/BMPLoader.c ****                 *(start+1) = G;
 689              	LM13:
 690 01cc 8B5508   		movl	8(%ebp), %edx
 691 01cf 42       		incl	%edx
 692 01d0 0FB645F1 		movzbl	-15(%ebp), %eax
 693 01d4 8802     		movb	%al, (%edx)
 217:../../MMI/Resource/BMPLoader.c ****                 *(start+2) = R;
 695              	LM14:
 696 01d6 8B5508   		movl	8(%ebp), %edx
 697 01d9 83C202   		addl	$2, %edx
 698 01dc 0FB645F2 		movzbl	-14(%ebp), %eax
 699 01e0 8802     		movb	%al, (%edx)
 700              	L26:
 218:../../MMI/Resource/BMPLoader.c ****             }
 219:../../MMI/Resource/BMPLoader.c ****             return 3;
 702              	LM15:
 703 01e2 C745E403 		movl	$3, -28(%ebp)
 703      000000
 704 01e9 EB4D     		jmp	L19
 705              	L28:
 220:../../MMI/Resource/BMPLoader.c ****             break;
 221:../../MMI/Resource/BMPLoader.c ****         }
 222:../../MMI/Resource/BMPLoader.c ****             
 223:../../MMI/Resource/BMPLoader.c ****         case 16:
 224:../../MMI/Resource/BMPLoader.c ****         default:
 225:../../MMI/Resource/BMPLoader.c ****         {
 226:../../MMI/Resource/BMPLoader.c ****             U16 *color = (U16 *)start;
 707              	LM16:
 708              	LBB4:
 709 01eb 8B4508   		movl	8(%ebp), %eax
 710 01ee 8945E8   		movl	%eax, -24(%ebp)
 227:../../MMI/Resource/BMPLoader.c **** 
 228:../../MMI/Resource/BMPLoader.c ****             if (transparent)
 712              	LM17:
GAS LISTING f:/K7_TOUR/CODE/plutommi/Customer/ResGenerator/gcctmp/ccaobaaa.s 			page 9


 713 01f1 807DEE00 		cmpb	$0, -18(%ebp)
 714 01f5 740A     		je	L29
 229:../../MMI/Resource/BMPLoader.c ****             {
 230:../../MMI/Resource/BMPLoader.c ****                 *color = (U16)RGB_TRANSPARENT_COLOR_16;
 716              	LM18:
 717 01f7 8B45E8   		movl	-24(%ebp), %eax
 718 01fa 66C70034 		movw	$4660, (%eax)
 718      12
 719 01ff EB30     		jmp	L30
 720              	L29:
 231:../../MMI/Resource/BMPLoader.c ****             }
 232:../../MMI/Resource/BMPLoader.c ****             else
 233:../../MMI/Resource/BMPLoader.c ****             {
 234:../../MMI/Resource/BMPLoader.c ****                 *color = (U16)MMI_RGB_TO_HW_FORMAT_16(A,R,G,B);
 722              	LM19:
 723 0201 8B4DE8   		movl	-24(%ebp), %ecx
 724 0204 0FB645F0 		movzbl	-16(%ebp), %eax
 725 0208 25F80000 		andl	$248, %eax
 725      00
 726 020d 89C2     		movl	%eax, %edx
 727 020f C1FA03   		sarl	$3, %edx
 728 0212 0FB645F1 		movzbl	-15(%ebp), %eax
 729 0216 25FC0000 		andl	$252, %eax
 729      00
 730 021b C1E003   		sall	$3, %eax
 731 021e 09C2     		orl	%eax, %edx
 732 0220 0FB645F2 		movzbl	-14(%ebp), %eax
 733 0224 25F80000 		andl	$248, %eax
 733      00
 734 0229 C1E008   		sall	$8, %eax
 735 022c 09D0     		orl	%edx, %eax
 736 022e 668901   		movw	%ax, (%ecx)
 737              	L30:
 235:../../MMI/Resource/BMPLoader.c ****             }
 236:../../MMI/Resource/BMPLoader.c ****             return 2;
 739              	LM20:
 740 0231 C745E402 		movl	$2, -28(%ebp)
 740      000000
 237:../../MMI/Resource/BMPLoader.c ****             break;
 238:../../MMI/Resource/BMPLoader.c ****         }
 239:../../MMI/Resource/BMPLoader.c ****     }
 240:../../MMI/Resource/BMPLoader.c **** }
 742              	LM21:
 743              	L19:
 744              	LBE4:
 745              	LBE2:
 746 0238 8B45E4   		movl	-28(%ebp), %eax
 747 023b 83C414   		addl	$20, %esp
 748 023e 5B       		popl	%ebx
 749 023f 5E       		popl	%esi
 750 0240 5F       		popl	%edi
 751 0241 5D       		popl	%ebp
 752 0242 C3       		ret
 765              	Lscope0:
 777              	_BMP_write_line:
 241:../../MMI/Resource/BMPLoader.c **** 
 242:../../MMI/Resource/BMPLoader.c **** 
GAS LISTING f:/K7_TOUR/CODE/plutommi/Customer/ResGenerator/gcctmp/ccaobaaa.s 			page 10


 243:../../MMI/Resource/BMPLoader.c **** /*****************************************************************************
 244:../../MMI/Resource/BMPLoader.c ****  * FUNCTION
 245:../../MMI/Resource/BMPLoader.c ****  *  BMP_write_line
 246:../../MMI/Resource/BMPLoader.c ****  * DESCRIPTION
 247:../../MMI/Resource/BMPLoader.c ****  *  
 248:../../MMI/Resource/BMPLoader.c ****  * PARAMETERS
 249:../../MMI/Resource/BMPLoader.c ****  *  b               [?]         
 250:../../MMI/Resource/BMPLoader.c ****  *  buffer          [?]         
 251:../../MMI/Resource/BMPLoader.c ****  *  row_bytes       [IN]        
 252:../../MMI/Resource/BMPLoader.c ****  *  color_depth     [IN]        
 253:../../MMI/Resource/BMPLoader.c ****  *  dest_color_depth[IN]        
 254:../../MMI/Resource/BMPLoader.c ****  *  width           [IN]        
 255:../../MMI/Resource/BMPLoader.c ****  *  y               [IN]        
 256:../../MMI/Resource/BMPLoader.c ****  *  palette         [?]         
 257:../../MMI/Resource/BMPLoader.c ****  * RETURNS
 258:../../MMI/Resource/BMPLoader.c ****  *  void
 259:../../MMI/Resource/BMPLoader.c ****  *****************************************************************************/
 260:../../MMI/Resource/BMPLoader.c **** static void BMP_write_line(
 261:../../MMI/Resource/BMPLoader.c ****         bitmap *b,
 262:../../MMI/Resource/BMPLoader.c ****         U8 *buffer,
 263:../../MMI/Resource/BMPLoader.c ****         long int row_bytes,
 264:../../MMI/Resource/BMPLoader.c ****         S8 color_depth,
 265:../../MMI/Resource/BMPLoader.c ****         S8 dest_color_depth,
 266:../../MMI/Resource/BMPLoader.c ****         long int width,
 267:../../MMI/Resource/BMPLoader.c ****         long int y,
 268:../../MMI/Resource/BMPLoader.c ****         U8 palette[][3])
 269:../../MMI/Resource/BMPLoader.c **** {
 779              	LM22:
 780 0243 55       		pushl	%ebp
 781 0244 89E5     		movl	%esp, %ebp
 782 0246 83EC58   		subl	$88, %esp
 783 0249 8B4514   		movl	20(%ebp), %eax
 784 024c 8B5518   		movl	24(%ebp), %edx
 785 024f 8845FF   		movb	%al, -1(%ebp)
 786 0252 8855FE   		movb	%dl, -2(%ebp)
 270:../../MMI/Resource/BMPLoader.c ****     /*----------------------------------------------------------------*/
 271:../../MMI/Resource/BMPLoader.c ****     /* Local Variables                                                */
 272:../../MMI/Resource/BMPLoader.c ****     /*----------------------------------------------------------------*/
 273:../../MMI/Resource/BMPLoader.c ****     U32 offset;
 274:../../MMI/Resource/BMPLoader.c ****     U32 boffset = 0;
 788              	LM23:
 789              	LBB5:
 790 0255 C745F400 		movl	$0, -12(%ebp)
 790      000000
 275:../../MMI/Resource/BMPLoader.c ****     U8 color_index;
 276:../../MMI/Resource/BMPLoader.c ****     U8 data;
 277:../../MMI/Resource/BMPLoader.c ****     S32 w;
 278:../../MMI/Resource/BMPLoader.c ****     U8 A, R, G, B;
 279:../../MMI/Resource/BMPLoader.c ****     U8 transparent = 0;
 792              	LM24:
 793 025c C645E700 		movb	$0, -25(%ebp)
 280:../../MMI/Resource/BMPLoader.c **** 
 281:../../MMI/Resource/BMPLoader.c ****     /*----------------------------------------------------------------*/
 282:../../MMI/Resource/BMPLoader.c ****     /* Code Body                                                      */
 283:../../MMI/Resource/BMPLoader.c ****     /*----------------------------------------------------------------*/
 284:../../MMI/Resource/BMPLoader.c ****     UI_UNUSED_PARAMETER(row_bytes);
 285:../../MMI/Resource/BMPLoader.c ****     {
GAS LISTING f:/K7_TOUR/CODE/plutommi/Customer/ResGenerator/gcctmp/ccaobaaa.s 			page 11


 286:../../MMI/Resource/BMPLoader.c ****         S32 i, j;
 287:../../MMI/Resource/BMPLoader.c ****         U8 *bitmap_data = b->data;
 795              	LM25:
 796              	LBB6:
 797 0260 8B4508   		movl	8(%ebp), %eax
 798 0263 8B4014   		movl	20(%eax), %eax
 799 0266 8945D8   		movl	%eax, -40(%ebp)
 288:../../MMI/Resource/BMPLoader.c ****         U16 d;
 289:../../MMI/Resource/BMPLoader.c ****         S32 ret;
 290:../../MMI/Resource/BMPLoader.c **** 
 291:../../MMI/Resource/BMPLoader.c ****         offset = y * b->row_bytes;
 801              	LM26:
 802 0269 8B5508   		movl	8(%ebp), %edx
 803 026c 8B4520   		movl	32(%ebp), %eax
 804 026f 0FAF420C 		imull	12(%edx), %eax
 805 0273 8945F8   		movl	%eax, -8(%ebp)
 292:../../MMI/Resource/BMPLoader.c ****         switch (color_depth)
 807              	LM27:
 808 0276 0FBE45FF 		movsbl	-1(%ebp),%eax
 809 027a 8945C8   		movl	%eax, -56(%ebp)
 810 027d 837DC820 		cmpl	$32, -56(%ebp)
 811 0281 0F871B06 		ja	L33
 811      0000
 812 0287 8B55C8   		movl	-56(%ebp), %edx
 813 028a 8B049594 		movl	L84(,%edx,4), %eax
 813      020000
 814 0291 FFE0     		jmp	*%eax
 815 0293 90       		.p2align 2
 816              		.align 4
 817              	L84:
 818 0294 A2080000 		.long	L33
 819 0298 57070000 		.long	L71
 820 029c A2080000 		.long	L33
 821 02a0 A2080000 		.long	L33
 822 02a4 2E060000 		.long	L59
 823 02a8 A2080000 		.long	L33
 824 02ac A2080000 		.long	L33
 825 02b0 A2080000 		.long	L33
 826 02b4 66050000 		.long	L53
 827 02b8 A2080000 		.long	L33
 828 02bc A2080000 		.long	L33
 829 02c0 A2080000 		.long	L33
 830 02c4 A2080000 		.long	L33
 831 02c8 A2080000 		.long	L33
 832 02cc A2080000 		.long	L33
 833 02d0 A2080000 		.long	L33
 834 02d4 9B040000 		.long	L47
 835 02d8 A2080000 		.long	L33
 836 02dc A2080000 		.long	L33
 837 02e0 A2080000 		.long	L33
 838 02e4 A2080000 		.long	L33
 839 02e8 A2080000 		.long	L33
 840 02ec A2080000 		.long	L33
 841 02f0 A2080000 		.long	L33
 842 02f4 E3030000 		.long	L41
 843 02f8 A2080000 		.long	L33
 844 02fc A2080000 		.long	L33
GAS LISTING f:/K7_TOUR/CODE/plutommi/Customer/ResGenerator/gcctmp/ccaobaaa.s 			page 12


 845 0300 A2080000 		.long	L33
 846 0304 A2080000 		.long	L33
 847 0308 A2080000 		.long	L33
 848 030c A2080000 		.long	L33
 849 0310 A2080000 		.long	L33
 850 0314 18030000 		.long	L35
 851              	L35:
 293:../../MMI/Resource/BMPLoader.c ****         {
 294:../../MMI/Resource/BMPLoader.c ****             case 32:
 295:../../MMI/Resource/BMPLoader.c ****                 for (i = 0; i < width; i++)
 853              	LM28:
 854 0318 C745E000 		movl	$0, -32(%ebp)
 854      000000
 855              	L36:
 856 031f 8B45E0   		movl	-32(%ebp), %eax
 857 0322 3B451C   		cmpl	28(%ebp), %eax
 858 0325 7C05     		jl	L39
 859 0327 E9760500 		jmp	L33
 859      00
 860              	L39:
 296:../../MMI/Resource/BMPLoader.c ****                 {
 297:../../MMI/Resource/BMPLoader.c ****                     transparent = 0;
 862              	LM29:
 863 032c C645E700 		movb	$0, -25(%ebp)
 298:../../MMI/Resource/BMPLoader.c ****                     B = buffer[boffset++];
 865              	LM30:
 866 0330 8B45F4   		movl	-12(%ebp), %eax
 867 0333 03450C   		addl	12(%ebp), %eax
 868 0336 0FB600   		movzbl	(%eax), %eax
 869 0339 8845E8   		movb	%al, -24(%ebp)
 870 033c 8D45F4   		leal	-12(%ebp), %eax
 871 033f FF00     		incl	(%eax)
 299:../../MMI/Resource/BMPLoader.c ****                     G = buffer[boffset++];
 873              	LM31:
 874 0341 8B45F4   		movl	-12(%ebp), %eax
 875 0344 03450C   		addl	12(%ebp), %eax
 876 0347 0FB600   		movzbl	(%eax), %eax
 877 034a 8845E9   		movb	%al, -23(%ebp)
 878 034d 8D45F4   		leal	-12(%ebp), %eax
 879 0350 FF00     		incl	(%eax)
 300:../../MMI/Resource/BMPLoader.c ****                     R = buffer[boffset++];
 881              	LM32:
 882 0352 8B45F4   		movl	-12(%ebp), %eax
 883 0355 03450C   		addl	12(%ebp), %eax
 884 0358 0FB600   		movzbl	(%eax), %eax
 885 035b 8845EA   		movb	%al, -22(%ebp)
 886 035e 8D45F4   		leal	-12(%ebp), %eax
 887 0361 FF00     		incl	(%eax)
 301:../../MMI/Resource/BMPLoader.c ****                     A = buffer[boffset++];
 889              	LM33:
 890 0363 8B45F4   		movl	-12(%ebp), %eax
 891 0366 03450C   		addl	12(%ebp), %eax
 892 0369 0FB600   		movzbl	(%eax), %eax
 893 036c 8845EB   		movb	%al, -21(%ebp)
 894 036f 8D45F4   		leal	-12(%ebp), %eax
 895 0372 FF00     		incl	(%eax)
 302:../../MMI/Resource/BMPLoader.c ****                     if ((A == 0xFF) && (R == 0x0A) && (G == 0x0B) && (B == 0x0C))
GAS LISTING f:/K7_TOUR/CODE/plutommi/Customer/ResGenerator/gcctmp/ccaobaaa.s 			page 13


 897              	LM34:
 898 0374 807DEBFF 		cmpb	$-1, -21(%ebp)
 899 0378 7516     		jne	L40
 900 037a 807DEA0A 		cmpb	$10, -22(%ebp)
 901 037e 7510     		jne	L40
 902 0380 807DE90B 		cmpb	$11, -23(%ebp)
 903 0384 750A     		jne	L40
 904 0386 807DE80C 		cmpb	$12, -24(%ebp)
 905 038a 7504     		jne	L40
 303:../../MMI/Resource/BMPLoader.c ****                     {
 304:../../MMI/Resource/BMPLoader.c ****                         transparent = 1;
 907              	LM35:
 908 038c C645E701 		movb	$1, -25(%ebp)
 909              	L40:
 305:../../MMI/Resource/BMPLoader.c ****                     }
 306:../../MMI/Resource/BMPLoader.c ****                     ret = BMP_write_color(bitmap_data+offset, A, R, G, B, dest_color_depth, transpa
 911              	LM36:
 912 0390 0FB645E7 		movzbl	-25(%ebp), %eax
 913 0394 89442418 		movl	%eax, 24(%esp)
 914 0398 0FBE45FE 		movsbl	-2(%ebp),%eax
 915 039c 89442414 		movl	%eax, 20(%esp)
 916 03a0 0FB645E8 		movzbl	-24(%ebp), %eax
 917 03a4 89442410 		movl	%eax, 16(%esp)
 918 03a8 0FB645E9 		movzbl	-23(%ebp), %eax
 919 03ac 8944240C 		movl	%eax, 12(%esp)
 920 03b0 0FB645EA 		movzbl	-22(%ebp), %eax
 921 03b4 89442408 		movl	%eax, 8(%esp)
 922 03b8 0FB645EB 		movzbl	-21(%ebp), %eax
 923 03bc 89442404 		movl	%eax, 4(%esp)
 924 03c0 8B45F8   		movl	-8(%ebp), %eax
 925 03c3 0345D8   		addl	-40(%ebp), %eax
 926 03c6 890424   		movl	%eax, (%esp)
 927 03c9 E83AFDFF 		call	_BMP_write_color
 927      FF
 928 03ce 8945D0   		movl	%eax, -48(%ebp)
 307:../../MMI/Resource/BMPLoader.c ****                     offset += ret;
 930              	LM37:
 931 03d1 8B55D0   		movl	-48(%ebp), %edx
 932 03d4 8D45F8   		leal	-8(%ebp), %eax
 933 03d7 0110     		addl	%edx, (%eax)
 935              	LM38:
 936 03d9 8D45E0   		leal	-32(%ebp), %eax
 937 03dc FF00     		incl	(%eax)
 938 03de E93CFFFF 		jmp	L36
 938      FF
 939              	L41:
 308:../../MMI/Resource/BMPLoader.c ****                 }
 309:../../MMI/Resource/BMPLoader.c ****                 break;
 310:../../MMI/Resource/BMPLoader.c ****             case 24:
 311:../../MMI/Resource/BMPLoader.c ****                 for (i = 0; i < width; i++)
 941              	LM39:
 942 03e3 C745E000 		movl	$0, -32(%ebp)
 942      000000
 943              	L42:
 944 03ea 8B45E0   		movl	-32(%ebp), %eax
 945 03ed 3B451C   		cmpl	28(%ebp), %eax
 946 03f0 7C05     		jl	L45
GAS LISTING f:/K7_TOUR/CODE/plutommi/Customer/ResGenerator/gcctmp/ccaobaaa.s 			page 14


 947 03f2 E9AB0400 		jmp	L33
 947      00
 948              	L45:
 312:../../MMI/Resource/BMPLoader.c ****                 {
 313:../../MMI/Resource/BMPLoader.c ****                     transparent = 0;
 950              	LM40:
 951 03f7 C645E700 		movb	$0, -25(%ebp)
 314:../../MMI/Resource/BMPLoader.c ****                     B = buffer[boffset++];
 953              	LM41:
 954 03fb 8B45F4   		movl	-12(%ebp), %eax
 955 03fe 03450C   		addl	12(%ebp), %eax
 956 0401 0FB600   		movzbl	(%eax), %eax
 957 0404 8845E8   		movb	%al, -24(%ebp)
 958 0407 8D45F4   		leal	-12(%ebp), %eax
 959 040a FF00     		incl	(%eax)
 315:../../MMI/Resource/BMPLoader.c ****                     G = buffer[boffset++];
 961              	LM42:
 962 040c 8B45F4   		movl	-12(%ebp), %eax
 963 040f 03450C   		addl	12(%ebp), %eax
 964 0412 0FB600   		movzbl	(%eax), %eax
 965 0415 8845E9   		movb	%al, -23(%ebp)
 966 0418 8D45F4   		leal	-12(%ebp), %eax
 967 041b FF00     		incl	(%eax)
 316:../../MMI/Resource/BMPLoader.c ****                     R = buffer[boffset++];
 969              	LM43:
 970 041d 8B45F4   		movl	-12(%ebp), %eax
 971 0420 03450C   		addl	12(%ebp), %eax
 972 0423 0FB600   		movzbl	(%eax), %eax
 973 0426 8845EA   		movb	%al, -22(%ebp)
 974 0429 8D45F4   		leal	-12(%ebp), %eax
 975 042c FF00     		incl	(%eax)
 317:../../MMI/Resource/BMPLoader.c ****                     A = 255;
 977              	LM44:
 978 042e C645EBFF 		movb	$-1, -21(%ebp)
 318:../../MMI/Resource/BMPLoader.c ****                     if ((R == 0x0A) && (G == 0x0B) && (B == 0x0C))
 980              	LM45:
 981 0432 807DEA0A 		cmpb	$10, -22(%ebp)
 982 0436 7510     		jne	L46
 983 0438 807DE90B 		cmpb	$11, -23(%ebp)
 984 043c 750A     		jne	L46
 985 043e 807DE80C 		cmpb	$12, -24(%ebp)
 986 0442 7504     		jne	L46
 319:../../MMI/Resource/BMPLoader.c ****                     {
 320:../../MMI/Resource/BMPLoader.c ****                         transparent = 1;
 988              	LM46:
 989 0444 C645E701 		movb	$1, -25(%ebp)
 990              	L46:
 321:../../MMI/Resource/BMPLoader.c ****                     }
 322:../../MMI/Resource/BMPLoader.c ****                     ret = BMP_write_color(bitmap_data+offset, A, R, G, B, dest_color_depth, transpa
 992              	LM47:
 993 0448 0FB645E7 		movzbl	-25(%ebp), %eax
 994 044c 89442418 		movl	%eax, 24(%esp)
 995 0450 0FBE45FE 		movsbl	-2(%ebp),%eax
 996 0454 89442414 		movl	%eax, 20(%esp)
 997 0458 0FB645E8 		movzbl	-24(%ebp), %eax
 998 045c 89442410 		movl	%eax, 16(%esp)
 999 0460 0FB645E9 		movzbl	-23(%ebp), %eax
GAS LISTING f:/K7_TOUR/CODE/plutommi/Customer/ResGenerator/gcctmp/ccaobaaa.s 			page 15


 1000 0464 8944240C 		movl	%eax, 12(%esp)
 1001 0468 0FB645EA 		movzbl	-22(%ebp), %eax
 1002 046c 89442408 		movl	%eax, 8(%esp)
 1003 0470 0FB645EB 		movzbl	-21(%ebp), %eax
 1004 0474 89442404 		movl	%eax, 4(%esp)
 1005 0478 8B45F8   		movl	-8(%ebp), %eax
 1006 047b 0345D8   		addl	-40(%ebp), %eax
 1007 047e 890424   		movl	%eax, (%esp)
 1008 0481 E882FCFF 		call	_BMP_write_color
 1008      FF
 1009 0486 8945D0   		movl	%eax, -48(%ebp)
 323:../../MMI/Resource/BMPLoader.c ****                     offset += ret;
 1011              	LM48:
 1012 0489 8B55D0   		movl	-48(%ebp), %edx
 1013 048c 8D45F8   		leal	-8(%ebp), %eax
 1014 048f 0110     		addl	%edx, (%eax)
 1016              	LM49:
 1017 0491 8D45E0   		leal	-32(%ebp), %eax
 1018 0494 FF00     		incl	(%eax)
 1019 0496 E94FFFFF 		jmp	L42
 1019      FF
 1020              	L47:
 324:../../MMI/Resource/BMPLoader.c ****                 }
 325:../../MMI/Resource/BMPLoader.c ****                 break;
 326:../../MMI/Resource/BMPLoader.c ****             case 16:    /* RGB-555 */
 327:../../MMI/Resource/BMPLoader.c ****                 for (i = 0; i < width; i++)
 1022              	LM50:
 1023 049b C745E000 		movl	$0, -32(%ebp)
 1023      000000
 1024              	L48:
 1025 04a2 8B45E0   		movl	-32(%ebp), %eax
 1026 04a5 3B451C   		cmpl	28(%ebp), %eax
 1027 04a8 7C05     		jl	L51
 1028 04aa E9F30300 		jmp	L33
 1028      00
 1029              	L51:
 328:../../MMI/Resource/BMPLoader.c ****                 {
 329:../../MMI/Resource/BMPLoader.c ****                     U16 data = 0;
 1031              	LM51:
 1032              	LBB7:
 1033 04af 66C745CE 		movw	$0, -50(%ebp)
 1033      0000
 330:../../MMI/Resource/BMPLoader.c **** 
 331:../../MMI/Resource/BMPLoader.c ****                     data = ((U16*)buffer)[boffset++];
 1035              	LM52:
 1036 04b5 8B45F4   		movl	-12(%ebp), %eax
 1037 04b8 8D1400   		leal	(%eax,%eax), %edx
 1038 04bb 8B450C   		movl	12(%ebp), %eax
 1039 04be 0FB70410 		movzwl	(%eax,%edx), %eax
 1040 04c2 668945CE 		movw	%ax, -50(%ebp)
 1041 04c6 8D45F4   		leal	-12(%ebp), %eax
 1042 04c9 FF00     		incl	(%eax)
 332:../../MMI/Resource/BMPLoader.c ****                     
 333:../../MMI/Resource/BMPLoader.c ****                     transparent = 0;
 1044              	LM53:
 1045 04cb C645E700 		movb	$0, -25(%ebp)
 334:../../MMI/Resource/BMPLoader.c ****                     R = ((data >> 10) & 0x1F) << 3;
GAS LISTING f:/K7_TOUR/CODE/plutommi/Customer/ResGenerator/gcctmp/ccaobaaa.s 			page 16


 1047              	LM54:
 1048 04cf 0FB745CE 		movzwl	-50(%ebp), %eax
 1049 04d3 C1E80A   		shrl	$10, %eax
 1050 04d6 241F     		andb	$31, %al
 1051 04d8 C0E003   		salb	$3, %al
 1052 04db 8845EA   		movb	%al, -22(%ebp)
 335:../../MMI/Resource/BMPLoader.c ****                     G = ((data >> 5) & 0x1F) << 3;
 1054              	LM55:
 1055 04de 0FB745CE 		movzwl	-50(%ebp), %eax
 1056 04e2 C1E805   		shrl	$5, %eax
 1057 04e5 241F     		andb	$31, %al
 1058 04e7 C0E003   		salb	$3, %al
 1059 04ea 8845E9   		movb	%al, -23(%ebp)
 336:../../MMI/Resource/BMPLoader.c ****                     B = (data & 0x1F) << 3;
 1061              	LM56:
 1062 04ed 0FB645CE 		movzbl	-50(%ebp), %eax
 1063 04f1 241F     		andb	$31, %al
 1064 04f3 C0E003   		salb	$3, %al
 1065 04f6 8845E8   		movb	%al, -24(%ebp)
 337:../../MMI/Resource/BMPLoader.c ****                     A = 255;
 1067              	LM57:
 1068 04f9 C645EBFF 		movb	$-1, -21(%ebp)
 338:../../MMI/Resource/BMPLoader.c ****                     if ((R == 0x0A) && (G == 0x0B) && (B == 0x0C))
 1070              	LM58:
 1071 04fd 807DEA0A 		cmpb	$10, -22(%ebp)
 1072 0501 7510     		jne	L52
 1073 0503 807DE90B 		cmpb	$11, -23(%ebp)
 1074 0507 750A     		jne	L52
 1075 0509 807DE80C 		cmpb	$12, -24(%ebp)
 1076 050d 7504     		jne	L52
 339:../../MMI/Resource/BMPLoader.c ****                     {
 340:../../MMI/Resource/BMPLoader.c ****                         transparent = 1;
 1078              	LM59:
 1079 050f C645E701 		movb	$1, -25(%ebp)
 1080              	L52:
 341:../../MMI/Resource/BMPLoader.c ****                     }
 342:../../MMI/Resource/BMPLoader.c ****                     ret = BMP_write_color(bitmap_data+offset, A, R, G, B, dest_color_depth, transpa
 1082              	LM60:
 1083 0513 0FB645E7 		movzbl	-25(%ebp), %eax
 1084 0517 89442418 		movl	%eax, 24(%esp)
 1085 051b 0FBE45FE 		movsbl	-2(%ebp),%eax
 1086 051f 89442414 		movl	%eax, 20(%esp)
 1087 0523 0FB645E8 		movzbl	-24(%ebp), %eax
 1088 0527 89442410 		movl	%eax, 16(%esp)
 1089 052b 0FB645E9 		movzbl	-23(%ebp), %eax
 1090 052f 8944240C 		movl	%eax, 12(%esp)
 1091 0533 0FB645EA 		movzbl	-22(%ebp), %eax
 1092 0537 89442408 		movl	%eax, 8(%esp)
 1093 053b 0FB645EB 		movzbl	-21(%ebp), %eax
 1094 053f 89442404 		movl	%eax, 4(%esp)
 1095 0543 8B45F8   		movl	-8(%ebp), %eax
 1096 0546 0345D8   		addl	-40(%ebp), %eax
 1097 0549 890424   		movl	%eax, (%esp)
 1098 054c E8B7FBFF 		call	_BMP_write_color
 1098      FF
 1099 0551 8945D0   		movl	%eax, -48(%ebp)
 343:../../MMI/Resource/BMPLoader.c ****                     offset += ret;
GAS LISTING f:/K7_TOUR/CODE/plutommi/Customer/ResGenerator/gcctmp/ccaobaaa.s 			page 17


 1101              	LM61:
 1102 0554 8B55D0   		movl	-48(%ebp), %edx
 1103 0557 8D45F8   		leal	-8(%ebp), %eax
 1104 055a 0110     		addl	%edx, (%eax)
 1106              	LM62:
 1107 055c 8D45E0   		leal	-32(%ebp), %eax
 1108              	LBE7:
 1109 055f FF00     		incl	(%eax)
 1110 0561 E93CFFFF 		jmp	L48
 1110      FF
 1111              	L53:
 344:../../MMI/Resource/BMPLoader.c ****                 }
 345:../../MMI/Resource/BMPLoader.c ****                 break;
 346:../../MMI/Resource/BMPLoader.c ****             case 8:
 347:../../MMI/Resource/BMPLoader.c ****                 for (i = 0; i < width; i++)
 1113              	LM63:
 1114 0566 C745E000 		movl	$0, -32(%ebp)
 1114      000000
 1115              	L54:
 1116 056d 8B45E0   		movl	-32(%ebp), %eax
 1117 0570 3B451C   		cmpl	28(%ebp), %eax
 1118 0573 7C05     		jl	L57
 1119 0575 E9280300 		jmp	L33
 1119      00
 1120              	L57:
 348:../../MMI/Resource/BMPLoader.c ****                 {
 349:../../MMI/Resource/BMPLoader.c ****                     transparent = 0;
 1122              	LM64:
 1123 057a C645E700 		movb	$0, -25(%ebp)
 350:../../MMI/Resource/BMPLoader.c ****                     color_index = buffer[boffset++];
 1125              	LM65:
 1126 057e 8B45F4   		movl	-12(%ebp), %eax
 1127 0581 03450C   		addl	12(%ebp), %eax
 1128 0584 0FB600   		movzbl	(%eax), %eax
 1129 0587 8845F3   		movb	%al, -13(%ebp)
 1130 058a 8D45F4   		leal	-12(%ebp), %eax
 1131 058d FF00     		incl	(%eax)
 351:../../MMI/Resource/BMPLoader.c ****                     B = palette[color_index][2];
 1133              	LM66:
 1134 058f 0FB655F3 		movzbl	-13(%ebp), %edx
 1135 0593 89D0     		movl	%edx, %eax
 1136 0595 01C0     		addl	%eax, %eax
 1137 0597 01D0     		addl	%edx, %eax
 1138 0599 034524   		addl	36(%ebp), %eax
 1139 059c 83C002   		addl	$2, %eax
 1140 059f 0FB600   		movzbl	(%eax), %eax
 1141 05a2 8845E8   		movb	%al, -24(%ebp)
 352:../../MMI/Resource/BMPLoader.c ****                     G = palette[color_index][1];
 1143              	LM67:
 1144 05a5 0FB655F3 		movzbl	-13(%ebp), %edx
 1145 05a9 89D0     		movl	%edx, %eax
 1146 05ab 01C0     		addl	%eax, %eax
 1147 05ad 01D0     		addl	%edx, %eax
 1148 05af 034524   		addl	36(%ebp), %eax
 1149 05b2 40       		incl	%eax
 1150 05b3 0FB600   		movzbl	(%eax), %eax
 1151 05b6 8845E9   		movb	%al, -23(%ebp)
GAS LISTING f:/K7_TOUR/CODE/plutommi/Customer/ResGenerator/gcctmp/ccaobaaa.s 			page 18


 353:../../MMI/Resource/BMPLoader.c ****                     R = palette[color_index][0];
 1153              	LM68:
 1154 05b9 0FB655F3 		movzbl	-13(%ebp), %edx
 1155 05bd 89D0     		movl	%edx, %eax
 1156 05bf 01C0     		addl	%eax, %eax
 1157 05c1 01D0     		addl	%edx, %eax
 1158 05c3 8B5524   		movl	36(%ebp), %edx
 1159 05c6 0FB60402 		movzbl	(%edx,%eax), %eax
 1160 05ca 8845EA   		movb	%al, -22(%ebp)
 354:../../MMI/Resource/BMPLoader.c ****                     A = 255;
 1162              	LM69:
 1163 05cd C645EBFF 		movb	$-1, -21(%ebp)
 355:../../MMI/Resource/BMPLoader.c ****                     if (color_index == 0x00)
 1165              	LM70:
 1166 05d1 807DF300 		cmpb	$0, -13(%ebp)
 1167 05d5 7504     		jne	L58
 356:../../MMI/Resource/BMPLoader.c ****                     {
 357:../../MMI/Resource/BMPLoader.c ****                         transparent = 1;
 1169              	LM71:
 1170 05d7 C645E701 		movb	$1, -25(%ebp)
 1171              	L58:
 358:../../MMI/Resource/BMPLoader.c ****                     }
 359:../../MMI/Resource/BMPLoader.c ****                     ret = BMP_write_color(bitmap_data+offset, A, R, G, B, dest_color_depth, transpa
 1173              	LM72:
 1174 05db 0FB645E7 		movzbl	-25(%ebp), %eax
 1175 05df 89442418 		movl	%eax, 24(%esp)
 1176 05e3 0FBE45FE 		movsbl	-2(%ebp),%eax
 1177 05e7 89442414 		movl	%eax, 20(%esp)
 1178 05eb 0FB645E8 		movzbl	-24(%ebp), %eax
 1179 05ef 89442410 		movl	%eax, 16(%esp)
 1180 05f3 0FB645E9 		movzbl	-23(%ebp), %eax
 1181 05f7 8944240C 		movl	%eax, 12(%esp)
 1182 05fb 0FB645EA 		movzbl	-22(%ebp), %eax
 1183 05ff 89442408 		movl	%eax, 8(%esp)
 1184 0603 0FB645EB 		movzbl	-21(%ebp), %eax
 1185 0607 89442404 		movl	%eax, 4(%esp)
 1186 060b 8B45F8   		movl	-8(%ebp), %eax
 1187 060e 0345D8   		addl	-40(%ebp), %eax
 1188 0611 890424   		movl	%eax, (%esp)
 1189 0614 E8EFFAFF 		call	_BMP_write_color
 1189      FF
 1190 0619 8945D0   		movl	%eax, -48(%ebp)
 360:../../MMI/Resource/BMPLoader.c ****                     offset += ret;
 1192              	LM73:
 1193 061c 8B55D0   		movl	-48(%ebp), %edx
 1194 061f 8D45F8   		leal	-8(%ebp), %eax
 1195 0622 0110     		addl	%edx, (%eax)
 1197              	LM74:
 1198 0624 8D45E0   		leal	-32(%ebp), %eax
 1199 0627 FF00     		incl	(%eax)
 1200 0629 E93FFFFF 		jmp	L54
 1200      FF
 1201              	L59:
 361:../../MMI/Resource/BMPLoader.c ****                 }
 362:../../MMI/Resource/BMPLoader.c ****                 break;
 363:../../MMI/Resource/BMPLoader.c ****             case 4:
 364:../../MMI/Resource/BMPLoader.c ****                 w = (width >> 1);
GAS LISTING f:/K7_TOUR/CODE/plutommi/Customer/ResGenerator/gcctmp/ccaobaaa.s 			page 19


 1203              	LM75:
 1204 062e 8B451C   		movl	28(%ebp), %eax
 1205 0631 D1F8     		sarl	%eax
 1206 0633 8945EC   		movl	%eax, -20(%ebp)
 365:../../MMI/Resource/BMPLoader.c ****                 if (width & 1)
 1208              	LM76:
 1209 0636 8B451C   		movl	28(%ebp), %eax
 1210 0639 83E001   		andl	$1, %eax
 1211 063c 85C0     		testl	%eax, %eax
 1212 063e 7405     		je	L60
 366:../../MMI/Resource/BMPLoader.c ****                 {
 367:../../MMI/Resource/BMPLoader.c ****                     w++;
 1214              	LM77:
 1215 0640 8D45EC   		leal	-20(%ebp), %eax
 1216 0643 FF00     		incl	(%eax)
 1217              	L60:
 368:../../MMI/Resource/BMPLoader.c ****                 }
 369:../../MMI/Resource/BMPLoader.c ****                 for (i = 0; i < w; i++)
 1219              	LM78:
 1220 0645 C745E000 		movl	$0, -32(%ebp)
 1220      000000
 1221              	L61:
 1222 064c 8B45E0   		movl	-32(%ebp), %eax
 1223 064f 3B45EC   		cmpl	-20(%ebp), %eax
 1224 0652 7C05     		jl	L64
 1225 0654 E9490200 		jmp	L33
 1225      00
 1226              	L64:
 370:../../MMI/Resource/BMPLoader.c ****                 {
 371:../../MMI/Resource/BMPLoader.c ****                     data = buffer[boffset++];
 1228              	LM79:
 1229 0659 8B45F4   		movl	-12(%ebp), %eax
 1230 065c 03450C   		addl	12(%ebp), %eax
 1231 065f 0FB600   		movzbl	(%eax), %eax
 1232 0662 8845F2   		movb	%al, -14(%ebp)
 1233 0665 8D45F4   		leal	-12(%ebp), %eax
 1234 0668 FF00     		incl	(%eax)
 372:../../MMI/Resource/BMPLoader.c ****                     for (j = 0; j < 2; j++)
 1236              	LM80:
 1237 066a C745DC00 		movl	$0, -36(%ebp)
 1237      000000
 1238              	L65:
 1239 0671 837DDC01 		cmpl	$1, -36(%ebp)
 1240 0675 7E05     		jle	L68
 1241 0677 E9D10000 		jmp	L63
 1241      00
 1242              	L68:
 373:../../MMI/Resource/BMPLoader.c ****                     {
 374:../../MMI/Resource/BMPLoader.c ****                         if (((i << 1) + j) >= width)
 1244              	LM81:
 1245 067c 8B45E0   		movl	-32(%ebp), %eax
 1246 067f 01C0     		addl	%eax, %eax
 1247 0681 0345DC   		addl	-36(%ebp), %eax
 1248 0684 3B451C   		cmpl	28(%ebp), %eax
 1249 0687 7C05     		jl	L69
 375:../../MMI/Resource/BMPLoader.c ****                         {
 376:../../MMI/Resource/BMPLoader.c ****                             break;
GAS LISTING f:/K7_TOUR/CODE/plutommi/Customer/ResGenerator/gcctmp/ccaobaaa.s 			page 20


 1251              	LM82:
 1252 0689 E9BF0000 		jmp	L63
 1252      00
 1253              	L69:
 377:../../MMI/Resource/BMPLoader.c ****                         }
 378:../../MMI/Resource/BMPLoader.c ****                         transparent = 0;
 1255              	LM83:
 1256 068e C645E700 		movb	$0, -25(%ebp)
 379:../../MMI/Resource/BMPLoader.c ****                         color_index = (U8) ((data >> ((1 - j) << 2)) & 0xf);
 1258              	LM84:
 1259 0692 0FB655F2 		movzbl	-14(%ebp), %edx
 1260 0696 B8010000 		movl	$1, %eax
 1260      00
 1261 069b 2B45DC   		subl	-36(%ebp), %eax
 1262 069e 8D0C8500 		leal	0(,%eax,4), %ecx
 1262      000000
 1263 06a5 89D0     		movl	%edx, %eax
 1264 06a7 D3F8     		sarl	%cl, %eax
 1265 06a9 240F     		andb	$15, %al
 1266 06ab 8845F3   		movb	%al, -13(%ebp)
 380:../../MMI/Resource/BMPLoader.c ****                         B = palette[color_index][2];
 1268              	LM85:
 1269 06ae 0FB655F3 		movzbl	-13(%ebp), %edx
 1270 06b2 89D0     		movl	%edx, %eax
 1271 06b4 01C0     		addl	%eax, %eax
 1272 06b6 01D0     		addl	%edx, %eax
 1273 06b8 034524   		addl	36(%ebp), %eax
 1274 06bb 83C002   		addl	$2, %eax
 1275 06be 0FB600   		movzbl	(%eax), %eax
 1276 06c1 8845E8   		movb	%al, -24(%ebp)
 381:../../MMI/Resource/BMPLoader.c ****                         G = palette[color_index][1];
 1278              	LM86:
 1279 06c4 0FB655F3 		movzbl	-13(%ebp), %edx
 1280 06c8 89D0     		movl	%edx, %eax
 1281 06ca 01C0     		addl	%eax, %eax
 1282 06cc 01D0     		addl	%edx, %eax
 1283 06ce 034524   		addl	36(%ebp), %eax
 1284 06d1 40       		incl	%eax
 1285 06d2 0FB600   		movzbl	(%eax), %eax
 1286 06d5 8845E9   		movb	%al, -23(%ebp)
 382:../../MMI/Resource/BMPLoader.c ****                         R = palette[color_index][0];
 1288              	LM87:
 1289 06d8 0FB655F3 		movzbl	-13(%ebp), %edx
 1290 06dc 89D0     		movl	%edx, %eax
 1291 06de 01C0     		addl	%eax, %eax
 1292 06e0 01D0     		addl	%edx, %eax
 1293 06e2 8B5524   		movl	36(%ebp), %edx
 1294 06e5 0FB60402 		movzbl	(%edx,%eax), %eax
 1295 06e9 8845EA   		movb	%al, -22(%ebp)
 383:../../MMI/Resource/BMPLoader.c ****                         A = 255;
 1297              	LM88:
 1298 06ec C645EBFF 		movb	$-1, -21(%ebp)
 384:../../MMI/Resource/BMPLoader.c ****                         if (color_index == 0x00)
 1300              	LM89:
 1301 06f0 807DF300 		cmpb	$0, -13(%ebp)
 1302 06f4 7504     		jne	L70
 385:../../MMI/Resource/BMPLoader.c ****                         {
GAS LISTING f:/K7_TOUR/CODE/plutommi/Customer/ResGenerator/gcctmp/ccaobaaa.s 			page 21


 386:../../MMI/Resource/BMPLoader.c ****                             transparent = 1;
 1304              	LM90:
 1305 06f6 C645E701 		movb	$1, -25(%ebp)
 1306              	L70:
 387:../../MMI/Resource/BMPLoader.c ****                         }
 388:../../MMI/Resource/BMPLoader.c ****                         ret = BMP_write_color(bitmap_data+offset, A, R, G, B, dest_color_depth, tra
 1308              	LM91:
 1309 06fa 0FB645E7 		movzbl	-25(%ebp), %eax
 1310 06fe 89442418 		movl	%eax, 24(%esp)
 1311 0702 0FBE45FE 		movsbl	-2(%ebp),%eax
 1312 0706 89442414 		movl	%eax, 20(%esp)
 1313 070a 0FB645E8 		movzbl	-24(%ebp), %eax
 1314 070e 89442410 		movl	%eax, 16(%esp)
 1315 0712 0FB645E9 		movzbl	-23(%ebp), %eax
 1316 0716 8944240C 		movl	%eax, 12(%esp)
 1317 071a 0FB645EA 		movzbl	-22(%ebp), %eax
 1318 071e 89442408 		movl	%eax, 8(%esp)
 1319 0722 0FB645EB 		movzbl	-21(%ebp), %eax
 1320 0726 89442404 		movl	%eax, 4(%esp)
 1321 072a 8B45F8   		movl	-8(%ebp), %eax
 1322 072d 0345D8   		addl	-40(%ebp), %eax
 1323 0730 890424   		movl	%eax, (%esp)
 1324 0733 E8D0F9FF 		call	_BMP_write_color
 1324      FF
 1325 0738 8945D0   		movl	%eax, -48(%ebp)
 389:../../MMI/Resource/BMPLoader.c ****                         offset += ret;
 1327              	LM92:
 1328 073b 8B55D0   		movl	-48(%ebp), %edx
 1329 073e 8D45F8   		leal	-8(%ebp), %eax
 1330 0741 0110     		addl	%edx, (%eax)
 1332              	LM93:
 1333 0743 8D45DC   		leal	-36(%ebp), %eax
 1334 0746 FF00     		incl	(%eax)
 1335 0748 E924FFFF 		jmp	L65
 1335      FF
 1337              	LM94:
 1338              	L63:
 1339 074d 8D45E0   		leal	-32(%ebp), %eax
 1340 0750 FF00     		incl	(%eax)
 1341 0752 E9F5FEFF 		jmp	L61
 1341      FF
 1342              	L71:
 390:../../MMI/Resource/BMPLoader.c ****                     }
 391:../../MMI/Resource/BMPLoader.c ****                 }
 392:../../MMI/Resource/BMPLoader.c ****                 break;
 393:../../MMI/Resource/BMPLoader.c ****             case 1:
 394:../../MMI/Resource/BMPLoader.c ****                 w = (width >> 3);
 1344              	LM95:
 1345 0757 8B451C   		movl	28(%ebp), %eax
 1346 075a C1F803   		sarl	$3, %eax
 1347 075d 8945EC   		movl	%eax, -20(%ebp)
 395:../../MMI/Resource/BMPLoader.c ****                 if (width & 7)
 1349              	LM96:
 1350 0760 8B451C   		movl	28(%ebp), %eax
 1351 0763 83E007   		andl	$7, %eax
 1352 0766 85C0     		testl	%eax, %eax
 1353 0768 7405     		je	L72
GAS LISTING f:/K7_TOUR/CODE/plutommi/Customer/ResGenerator/gcctmp/ccaobaaa.s 			page 22


 396:../../MMI/Resource/BMPLoader.c ****                 {
 397:../../MMI/Resource/BMPLoader.c ****                     w++;
 1355              	LM97:
 1356 076a 8D45EC   		leal	-20(%ebp), %eax
 1357 076d FF00     		incl	(%eax)
 1358              	L72:
 398:../../MMI/Resource/BMPLoader.c ****                 }
 399:../../MMI/Resource/BMPLoader.c ****                 for (i = 0; i < w; i++)
 1360              	LM98:
 1361 076f C745E000 		movl	$0, -32(%ebp)
 1361      000000
 1362              	L73:
 1363 0776 8B45E0   		movl	-32(%ebp), %eax
 1364 0779 3B45EC   		cmpl	-20(%ebp), %eax
 1365 077c 7C05     		jl	L76
 1366 077e E91F0100 		jmp	L33
 1366      00
 1367              	L76:
 400:../../MMI/Resource/BMPLoader.c ****                 {
 401:../../MMI/Resource/BMPLoader.c ****                     data = buffer[boffset++];
 1369              	LM99:
 1370 0783 8B45F4   		movl	-12(%ebp), %eax
 1371 0786 03450C   		addl	12(%ebp), %eax
 1372 0789 0FB600   		movzbl	(%eax), %eax
 1373 078c 8845F2   		movb	%al, -14(%ebp)
 1374 078f 8D45F4   		leal	-12(%ebp), %eax
 1375 0792 FF00     		incl	(%eax)
 402:../../MMI/Resource/BMPLoader.c ****                     for (j = 0; j < 8; j++)
 1377              	LM100:
 1378 0794 C745DC00 		movl	$0, -36(%ebp)
 1378      000000
 1379              	L77:
 1380 079b 837DDC07 		cmpl	$7, -36(%ebp)
 1381 079f 7E05     		jle	L80
 1382 07a1 E9F20000 		jmp	L75
 1382      00
 1383              	L80:
 403:../../MMI/Resource/BMPLoader.c ****                     {
 404:../../MMI/Resource/BMPLoader.c ****                         if (((i << 3) + j) >= width)
 1385              	LM101:
 1386 07a6 8B45E0   		movl	-32(%ebp), %eax
 1387 07a9 C1E003   		sall	$3, %eax
 1388 07ac 0345DC   		addl	-36(%ebp), %eax
 1389 07af 3B451C   		cmpl	28(%ebp), %eax
 1390 07b2 7C05     		jl	L81
 405:../../MMI/Resource/BMPLoader.c ****                         {
 406:../../MMI/Resource/BMPLoader.c ****                             break;
 1392              	LM102:
 1393 07b4 E9DF0000 		jmp	L75
 1393      00
 1394              	L81:
 407:../../MMI/Resource/BMPLoader.c ****                         }
 408:../../MMI/Resource/BMPLoader.c ****                         if (data & (1 << (7 - j)))
 1396              	LM103:
 1397 07b9 0FB655F2 		movzbl	-14(%ebp), %edx
 1398 07bd B8070000 		movl	$7, %eax
 1398      00
GAS LISTING f:/K7_TOUR/CODE/plutommi/Customer/ResGenerator/gcctmp/ccaobaaa.s 			page 23


 1399 07c2 89C1     		movl	%eax, %ecx
 1400 07c4 2B4DDC   		subl	-36(%ebp), %ecx
 1401 07c7 89D0     		movl	%edx, %eax
 1402 07c9 D3F8     		sarl	%cl, %eax
 1403 07cb 83E001   		andl	$1, %eax
 1404 07ce 85C0     		testl	%eax, %eax
 1405 07d0 745F     		je	L82
 409:../../MMI/Resource/BMPLoader.c ****                         {
 410:../../MMI/Resource/BMPLoader.c ****                             transparent = 0;
 1407              	LM104:
 1408 07d2 C645E700 		movb	$0, -25(%ebp)
 411:../../MMI/Resource/BMPLoader.c ****                             B = 255;
 1410              	LM105:
 1411 07d6 C645E8FF 		movb	$-1, -24(%ebp)
 412:../../MMI/Resource/BMPLoader.c ****                             G = 255;
 1413              	LM106:
 1414 07da C645E9FF 		movb	$-1, -23(%ebp)
 413:../../MMI/Resource/BMPLoader.c ****                             R = 255;
 1416              	LM107:
 1417 07de C645EAFF 		movb	$-1, -22(%ebp)
 414:../../MMI/Resource/BMPLoader.c ****                             A = 255;
 1419              	LM108:
 1420 07e2 C645EBFF 		movb	$-1, -21(%ebp)
 415:../../MMI/Resource/BMPLoader.c ****                             ret = BMP_write_color(bitmap_data+offset, A, R, G, B, dest_color_depth,
 1422              	LM109:
 1423 07e6 0FB645E7 		movzbl	-25(%ebp), %eax
 1424 07ea 89442418 		movl	%eax, 24(%esp)
 1425 07ee 0FBE45FE 		movsbl	-2(%ebp),%eax
 1426 07f2 89442414 		movl	%eax, 20(%esp)
 1427 07f6 0FB645E8 		movzbl	-24(%ebp), %eax
 1428 07fa 89442410 		movl	%eax, 16(%esp)
 1429 07fe 0FB645E9 		movzbl	-23(%ebp), %eax
 1430 0802 8944240C 		movl	%eax, 12(%esp)
 1431 0806 0FB645EA 		movzbl	-22(%ebp), %eax
 1432 080a 89442408 		movl	%eax, 8(%esp)
 1433 080e 0FB645EB 		movzbl	-21(%ebp), %eax
 1434 0812 89442404 		movl	%eax, 4(%esp)
 1435 0816 8B45F8   		movl	-8(%ebp), %eax
 1436 0819 0345D8   		addl	-40(%ebp), %eax
 1437 081c 890424   		movl	%eax, (%esp)
 1438 081f E8E4F8FF 		call	_BMP_write_color
 1438      FF
 1439 0824 8945D0   		movl	%eax, -48(%ebp)
 416:../../MMI/Resource/BMPLoader.c ****                             offset += ret;
 1441              	LM110:
 1442 0827 8B55D0   		movl	-48(%ebp), %edx
 1443 082a 8D45F8   		leal	-8(%ebp), %eax
 1444 082d 0110     		addl	%edx, (%eax)
 1445 082f EB5D     		jmp	L79
 1446              	L82:
 417:../../MMI/Resource/BMPLoader.c ****                         }
 418:../../MMI/Resource/BMPLoader.c ****                         else
 419:../../MMI/Resource/BMPLoader.c ****                         {
 420:../../MMI/Resource/BMPLoader.c ****                             transparent = 0;
 1448              	LM111:
 1449 0831 C645E700 		movb	$0, -25(%ebp)
 421:../../MMI/Resource/BMPLoader.c ****                             B = 0;
GAS LISTING f:/K7_TOUR/CODE/plutommi/Customer/ResGenerator/gcctmp/ccaobaaa.s 			page 24


 1451              	LM112:
 1452 0835 C645E800 		movb	$0, -24(%ebp)
 422:../../MMI/Resource/BMPLoader.c ****                             G = 0;
 1454              	LM113:
 1455 0839 C645E900 		movb	$0, -23(%ebp)
 423:../../MMI/Resource/BMPLoader.c ****                             R = 0;
 1457              	LM114:
 1458 083d C645EA00 		movb	$0, -22(%ebp)
 424:../../MMI/Resource/BMPLoader.c ****                             A = 0;
 1460              	LM115:
 1461 0841 C645EB00 		movb	$0, -21(%ebp)
 425:../../MMI/Resource/BMPLoader.c ****                             ret = BMP_write_color(bitmap_data+offset, A, R, G, B, dest_color_depth,
 1463              	LM116:
 1464 0845 0FB645E7 		movzbl	-25(%ebp), %eax
 1465 0849 89442418 		movl	%eax, 24(%esp)
 1466 084d 0FBE45FE 		movsbl	-2(%ebp),%eax
 1467 0851 89442414 		movl	%eax, 20(%esp)
 1468 0855 0FB645E8 		movzbl	-24(%ebp), %eax
 1469 0859 89442410 		movl	%eax, 16(%esp)
 1470 085d 0FB645E9 		movzbl	-23(%ebp), %eax
 1471 0861 8944240C 		movl	%eax, 12(%esp)
 1472 0865 0FB645EA 		movzbl	-22(%ebp), %eax
 1473 0869 89442408 		movl	%eax, 8(%esp)
 1474 086d 0FB645EB 		movzbl	-21(%ebp), %eax
 1475 0871 89442404 		movl	%eax, 4(%esp)
 1476 0875 8B45F8   		movl	-8(%ebp), %eax
 1477 0878 0345D8   		addl	-40(%ebp), %eax
 1478 087b 890424   		movl	%eax, (%esp)
 1479 087e E885F8FF 		call	_BMP_write_color
 1479      FF
 1480 0883 8945D0   		movl	%eax, -48(%ebp)
 426:../../MMI/Resource/BMPLoader.c ****                             offset += ret;
 1482              	LM117:
 1483 0886 8B55D0   		movl	-48(%ebp), %edx
 1484 0889 8D45F8   		leal	-8(%ebp), %eax
 1485 088c 0110     		addl	%edx, (%eax)
 1487              	LM118:
 1488              	L79:
 1489 088e 8D45DC   		leal	-36(%ebp), %eax
 1490 0891 FF00     		incl	(%eax)
 1491 0893 E903FFFF 		jmp	L77
 1491      FF
 1493              	LM119:
 1494              	L75:
 1495 0898 8D45E0   		leal	-32(%ebp), %eax
 1496 089b FF00     		incl	(%eax)
 1497 089d E9D4FEFF 		jmp	L73
 1497      FF
 427:../../MMI/Resource/BMPLoader.c ****                         }
 428:../../MMI/Resource/BMPLoader.c ****                     }
 429:../../MMI/Resource/BMPLoader.c ****                 }
 430:../../MMI/Resource/BMPLoader.c ****                 break;
 431:../../MMI/Resource/BMPLoader.c ****         }
 432:../../MMI/Resource/BMPLoader.c ****     }
 433:../../MMI/Resource/BMPLoader.c **** }
 1499              	LM120:
 1500              	L33:
GAS LISTING f:/K7_TOUR/CODE/plutommi/Customer/ResGenerator/gcctmp/ccaobaaa.s 			page 25


 1501 08a2 C9       		leave
 1502 08a3 C3       		ret
 1503              	LBE6:
 1504              	LBE5:
 1529              	Lscope1:
 1534              	.globl _BMP_load_file_header
 1536              	_BMP_load_file_header:
 434:../../MMI/Resource/BMPLoader.c **** #endif /* (!WINGUI_DIRECT_IMAGE_DISPLAY) */ 
 435:../../MMI/Resource/BMPLoader.c **** 
 436:../../MMI/Resource/BMPLoader.c **** 
 437:../../MMI/Resource/BMPLoader.c **** /*****************************************************************************
 438:../../MMI/Resource/BMPLoader.c ****  * FUNCTION
 439:../../MMI/Resource/BMPLoader.c ****  *  BMP_load_file_header
 440:../../MMI/Resource/BMPLoader.c ****  * DESCRIPTION
 441:../../MMI/Resource/BMPLoader.c ****  *  
 442:../../MMI/Resource/BMPLoader.c ****  * PARAMETERS
 443:../../MMI/Resource/BMPLoader.c ****  *  h           [?]     
 444:../../MMI/Resource/BMPLoader.c ****  *  file        [?]     
 445:../../MMI/Resource/BMPLoader.c ****  * RETURNS
 446:../../MMI/Resource/BMPLoader.c ****  *  void
 447:../../MMI/Resource/BMPLoader.c ****  *****************************************************************************/
 448:../../MMI/Resource/BMPLoader.c **** void BMP_load_file_header(bitmap_file_header *h, bytestream *file)
 449:../../MMI/Resource/BMPLoader.c **** {
 1538              	LM121:
 1539 08a4 55       		pushl	%ebp
 1540 08a5 89E5     		movl	%esp, %ebp
 1541 08a7 53       		pushl	%ebx
 1542 08a8 83EC04   		subl	$4, %esp
 450:../../MMI/Resource/BMPLoader.c ****     /*----------------------------------------------------------------*/
 451:../../MMI/Resource/BMPLoader.c ****     /* Local Variables                                                */
 452:../../MMI/Resource/BMPLoader.c ****     /*----------------------------------------------------------------*/
 453:../../MMI/Resource/BMPLoader.c **** 
 454:../../MMI/Resource/BMPLoader.c ****     /*----------------------------------------------------------------*/
 455:../../MMI/Resource/BMPLoader.c ****     /* Code Body                                                      */
 456:../../MMI/Resource/BMPLoader.c ****     /*----------------------------------------------------------------*/
 457:../../MMI/Resource/BMPLoader.c ****     h->file_type = bytestream_fgetword(file);
 1544              	LM122:
 1545 08ab 8B5D08   		movl	8(%ebp), %ebx
 1546 08ae 8B450C   		movl	12(%ebp), %eax
 1547 08b1 890424   		movl	%eax, (%esp)
 1548 08b4 E8000000 		call	_bytestream_fgetword
 1548      00
 1549 08b9 668903   		movw	%ax, (%ebx)
 458:../../MMI/Resource/BMPLoader.c ****     h->file_size = bytestream_fgetdword(file);
 1551              	LM123:
 1552 08bc 8B5D08   		movl	8(%ebp), %ebx
 1553 08bf 8B450C   		movl	12(%ebp), %eax
 1554 08c2 890424   		movl	%eax, (%esp)
 1555 08c5 E8000000 		call	_bytestream_fgetdword
 1555      00
 1556 08ca 894304   		movl	%eax, 4(%ebx)
 459:../../MMI/Resource/BMPLoader.c ****     h->reserved1 = bytestream_fgetword(file);
 1558              	LM124:
 1559 08cd 8B5D08   		movl	8(%ebp), %ebx
 1560 08d0 8B450C   		movl	12(%ebp), %eax
 1561 08d3 890424   		movl	%eax, (%esp)
 1562 08d6 E8000000 		call	_bytestream_fgetword
GAS LISTING f:/K7_TOUR/CODE/plutommi/Customer/ResGenerator/gcctmp/ccaobaaa.s 			page 26


 1562      00
 1563 08db 66894308 		movw	%ax, 8(%ebx)
 460:../../MMI/Resource/BMPLoader.c ****     h->reserved2 = bytestream_fgetword(file);
 1565              	LM125:
 1566 08df 8B5D08   		movl	8(%ebp), %ebx
 1567 08e2 8B450C   		movl	12(%ebp), %eax
 1568 08e5 890424   		movl	%eax, (%esp)
 1569 08e8 E8000000 		call	_bytestream_fgetword
 1569      00
 1570 08ed 6689430A 		movw	%ax, 10(%ebx)
 461:../../MMI/Resource/BMPLoader.c ****     h->bitmap_offset = bytestream_fgetdword(file);
 1572              	LM126:
 1573 08f1 8B5D08   		movl	8(%ebp), %ebx
 1574 08f4 8B450C   		movl	12(%ebp), %eax
 1575 08f7 890424   		movl	%eax, (%esp)
 1576 08fa E8000000 		call	_bytestream_fgetdword
 1576      00
 1577 08ff 89430C   		movl	%eax, 12(%ebx)
 462:../../MMI/Resource/BMPLoader.c **** }
 1579              	LM127:
 1580 0902 83C404   		addl	$4, %esp
 1581 0905 5B       		popl	%ebx
 1582 0906 5D       		popl	%ebp
 1583 0907 C3       		ret
 1584              	Lscope2:
 1589              	.globl _BMP_load_info_header
 1591              	_BMP_load_info_header:
 463:../../MMI/Resource/BMPLoader.c **** 
 464:../../MMI/Resource/BMPLoader.c **** 
 465:../../MMI/Resource/BMPLoader.c **** /*****************************************************************************
 466:../../MMI/Resource/BMPLoader.c ****  * FUNCTION
 467:../../MMI/Resource/BMPLoader.c ****  *  BMP_load_info_header
 468:../../MMI/Resource/BMPLoader.c ****  * DESCRIPTION
 469:../../MMI/Resource/BMPLoader.c ****  *  
 470:../../MMI/Resource/BMPLoader.c ****  * PARAMETERS
 471:../../MMI/Resource/BMPLoader.c ****  *  h           [?]     
 472:../../MMI/Resource/BMPLoader.c ****  *  file        [?]     
 473:../../MMI/Resource/BMPLoader.c ****  * RETURNS
 474:../../MMI/Resource/BMPLoader.c ****  *  void
 475:../../MMI/Resource/BMPLoader.c ****  *****************************************************************************/
 476:../../MMI/Resource/BMPLoader.c **** void BMP_load_info_header(bitmap_info_header *h, bytestream *file)
 477:../../MMI/Resource/BMPLoader.c **** {
 1593              	LM128:
 1594 0908 55       		pushl	%ebp
 1595 0909 89E5     		movl	%esp, %ebp
 1596 090b 53       		pushl	%ebx
 1597 090c 83EC04   		subl	$4, %esp
 478:../../MMI/Resource/BMPLoader.c ****     /*----------------------------------------------------------------*/
 479:../../MMI/Resource/BMPLoader.c ****     /* Local Variables                                                */
 480:../../MMI/Resource/BMPLoader.c ****     /*----------------------------------------------------------------*/
 481:../../MMI/Resource/BMPLoader.c **** 
 482:../../MMI/Resource/BMPLoader.c ****     /*----------------------------------------------------------------*/
 483:../../MMI/Resource/BMPLoader.c ****     /* Code Body                                                      */
 484:../../MMI/Resource/BMPLoader.c ****     /*----------------------------------------------------------------*/
 485:../../MMI/Resource/BMPLoader.c ****     h->header_size = bytestream_fgetdword(file);
 1599              	LM129:
 1600 090f 8B5D08   		movl	8(%ebp), %ebx
GAS LISTING f:/K7_TOUR/CODE/plutommi/Customer/ResGenerator/gcctmp/ccaobaaa.s 			page 27


 1601 0912 8B450C   		movl	12(%ebp), %eax
 1602 0915 890424   		movl	%eax, (%esp)
 1603 0918 E8000000 		call	_bytestream_fgetdword
 1603      00
 1604 091d 8903     		movl	%eax, (%ebx)
 486:../../MMI/Resource/BMPLoader.c ****     h->width = bytestream_fgetdword(file);
 1606              	LM130:
 1607 091f 8B5D08   		movl	8(%ebp), %ebx
 1608 0922 8B450C   		movl	12(%ebp), %eax
 1609 0925 890424   		movl	%eax, (%esp)
 1610 0928 E8000000 		call	_bytestream_fgetdword
 1610      00
 1611 092d 894304   		movl	%eax, 4(%ebx)
 487:../../MMI/Resource/BMPLoader.c ****     h->height = bytestream_fgetdword(file);
 1613              	LM131:
 1614 0930 8B5D08   		movl	8(%ebp), %ebx
 1615 0933 8B450C   		movl	12(%ebp), %eax
 1616 0936 890424   		movl	%eax, (%esp)
 1617 0939 E8000000 		call	_bytestream_fgetdword
 1617      00
 1618 093e 894308   		movl	%eax, 8(%ebx)
 488:../../MMI/Resource/BMPLoader.c ****     h->number_of_colors = bytestream_fgetword(file);
 1620              	LM132:
 1621 0941 8B5D08   		movl	8(%ebp), %ebx
 1622 0944 8B450C   		movl	12(%ebp), %eax
 1623 0947 890424   		movl	%eax, (%esp)
 1624 094a E8000000 		call	_bytestream_fgetword
 1624      00
 1625 094f 0FB7C0   		movzwl	%ax, %eax
 1626 0952 894320   		movl	%eax, 32(%ebx)
 489:../../MMI/Resource/BMPLoader.c ****     h->bits_per_pixel = bytestream_fgetword(file);
 1628              	LM133:
 1629 0955 8B5D08   		movl	8(%ebp), %ebx
 1630 0958 8B450C   		movl	12(%ebp), %eax
 1631 095b 890424   		movl	%eax, (%esp)
 1632 095e E8000000 		call	_bytestream_fgetword
 1632      00
 1633 0963 6689430E 		movw	%ax, 14(%ebx)
 490:../../MMI/Resource/BMPLoader.c ****     h->compression = bytestream_fgetdword(file);
 1635              	LM134:
 1636 0967 8B5D08   		movl	8(%ebp), %ebx
 1637 096a 8B450C   		movl	12(%ebp), %eax
 1638 096d 890424   		movl	%eax, (%esp)
 1639 0970 E8000000 		call	_bytestream_fgetdword
 1639      00
 1640 0975 894310   		movl	%eax, 16(%ebx)
 491:../../MMI/Resource/BMPLoader.c ****     h->bitmap_size = bytestream_fgetdword(file);
 1642              	LM135:
 1643 0978 8B5D08   		movl	8(%ebp), %ebx
 1644 097b 8B450C   		movl	12(%ebp), %eax
 1645 097e 890424   		movl	%eax, (%esp)
 1646 0981 E8000000 		call	_bytestream_fgetdword
 1646      00
 1647 0986 894314   		movl	%eax, 20(%ebx)
 492:../../MMI/Resource/BMPLoader.c ****     h->device_width = bytestream_fgetdword(file);
 1649              	LM136:
 1650 0989 8B5D08   		movl	8(%ebp), %ebx
GAS LISTING f:/K7_TOUR/CODE/plutommi/Customer/ResGenerator/gcctmp/ccaobaaa.s 			page 28


 1651 098c 8B450C   		movl	12(%ebp), %eax
 1652 098f 890424   		movl	%eax, (%esp)
 1653 0992 E8000000 		call	_bytestream_fgetdword
 1653      00
 1654 0997 894318   		movl	%eax, 24(%ebx)
 493:../../MMI/Resource/BMPLoader.c ****     h->device_height = bytestream_fgetdword(file);
 1656              	LM137:
 1657 099a 8B5D08   		movl	8(%ebp), %ebx
 1658 099d 8B450C   		movl	12(%ebp), %eax
 1659 09a0 890424   		movl	%eax, (%esp)
 1660 09a3 E8000000 		call	_bytestream_fgetdword
 1660      00
 1661 09a8 89431C   		movl	%eax, 28(%ebx)
 494:../../MMI/Resource/BMPLoader.c ****     h->number_of_colors = bytestream_fgetdword(file);
 1663              	LM138:
 1664 09ab 8B5D08   		movl	8(%ebp), %ebx
 1665 09ae 8B450C   		movl	12(%ebp), %eax
 1666 09b1 890424   		movl	%eax, (%esp)
 1667 09b4 E8000000 		call	_bytestream_fgetdword
 1667      00
 1668 09b9 894320   		movl	%eax, 32(%ebx)
 495:../../MMI/Resource/BMPLoader.c ****     h->number_of_important_colors = bytestream_fgetdword(file);
 1670              	LM139:
 1671 09bc 8B5D08   		movl	8(%ebp), %ebx
 1672 09bf 8B450C   		movl	12(%ebp), %eax
 1673 09c2 890424   		movl	%eax, (%esp)
 1674 09c5 E8000000 		call	_bytestream_fgetdword
 1674      00
 1675 09ca 894324   		movl	%eax, 36(%ebx)
 496:../../MMI/Resource/BMPLoader.c **** }
 1677              	LM140:
 1678 09cd 83C404   		addl	$4, %esp
 1679 09d0 5B       		popl	%ebx
 1680 09d1 5D       		popl	%ebp
 1681 09d2 C3       		ret
 1682              	Lscope3:
 1689              	_BMP_load:
 497:../../MMI/Resource/BMPLoader.c **** 
 498:../../MMI/Resource/BMPLoader.c **** 
 499:../../MMI/Resource/BMPLoader.c **** #if(!WINGUI_DIRECT_IMAGE_DISPLAY)
 500:../../MMI/Resource/BMPLoader.c **** /*****************************************************************************
 501:../../MMI/Resource/BMPLoader.c ****  * FUNCTION
 502:../../MMI/Resource/BMPLoader.c ****  *  BMP_load
 503:../../MMI/Resource/BMPLoader.c ****  * DESCRIPTION
 504:../../MMI/Resource/BMPLoader.c ****  *  
 505:../../MMI/Resource/BMPLoader.c ****  * PARAMETERS
 506:../../MMI/Resource/BMPLoader.c ****  *  file            [?]         input bitmap file
 507:../../MMI/Resource/BMPLoader.c ****  *  b               [?]         output bitmap
 508:../../MMI/Resource/BMPLoader.c ****  *  color_depth     [IN]        output bitmap color depth
 509:../../MMI/Resource/BMPLoader.c ****  * RETURNS
 510:../../MMI/Resource/BMPLoader.c ****  *  
 511:../../MMI/Resource/BMPLoader.c ****  *****************************************************************************/
 512:../../MMI/Resource/BMPLoader.c **** static U8 BMP_load(bytestream *file, bitmap *b, S8 color_depth)
 513:../../MMI/Resource/BMPLoader.c **** {
 1691              	LM141:
 1692 09d3 55       		pushl	%ebp
 1693 09d4 89E5     		movl	%esp, %ebp
GAS LISTING f:/K7_TOUR/CODE/plutommi/Customer/ResGenerator/gcctmp/ccaobaaa.s 			page 29


 1694 09d6 53       		pushl	%ebx
 1695 09d7 81ECD40A 		subl	$2772, %esp
 1695      0000
 1696 09dd 8B4510   		movl	16(%ebp), %eax
 1697 09e0 8845F7   		movb	%al, -9(%ebp)
 514:../../MMI/Resource/BMPLoader.c ****     /*----------------------------------------------------------------*/
 515:../../MMI/Resource/BMPLoader.c ****     /* Local Variables                                                */
 516:../../MMI/Resource/BMPLoader.c ****     /*----------------------------------------------------------------*/
 517:../../MMI/Resource/BMPLoader.c ****     bitmap_file_header file_header;
 518:../../MMI/Resource/BMPLoader.c ****     bitmap_info_header info_header;
 519:../../MMI/Resource/BMPLoader.c ****     S32 ncolors, i, j, width, height;
 520:../../MMI/Resource/BMPLoader.c ****     S32 bitmap_size, row_bytes, used_row_bytes, total_bits;
 521:../../MMI/Resource/BMPLoader.c ****     S32 dest_row_bytes = 0;
 1699              	LM142:
 1700              	LBB8:
 1701 09e3 C7458000 		movl	$0, -128(%ebp)
 1701      000000
 522:../../MMI/Resource/BMPLoader.c ****     U8 *buffer;
 523:../../MMI/Resource/BMPLoader.c ****     U8 palette[256][3];
 524:../../MMI/Resource/BMPLoader.c ****     U32 image_static_row_data[(IMAGE_STATIC_ROW_DATA_SIZE + 3) / 4];   /* Made image_static_row_dat
 525:../../MMI/Resource/BMPLoader.c ****     U32 image_static_palette[(IMAGE_STATIC_PALETTE_SIZE + 3) / 4];
 526:../../MMI/Resource/BMPLoader.c **** 
 527:../../MMI/Resource/BMPLoader.c ****     /*----------------------------------------------------------------*/
 528:../../MMI/Resource/BMPLoader.c ****     /* Code Body                                                      */
 529:../../MMI/Resource/BMPLoader.c ****     /*----------------------------------------------------------------*/
 530:../../MMI/Resource/BMPLoader.c ****     BMP_load_file_header(&file_header, file);
 1703              	LM143:
 1704 09ea 8B4508   		movl	8(%ebp), %eax
 1705 09ed 89442404 		movl	%eax, 4(%esp)
 1706 09f1 8D45D8   		leal	-40(%ebp), %eax
 1707 09f4 890424   		movl	%eax, (%esp)
 1708 09f7 E8A8FEFF 		call	_BMP_load_file_header
 1708      FF
 531:../../MMI/Resource/BMPLoader.c ****     if (((file_header.file_type & 0xff) != 'B') &&
 1710              	LM144:
 1711 09fc 0FB745D8 		movzwl	-40(%ebp), %eax
 1712 0a00 25FF0000 		andl	$255, %eax
 1712      00
 1713 0a05 83F842   		cmpl	$66, %eax
 1714 0a08 741C     		je	L89
 1715 0a0a 0FB745D8 		movzwl	-40(%ebp), %eax
 1716 0a0e C1E808   		shrl	$8, %eax
 1717 0a11 6683F84D 		cmpw	$77, %ax
 1718 0a15 740F     		je	L89
 532:../../MMI/Resource/BMPLoader.c ****         ((file_header.file_type >> 8) != 'M'))
 533:../../MMI/Resource/BMPLoader.c ****     {
 534:../../MMI/Resource/BMPLoader.c ****         return (0);
 1720              	LM145:
 1721 0a17 C78574F5 		movl	$0, -2700(%ebp)
 1721      FFFF0000 
 1721      0000
 1722 0a21 E9D20300 		jmp	L88
 1722      00
 1723              	L89:
 535:../../MMI/Resource/BMPLoader.c ****     }
 536:../../MMI/Resource/BMPLoader.c ****     
 537:../../MMI/Resource/BMPLoader.c ****     BMP_load_info_header(&info_header, file);
GAS LISTING f:/K7_TOUR/CODE/plutommi/Customer/ResGenerator/gcctmp/ccaobaaa.s 			page 30


 1725              	LM146:
 1726 0a26 8B4508   		movl	8(%ebp), %eax
 1727 0a29 89442404 		movl	%eax, 4(%esp)
 1728 0a2d 8D45A8   		leal	-88(%ebp), %eax
 1729 0a30 890424   		movl	%eax, (%esp)
 1730 0a33 E8D0FEFF 		call	_BMP_load_info_header
 1730      FF
 538:../../MMI/Resource/BMPLoader.c ****     /* info_header.bits_per_pixel; */
 539:../../MMI/Resource/BMPLoader.c ****     width = info_header.width;
 1732              	LM147:
 1733 0a38 8B45AC   		movl	-84(%ebp), %eax
 1734 0a3b 894598   		movl	%eax, -104(%ebp)
 540:../../MMI/Resource/BMPLoader.c ****     height = info_header.height;
 1736              	LM148:
 1737 0a3e 8B45B0   		movl	-80(%ebp), %eax
 1738 0a41 894594   		movl	%eax, -108(%ebp)
 541:../../MMI/Resource/BMPLoader.c ****     ncolors = 1 << info_header.bits_per_pixel;
 1740              	LM149:
 1741 0a44 0FB74DB6 		movzwl	-74(%ebp), %ecx
 1742 0a48 B8010000 		movl	$1, %eax
 1742      00
 1743 0a4d D3E0     		sall	%cl, %eax
 1744 0a4f 8945A4   		movl	%eax, -92(%ebp)
 542:../../MMI/Resource/BMPLoader.c ****     if (info_header.bits_per_pixel == 24)
 1746              	LM150:
 1747 0a52 66837DB6 		cmpw	$24, -74(%ebp)
 1747      18
 1748 0a57 7512     		jne	L90
 543:../../MMI/Resource/BMPLoader.c ****     {
 544:../../MMI/Resource/BMPLoader.c ****         used_row_bytes = width * 3;
 1750              	LM151:
 1751 0a59 8B4598   		movl	-104(%ebp), %eax
 1752 0a5c 89C2     		movl	%eax, %edx
 1753 0a5e 01D2     		addl	%edx, %edx
 1754 0a60 8D0410   		leal	(%eax,%edx), %eax
 1755 0a63 894588   		movl	%eax, -120(%ebp)
 1756 0a66 E9980000 		jmp	L91
 1756      00
 1757              	L90:
 545:../../MMI/Resource/BMPLoader.c ****     }
 546:../../MMI/Resource/BMPLoader.c ****     else if (info_header.bits_per_pixel == 32)
 1759              	LM152:
 1760 0a6b 66837DB6 		cmpw	$32, -74(%ebp)
 1760      20
 1761 0a70 750E     		jne	L92
 547:../../MMI/Resource/BMPLoader.c ****     {
 548:../../MMI/Resource/BMPLoader.c ****         used_row_bytes = width * 4;
 1763              	LM153:
 1764 0a72 8B4598   		movl	-104(%ebp), %eax
 1765 0a75 C1E002   		sall	$2, %eax
 1766 0a78 894588   		movl	%eax, -120(%ebp)
 1767 0a7b E9830000 		jmp	L91
 1767      00
 1768              	L92:
 549:../../MMI/Resource/BMPLoader.c ****     }
 550:../../MMI/Resource/BMPLoader.c ****     else if (info_header.bits_per_pixel == 16)
 1770              	LM154:
GAS LISTING f:/K7_TOUR/CODE/plutommi/Customer/ResGenerator/gcctmp/ccaobaaa.s 			page 31


 1771 0a80 66837DB6 		cmpw	$16, -74(%ebp)
 1771      10
 1772 0a85 750A     		jne	L94
 551:../../MMI/Resource/BMPLoader.c ****     {
 552:../../MMI/Resource/BMPLoader.c ****         used_row_bytes = width * 2;
 1774              	LM155:
 1775 0a87 8B4598   		movl	-104(%ebp), %eax
 1776 0a8a 01C0     		addl	%eax, %eax
 1777 0a8c 894588   		movl	%eax, -120(%ebp)
 1778 0a8f EB72     		jmp	L91
 1779              	L94:
 553:../../MMI/Resource/BMPLoader.c ****     }
 554:../../MMI/Resource/BMPLoader.c ****     else if (info_header.bits_per_pixel <= 8)
 1781              	LM156:
 1782 0a91 66837DB6 		cmpw	$8, -74(%ebp)
 1782      08
 1783 0a96 775C     		ja	L96
 555:../../MMI/Resource/BMPLoader.c ****     {
 556:../../MMI/Resource/BMPLoader.c ****         total_bits = width * info_header.bits_per_pixel;
 1785              	LM157:
 1786 0a98 0FB755B6 		movzwl	-74(%ebp), %edx
 1787 0a9c 8B4598   		movl	-104(%ebp), %eax
 1788 0a9f 0FAFC2   		imull	%edx, %eax
 1789 0aa2 894584   		movl	%eax, -124(%ebp)
 557:../../MMI/Resource/BMPLoader.c ****         used_row_bytes = total_bits >> 3;   /* total_bits/8 */
 1791              	LM158:
 1792 0aa5 8B4584   		movl	-124(%ebp), %eax
 1793 0aa8 C1F803   		sarl	$3, %eax
 1794 0aab 894588   		movl	%eax, -120(%ebp)
 558:../../MMI/Resource/BMPLoader.c ****         if ((total_bits % 8) > 0)
 1796              	LM159:
 1797 0aae 8B4584   		movl	-124(%ebp), %eax
 1798 0ab1 898570F5 		movl	%eax, -2704(%ebp)
 1798      FFFF
 1799 0ab7 8B9570F5 		movl	-2704(%ebp), %edx
 1799      FFFF
 1800 0abd 89956CF5 		movl	%edx, -2708(%ebp)
 1800      FFFF
 1801 0ac3 83BD6CF5 		cmpl	$0, -2708(%ebp)
 1801      FFFF00
 1802 0aca 7907     		jns	L98
 1803 0acc 83856CF5 		addl	$7, -2708(%ebp)
 1803      FFFF07
 1804              	L98:
 1805 0ad3 8B856CF5 		movl	-2708(%ebp), %eax
 1805      FFFF
 1806 0ad9 C1F803   		sarl	$3, %eax
 1807 0adc C1E003   		sall	$3, %eax
 1808 0adf 8B8D70F5 		movl	-2704(%ebp), %ecx
 1808      FFFF
 1809 0ae5 29C1     		subl	%eax, %ecx
 1810 0ae7 89C8     		movl	%ecx, %eax
 1811 0ae9 85C0     		testl	%eax, %eax
 1812 0aeb 7E16     		jle	L91
 559:../../MMI/Resource/BMPLoader.c ****         {
 560:../../MMI/Resource/BMPLoader.c ****             used_row_bytes += 1;    /* total_bits%8 */
 1814              	LM160:
GAS LISTING f:/K7_TOUR/CODE/plutommi/Customer/ResGenerator/gcctmp/ccaobaaa.s 			page 32


 1815 0aed 8D4588   		leal	-120(%ebp), %eax
 1816 0af0 FF00     		incl	(%eax)
 1817 0af2 EB0F     		jmp	L91
 1818              	L96:
 561:../../MMI/Resource/BMPLoader.c ****         }
 562:../../MMI/Resource/BMPLoader.c ****     }
 563:../../MMI/Resource/BMPLoader.c ****     else
 564:../../MMI/Resource/BMPLoader.c ****     {
 565:../../MMI/Resource/BMPLoader.c ****         return (0);
 1820              	LM161:
 1821 0af4 C78574F5 		movl	$0, -2700(%ebp)
 1821      FFFF0000 
 1821      0000
 1822 0afe E9F50200 		jmp	L88
 1822      00
 1823              	L91:
 566:../../MMI/Resource/BMPLoader.c ****     }
 567:../../MMI/Resource/BMPLoader.c ****     
 568:../../MMI/Resource/BMPLoader.c ****     if ((used_row_bytes % 4) > 0)
 1825              	LM162:
 1826 0b03 8B4588   		movl	-120(%ebp), %eax
 1827 0b06 898568F5 		movl	%eax, -2712(%ebp)
 1827      FFFF
 1828 0b0c 8B9568F5 		movl	-2712(%ebp), %edx
 1828      FFFF
 1829 0b12 899564F5 		movl	%edx, -2716(%ebp)
 1829      FFFF
 1830 0b18 83BD64F5 		cmpl	$0, -2716(%ebp)
 1830      FFFF00
 1831 0b1f 7907     		jns	L101
 1832 0b21 838564F5 		addl	$3, -2716(%ebp)
 1832      FFFF03
 1833              	L101:
 1834 0b28 8B8564F5 		movl	-2716(%ebp), %eax
 1834      FFFF
 1835 0b2e C1F802   		sarl	$2, %eax
 1836 0b31 C1E002   		sall	$2, %eax
 1837 0b34 8B8D68F5 		movl	-2712(%ebp), %ecx
 1837      FFFF
 1838 0b3a 29C1     		subl	%eax, %ecx
 1839 0b3c 89C8     		movl	%ecx, %eax
 1840 0b3e 85C0     		testl	%eax, %eax
 1841 0b40 7E46     		jle	L100
 569:../../MMI/Resource/BMPLoader.c ****     {
 570:../../MMI/Resource/BMPLoader.c ****         row_bytes = used_row_bytes + (4 - (used_row_bytes % 4));
 1843              	LM163:
 1844 0b42 8B4588   		movl	-120(%ebp), %eax
 1845 0b45 898560F5 		movl	%eax, -2720(%ebp)
 1845      FFFF
 1846 0b4b 8B9560F5 		movl	-2720(%ebp), %edx
 1846      FFFF
 1847 0b51 89955CF5 		movl	%edx, -2724(%ebp)
 1847      FFFF
 1848 0b57 83BD5CF5 		cmpl	$0, -2724(%ebp)
 1848      FFFF00
 1849 0b5e 7907     		jns	L102
 1850 0b60 83855CF5 		addl	$3, -2724(%ebp)
GAS LISTING f:/K7_TOUR/CODE/plutommi/Customer/ResGenerator/gcctmp/ccaobaaa.s 			page 33


 1850      FFFF03
 1851              	L102:
 1852 0b67 8B855CF5 		movl	-2724(%ebp), %eax
 1852      FFFF
 1853 0b6d C1F802   		sarl	$2, %eax
 1854 0b70 C1E002   		sall	$2, %eax
 1855 0b73 8B9560F5 		movl	-2720(%ebp), %edx
 1855      FFFF
 1856 0b79 29C2     		subl	%eax, %edx
 1857 0b7b 8B4588   		movl	-120(%ebp), %eax
 1858 0b7e 29D0     		subl	%edx, %eax
 1859 0b80 83C004   		addl	$4, %eax
 1860 0b83 89458C   		movl	%eax, -116(%ebp)
 1861 0b86 EB06     		jmp	L103
 1862              	L100:
 571:../../MMI/Resource/BMPLoader.c ****     }
 572:../../MMI/Resource/BMPLoader.c ****     else
 573:../../MMI/Resource/BMPLoader.c ****     {
 574:../../MMI/Resource/BMPLoader.c ****         row_bytes = used_row_bytes;
 1864              	LM164:
 1865 0b88 8B4588   		movl	-120(%ebp), %eax
 1866 0b8b 89458C   		movl	%eax, -116(%ebp)
 1867              	L103:
 575:../../MMI/Resource/BMPLoader.c ****     }
 576:../../MMI/Resource/BMPLoader.c ****     
 577:../../MMI/Resource/BMPLoader.c ****     if (color_depth <= 8)
 1869              	LM165:
 1870 0b8e 807DF708 		cmpb	$8, -9(%ebp)
 1871 0b92 7F70     		jg	L104
 578:../../MMI/Resource/BMPLoader.c ****     {
 579:../../MMI/Resource/BMPLoader.c ****         dest_row_bytes = width / (8 / color_depth);
 1873              	LM166:
 1874 0b94 0FBE4DF7 		movsbl	-9(%ebp),%ecx
 1875 0b98 898D54F5 		movl	%ecx, -2732(%ebp)
 1875      FFFF
 1876 0b9e C78550F5 		movl	$8, -2736(%ebp)
 1876      FFFF0800 
 1876      0000
 1877 0ba8 8B8550F5 		movl	-2736(%ebp), %eax
 1877      FFFF
 1878 0bae 99       		cltd
 1879 0baf F7BD54F5 		idivl	-2732(%ebp)
 1879      FFFF
 1880 0bb5 898554F5 		movl	%eax, -2732(%ebp)
 1880      FFFF
 1881 0bbb 8B4598   		movl	-104(%ebp), %eax
 1882 0bbe 99       		cltd
 1883 0bbf F7BD54F5 		idivl	-2732(%ebp)
 1883      FFFF
 1884 0bc5 894580   		movl	%eax, -128(%ebp)
 580:../../MMI/Resource/BMPLoader.c ****         if ((width % (8 / color_depth)) > 0)
 1886              	LM167:
 1887 0bc8 0FBE4DF7 		movsbl	-9(%ebp),%ecx
 1888 0bcc 898D54F5 		movl	%ecx, -2732(%ebp)
 1888      FFFF
 1889 0bd2 C78550F5 		movl	$8, -2736(%ebp)
 1889      FFFF0800 
GAS LISTING f:/K7_TOUR/CODE/plutommi/Customer/ResGenerator/gcctmp/ccaobaaa.s 			page 34


 1889      0000
 1890 0bdc 8B8550F5 		movl	-2736(%ebp), %eax
 1890      FFFF
 1891 0be2 99       		cltd
 1892 0be3 F7BD54F5 		idivl	-2732(%ebp)
 1892      FFFF
 1893 0be9 898554F5 		movl	%eax, -2732(%ebp)
 1893      FFFF
 1894 0bef 8B4598   		movl	-104(%ebp), %eax
 1895 0bf2 99       		cltd
 1896 0bf3 F7BD54F5 		idivl	-2732(%ebp)
 1896      FFFF
 1897 0bf9 85D2     		testl	%edx, %edx
 1898 0bfb 7E43     		jle	L106
 581:../../MMI/Resource/BMPLoader.c ****         {
 582:../../MMI/Resource/BMPLoader.c ****             dest_row_bytes++;
 1900              	LM168:
 1901 0bfd 8D4580   		leal	-128(%ebp), %eax
 1902 0c00 FF00     		incl	(%eax)
 1903 0c02 EB3C     		jmp	L106
 1904              	L104:
 583:../../MMI/Resource/BMPLoader.c ****         }
 584:../../MMI/Resource/BMPLoader.c ****     }
 585:../../MMI/Resource/BMPLoader.c ****     else
 586:../../MMI/Resource/BMPLoader.c ****     {
 587:../../MMI/Resource/BMPLoader.c ****         if (color_depth == 24)
 1906              	LM169:
 1907 0c04 807DF718 		cmpb	$24, -9(%ebp)
 1908 0c08 750F     		jne	L107
 588:../../MMI/Resource/BMPLoader.c ****         {
 589:../../MMI/Resource/BMPLoader.c ****             dest_row_bytes = width * 3;
 1910              	LM170:
 1911 0c0a 8B4598   		movl	-104(%ebp), %eax
 1912 0c0d 89C2     		movl	%eax, %edx
 1913 0c0f 01D2     		addl	%edx, %edx
 1914 0c11 8D0410   		leal	(%eax,%edx), %eax
 1915 0c14 894580   		movl	%eax, -128(%ebp)
 1916 0c17 EB27     		jmp	L106
 1917              	L107:
 590:../../MMI/Resource/BMPLoader.c ****         }
 591:../../MMI/Resource/BMPLoader.c ****         else if (color_depth == 32)
 1919              	LM171:
 1920 0c19 807DF720 		cmpb	$32, -9(%ebp)
 1921 0c1d 750B     		jne	L109
 592:../../MMI/Resource/BMPLoader.c ****         {
 593:../../MMI/Resource/BMPLoader.c ****             dest_row_bytes = width * 4;
 1923              	LM172:
 1924 0c1f 8B4598   		movl	-104(%ebp), %eax
 1925 0c22 C1E002   		sall	$2, %eax
 1926 0c25 894580   		movl	%eax, -128(%ebp)
 1927 0c28 EB16     		jmp	L106
 1928              	L109:
 594:../../MMI/Resource/BMPLoader.c ****         }
 595:../../MMI/Resource/BMPLoader.c ****         else if ((color_depth == 12) || (color_depth == 16))
 1930              	LM173:
 1931 0c2a 807DF70C 		cmpb	$12, -9(%ebp)
 1932 0c2e 7408     		je	L112
GAS LISTING f:/K7_TOUR/CODE/plutommi/Customer/ResGenerator/gcctmp/ccaobaaa.s 			page 35


 1933 0c30 807DF710 		cmpb	$16, -9(%ebp)
 1934 0c34 7402     		je	L112
 1935 0c36 EB08     		jmp	L106
 1936              	L112:
 596:../../MMI/Resource/BMPLoader.c ****         {
 597:../../MMI/Resource/BMPLoader.c ****             dest_row_bytes = width * 2;
 1938              	LM174:
 1939 0c38 8B4598   		movl	-104(%ebp), %eax
 1940 0c3b 01C0     		addl	%eax, %eax
 1941 0c3d 894580   		movl	%eax, -128(%ebp)
 1942              	L106:
 598:../../MMI/Resource/BMPLoader.c ****         }
 599:../../MMI/Resource/BMPLoader.c ****     }
 600:../../MMI/Resource/BMPLoader.c ****     
 601:../../MMI/Resource/BMPLoader.c ****     bitmap_size = dest_row_bytes * height;
 1944              	LM175:
 1945 0c40 8B4580   		movl	-128(%ebp), %eax
 1946 0c43 0FAF4594 		imull	-108(%ebp), %eax
 1947 0c47 894590   		movl	%eax, -112(%ebp)
 602:../../MMI/Resource/BMPLoader.c ****     b->xsize = width;
 1949              	LM176:
 1950 0c4a 8B550C   		movl	12(%ebp), %edx
 1951 0c4d 8B4598   		movl	-104(%ebp), %eax
 1952 0c50 8902     		movl	%eax, (%edx)
 603:../../MMI/Resource/BMPLoader.c ****     b->ysize = height;
 1954              	LM177:
 1955 0c52 8B550C   		movl	12(%ebp), %edx
 1956 0c55 8B4594   		movl	-108(%ebp), %eax
 1957 0c58 894204   		movl	%eax, 4(%edx)
 604:../../MMI/Resource/BMPLoader.c ****     b->color_depth = color_depth;
 1959              	LM178:
 1960 0c5b 8B550C   		movl	12(%ebp), %edx
 1961 0c5e 0FB645F7 		movzbl	-9(%ebp), %eax
 1962 0c62 884208   		movb	%al, 8(%edx)
 605:../../MMI/Resource/BMPLoader.c ****     b->row_bytes = dest_row_bytes;
 1964              	LM179:
 1965 0c65 8B550C   		movl	12(%ebp), %edx
 1966 0c68 8B4580   		movl	-128(%ebp), %eax
 1967 0c6b 89420C   		movl	%eax, 12(%edx)
 606:../../MMI/Resource/BMPLoader.c ****     
 607:../../MMI/Resource/BMPLoader.c ****     if (color_depth <= 8)
 1969              	LM180:
 1970 0c6e 807DF708 		cmpb	$8, -9(%ebp)
 1971 0c72 7F2C     		jg	L113
 608:../../MMI/Resource/BMPLoader.c ****     {
 609:../../MMI/Resource/BMPLoader.c ****         // initial image_static_palette
 610:../../MMI/Resource/BMPLoader.c ****         memset(image_static_palette, 0, (IMAGE_STATIC_PALETTE_SIZE + 3) / 4 * 4);
 1973              	LM181:
 1974 0c74 C7442408 		movl	$768, 8(%esp)
 1974      00030000 
 1975 0c7c C7442404 		movl	$0, 4(%esp)
 1975      00000000 
 1976 0c84 8D8578F5 		leal	-2696(%ebp), %eax
 1976      FFFF
 1977 0c8a 890424   		movl	%eax, (%esp)
 1978 0c8d E8000000 		call	_memset
 1978      00
GAS LISTING f:/K7_TOUR/CODE/plutommi/Customer/ResGenerator/gcctmp/ccaobaaa.s 			page 36


 611:../../MMI/Resource/BMPLoader.c ****         b->palette = (U8*) image_static_palette;
 1980              	LM182:
 1981 0c92 8B550C   		movl	12(%ebp), %edx
 1982 0c95 8D8578F5 		leal	-2696(%ebp), %eax
 1982      FFFF
 1983 0c9b 894210   		movl	%eax, 16(%edx)
 1984 0c9e EB0A     		jmp	L114
 1985              	L113:
 612:../../MMI/Resource/BMPLoader.c ****     }
 613:../../MMI/Resource/BMPLoader.c ****     else
 614:../../MMI/Resource/BMPLoader.c ****     {
 615:../../MMI/Resource/BMPLoader.c ****         b->palette = NULL;
 1987              	LM183:
 1988 0ca0 8B450C   		movl	12(%ebp), %eax
 1989 0ca3 C7401000 		movl	$0, 16(%eax)
 1989      000000
 1990              	L114:
 616:../../MMI/Resource/BMPLoader.c ****     }
 617:../../MMI/Resource/BMPLoader.c ****     
 618:../../MMI/Resource/BMPLoader.c ****     if (info_header.bits_per_pixel <= 8)
 1992              	LM184:
 1993 0caa 66837DB6 		cmpw	$8, -74(%ebp)
 1993      08
 1994 0caf 0F878600 		ja	L115
 1994      0000
 619:../../MMI/Resource/BMPLoader.c ****     {
 620:../../MMI/Resource/BMPLoader.c ****         for (i = 0; i < ncolors; i++)
 1996              	LM185:
 1997 0cb5 C745A000 		movl	$0, -96(%ebp)
 1997      000000
 1998              	L116:
 1999 0cbc 8B45A0   		movl	-96(%ebp), %eax
 2000 0cbf 3B45A4   		cmpl	-92(%ebp), %eax
 2001 0cc2 7C02     		jl	L119
 2002 0cc4 EB75     		jmp	L115
 2003              	L119:
 621:../../MMI/Resource/BMPLoader.c ****         {
 622:../../MMI/Resource/BMPLoader.c ****             palette[i][2] = bytestream_fgetbyte(file);
 2005              	LM186:
 2006 0cc6 8B55A0   		movl	-96(%ebp), %edx
 2007 0cc9 89D0     		movl	%edx, %eax
 2008 0ccb 01C0     		addl	%eax, %eax
 2009 0ccd 01D0     		addl	%edx, %eax
 2010 0ccf 8D4DF8   		leal	-8(%ebp), %ecx
 2011 0cd2 01C8     		addl	%ecx, %eax
 2012 0cd4 8D9882FC 		leal	-894(%eax), %ebx
 2012      FFFF
 2013 0cda 8B4508   		movl	8(%ebp), %eax
 2014 0cdd 890424   		movl	%eax, (%esp)
 2015 0ce0 E8000000 		call	_bytestream_fgetbyte
 2015      00
 2016 0ce5 8803     		movb	%al, (%ebx)
 623:../../MMI/Resource/BMPLoader.c ****             palette[i][1] = bytestream_fgetbyte(file);
 2018              	LM187:
 2019 0ce7 8B55A0   		movl	-96(%ebp), %edx
 2020 0cea 89D0     		movl	%edx, %eax
 2021 0cec 01C0     		addl	%eax, %eax
GAS LISTING f:/K7_TOUR/CODE/plutommi/Customer/ResGenerator/gcctmp/ccaobaaa.s 			page 37


 2022 0cee 01D0     		addl	%edx, %eax
 2023 0cf0 8D55F8   		leal	-8(%ebp), %edx
 2024 0cf3 01D0     		addl	%edx, %eax
 2025 0cf5 8D9881FC 		leal	-895(%eax), %ebx
 2025      FFFF
 2026 0cfb 8B4508   		movl	8(%ebp), %eax
 2027 0cfe 890424   		movl	%eax, (%esp)
 2028 0d01 E8000000 		call	_bytestream_fgetbyte
 2028      00
 2029 0d06 8803     		movb	%al, (%ebx)
 624:../../MMI/Resource/BMPLoader.c ****             palette[i][0] = bytestream_fgetbyte(file);
 2031              	LM188:
 2032 0d08 8B55A0   		movl	-96(%ebp), %edx
 2033 0d0b 89D0     		movl	%edx, %eax
 2034 0d0d 01C0     		addl	%eax, %eax
 2035 0d0f 01D0     		addl	%edx, %eax
 2036 0d11 8D4DF8   		leal	-8(%ebp), %ecx
 2037 0d14 01C8     		addl	%ecx, %eax
 2038 0d16 8D9880FC 		leal	-896(%eax), %ebx
 2038      FFFF
 2039 0d1c 8B4508   		movl	8(%ebp), %eax
 2040 0d1f 890424   		movl	%eax, (%esp)
 2041 0d22 E8000000 		call	_bytestream_fgetbyte
 2041      00
 2042 0d27 8803     		movb	%al, (%ebx)
 625:../../MMI/Resource/BMPLoader.c ****             bytestream_fgetbyte(file);
 2044              	LM189:
 2045 0d29 8B4508   		movl	8(%ebp), %eax
 2046 0d2c 890424   		movl	%eax, (%esp)
 2047 0d2f E8000000 		call	_bytestream_fgetbyte
 2047      00
 2049              	LM190:
 2050 0d34 8D45A0   		leal	-96(%ebp), %eax
 2051 0d37 FF00     		incl	(%eax)
 2052 0d39 EB81     		jmp	L116
 2053              	L115:
 626:../../MMI/Resource/BMPLoader.c ****         }
 627:../../MMI/Resource/BMPLoader.c ****     }
 628:../../MMI/Resource/BMPLoader.c ****     
 629:../../MMI/Resource/BMPLoader.c ****     bytestream_fseek(file, file_header.bitmap_offset, SEEK_SET);
 2055              	LM191:
 2056 0d3b C7442408 		movl	$0, 8(%esp)
 2056      00000000 
 2057 0d43 8B45E4   		movl	-28(%ebp), %eax
 2058 0d46 89442404 		movl	%eax, 4(%esp)
 2059 0d4a 8B4508   		movl	8(%ebp), %eax
 2060 0d4d 890424   		movl	%eax, (%esp)
 2061 0d50 E8000000 		call	_bytestream_fseek
 2061      00
 630:../../MMI/Resource/BMPLoader.c ****     buffer = (U8*) image_static_row_data;
 2063              	LM192:
 2064 0d55 8D8578F8 		leal	-1928(%ebp), %eax
 2064      FFFF
 2065 0d5b 89857CFF 		movl	%eax, -132(%ebp)
 2065      FFFF
 631:../../MMI/Resource/BMPLoader.c ****     for (j = height - 1; j >= 0; j--)
 2067              	LM193:
GAS LISTING f:/K7_TOUR/CODE/plutommi/Customer/ResGenerator/gcctmp/ccaobaaa.s 			page 38


 2068 0d61 8B4594   		movl	-108(%ebp), %eax
 2069 0d64 48       		decl	%eax
 2070 0d65 89459C   		movl	%eax, -100(%ebp)
 2071              	L120:
 2072 0d68 837D9C00 		cmpl	$0, -100(%ebp)
 2073 0d6c 7902     		jns	L123
 2074 0d6e EB7E     		jmp	L121
 2075              	L123:
 632:../../MMI/Resource/BMPLoader.c ****     {
 633:../../MMI/Resource/BMPLoader.c ****         for (i = 0; i < row_bytes; i++)
 2077              	LM194:
 2078 0d70 C745A000 		movl	$0, -96(%ebp)
 2078      000000
 2079              	L124:
 2080 0d77 8B45A0   		movl	-96(%ebp), %eax
 2081 0d7a 3B458C   		cmpl	-116(%ebp), %eax
 2082 0d7d 7C02     		jl	L127
 2083 0d7f EB1F     		jmp	L125
 2084              	L127:
 634:../../MMI/Resource/BMPLoader.c ****         {
 635:../../MMI/Resource/BMPLoader.c ****             buffer[i] = bytestream_fgetbyte(file);
 2086              	LM195:
 2087 0d81 8B4508   		movl	8(%ebp), %eax
 2088 0d84 890424   		movl	%eax, (%esp)
 2089 0d87 E8000000 		call	_bytestream_fgetbyte
 2089      00
 2090 0d8c 88C2     		movb	%al, %dl
 2091 0d8e 8B45A0   		movl	-96(%ebp), %eax
 2092 0d91 03857CFF 		addl	-132(%ebp), %eax
 2092      FFFF
 2093 0d97 8810     		movb	%dl, (%eax)
 2095              	LM196:
 2096 0d99 8D45A0   		leal	-96(%ebp), %eax
 2097 0d9c FF00     		incl	(%eax)
 2098 0d9e EBD7     		jmp	L124
 2099              	L125:
 636:../../MMI/Resource/BMPLoader.c ****         }
 637:../../MMI/Resource/BMPLoader.c ****         BMP_write_line(b, buffer, row_bytes, (S8) info_header.bits_per_pixel, color_depth, width, j
 2101              	LM197:
 2102 0da0 8D8578FC 		leal	-904(%ebp), %eax
 2102      FFFF
 2103 0da6 8944241C 		movl	%eax, 28(%esp)
 2104 0daa 8B459C   		movl	-100(%ebp), %eax
 2105 0dad 89442418 		movl	%eax, 24(%esp)
 2106 0db1 8B4598   		movl	-104(%ebp), %eax
 2107 0db4 89442414 		movl	%eax, 20(%esp)
 2108 0db8 0FBE45F7 		movsbl	-9(%ebp),%eax
 2109 0dbc 89442410 		movl	%eax, 16(%esp)
 2110 0dc0 0FBE45B6 		movsbl	-74(%ebp),%eax
 2111 0dc4 8944240C 		movl	%eax, 12(%esp)
 2112 0dc8 8B458C   		movl	-116(%ebp), %eax
 2113 0dcb 89442408 		movl	%eax, 8(%esp)
 2114 0dcf 8B857CFF 		movl	-132(%ebp), %eax
 2114      FFFF
 2115 0dd5 89442404 		movl	%eax, 4(%esp)
 2116 0dd9 8B450C   		movl	12(%ebp), %eax
 2117 0ddc 890424   		movl	%eax, (%esp)
GAS LISTING f:/K7_TOUR/CODE/plutommi/Customer/ResGenerator/gcctmp/ccaobaaa.s 			page 39


 2118 0ddf E85FF4FF 		call	_BMP_write_line
 2118      FF
 2120              	LM198:
 2121 0de4 8D459C   		leal	-100(%ebp), %eax
 2122 0de7 FF08     		decl	(%eax)
 2123 0de9 E97AFFFF 		jmp	L120
 2123      FF
 2124              	L121:
 638:../../MMI/Resource/BMPLoader.c ****     }
 639:../../MMI/Resource/BMPLoader.c ****     return (1);
 2126              	LM199:
 2127 0dee C78574F5 		movl	$1, -2700(%ebp)
 2127      FFFF0100 
 2127      0000
 640:../../MMI/Resource/BMPLoader.c **** }
 2129              	LM200:
 2130              	L88:
 2131              	LBE8:
 2132 0df8 8B8574F5 		movl	-2700(%ebp), %eax
 2132      FFFF
 2133 0dfe 81C4D40A 		addl	$2772, %esp
 2133      0000
 2134 0e04 5B       		popl	%ebx
 2135 0e05 5D       		popl	%ebp
 2136 0e06 C3       		ret
 2156              	Lscope4:
 2158              	LC21:
 2159 0e07 726200   		.ascii "rb\0"
 2160              	LC22:
 2161 0e0a 0A457272 		.ascii "\12Err opening %s\0"
 2161      206F7065 
 2161      6E696E67 
 2161      20257300 
 2162              	LC23:
 2163 0e1a 424D504C 		.ascii "BMPLOADER\0"
 2163      4F414445 
 2163      5200
 2164              	LC24:
 2165 0e24 77622B00 		.ascii "wb+\0"
 2166              	LC25:
 2167 0e28 0A457272 		.ascii "\12Err creating %s\0"
 2167      20637265 
 2167      6174696E 
 2167      67202573 
 2167      00
 2168 0e39 8DB42600 		.align 32
 2168      000000
 2169              	LC26:
 2170 0e40 0A457272 		.ascii "\12Err allocating memory of size %d bytes\0"
 2170      20616C6C 
 2170      6F636174 
 2170      696E6720 
 2170      6D656D6F 
 2171              	LC27:
 2172 0e68 466F726D 		.ascii "Format not supported %s\0"
 2172      6174206E 
 2172      6F742073 
GAS LISTING f:/K7_TOUR/CODE/plutommi/Customer/ResGenerator/gcctmp/ccaobaaa.s 			page 40


 2172      7570706F 
 2172      72746564 
 2173              	LC28:
 2174 0e80 696D6167 		.ascii "image is too big:%s\12\0"
 2174      65206973 
 2174      20746F6F 
 2174      20626967 
 2174      3A25730A 
 2175              	LC29:
 2176 0e95 47657420 		.ascii "Get dimensions failed:\11%s\0"
 2176      64696D65 
 2176      6E73696F 
 2176      6E732066 
 2176      61696C65 
 2177              	LC30:
 2178 0eaf 256300   		.ascii "%c\0"
 2179              	LC31:
 2180 0eb2 25632563 		.ascii "%c%c%c\0"
 2180      256300
 2181              	LC32:
 2182 0eb9 25632563 		.ascii "%c%c%c%c\0"
 2182      25632563 
 2182      00
 2183              	LC33:
 2184 0ec2 7B0A0900 		.ascii "{\12\11\0"
 2185              	LC34:
 2186 0ec6 30782530 		.ascii "0x%02X, \0"
 2186      32582C20 
 2186      00
 2187 0ecf 90909090 		.align 32
 2187      90909090 
 2187      90909090 
 2187      90909090 
 2187      90
 2188              	LC35:
 2189 0ee0 30782530 		.ascii "0x%02X, 0x%02X, 0x%02X, 0x%02X, 0x%02X, 0x%02X,\12\11\0"
 2189      32582C20 
 2189      30782530 
 2189      32582C20 
 2189      30782530 
 2190 0f12 8DB42600 		.align 32
 2190      0000008D 
 2190      BC270000 
 2190      0000
 2191              	LC36:
 2192 0f20 30782530 		.ascii "0x%02X, 0x%02X, 0x%02X, 0x%02X, \0"
 2192      32582C20 
 2192      30782530 
 2192      32582C20 
 2192      30782530 
 2193              	LC37:
 2194 0f41 0A0900   		.ascii "\12\11\0"
 2195              	LC38:
 2196 0f44 0A7D3B00 		.ascii "\12};\0"
 2204              	.globl _BMPLoader
 2206              	_BMPLoader:
 641:../../MMI/Resource/BMPLoader.c **** #endif /* (!WINGUI_DIRECT_IMAGE_DISPLAY) */ 
GAS LISTING f:/K7_TOUR/CODE/plutommi/Customer/ResGenerator/gcctmp/ccaobaaa.s 			page 41


 642:../../MMI/Resource/BMPLoader.c **** 
 643:../../MMI/Resource/BMPLoader.c **** 
 644:../../MMI/Resource/BMPLoader.c **** /*****************************************************************************
 645:../../MMI/Resource/BMPLoader.c ****  * FUNCTION
 646:../../MMI/Resource/BMPLoader.c ****  *  BMPLoader
 647:../../MMI/Resource/BMPLoader.c ****  * DESCRIPTION
 648:../../MMI/Resource/BMPLoader.c ****  *  
 649:../../MMI/Resource/BMPLoader.c ****  * PARAMETERS
 650:../../MMI/Resource/BMPLoader.c ****  *  in_filename         [?]     
 651:../../MMI/Resource/BMPLoader.c ****  *  out_filename        [?]     
 652:../../MMI/Resource/BMPLoader.c ****  * RETURNS
 653:../../MMI/Resource/BMPLoader.c ****  *  
 654:../../MMI/Resource/BMPLoader.c ****  *****************************************************************************/
 655:../../MMI/Resource/BMPLoader.c **** int BMPLoader(char *in_filename, char *out_filename, S8 color_depth, U8* _9slice_filename, MMI_BOOL
 656:../../MMI/Resource/BMPLoader.c **** {
 2208              	LM201:
 2209 0f48 55       		pushl	%ebp
 2210 0f49 89E5     		movl	%esp, %ebp
 2211 0f4b 81ECB800 		subl	$184, %esp
 2211      0000
 2212 0f51 8B4510   		movl	16(%ebp), %eax
 2213 0f54 8845F7   		movb	%al, -9(%ebp)
 657:../../MMI/Resource/BMPLoader.c ****     /*----------------------------------------------------------------*/
 658:../../MMI/Resource/BMPLoader.c ****     /* Local Variables                                                */
 659:../../MMI/Resource/BMPLoader.c ****     /*----------------------------------------------------------------*/
 660:../../MMI/Resource/BMPLoader.c ****     bitmap outimage;
 661:../../MMI/Resource/BMPLoader.c ****     FILE *infile;
 662:../../MMI/Resource/BMPLoader.c ****     FILE *outfile;
 663:../../MMI/Resource/BMPLoader.c ****     bytestream inimage;
 664:../../MMI/Resource/BMPLoader.c ****     S32 file_length;
 665:../../MMI/Resource/BMPLoader.c ****     U8 *buffer;
 666:../../MMI/Resource/BMPLoader.c ****     S32 i, bitmap_size, total_data_size;
 667:../../MMI/Resource/BMPLoader.c ****     U8 ret;
 668:../../MMI/Resource/BMPLoader.c **** #ifdef __MMI_RESOURCE_ENFB_SUPPORT__
 669:../../MMI/Resource/BMPLoader.c ****     U32 enfb_width, enfb_height;
 670:../../MMI/Resource/BMPLoader.c ****     S32 enfb_ret;
 671:../../MMI/Resource/BMPLoader.c **** #endif
 672:../../MMI/Resource/BMPLoader.c ****     U32 width, height, width_height;
 673:../../MMI/Resource/BMPLoader.c ****     S32 data_size;
 674:../../MMI/Resource/BMPLoader.c **** 
 675:../../MMI/Resource/BMPLoader.c ****     /*----------------------------------------------------------------*/
 676:../../MMI/Resource/BMPLoader.c ****     /* Code Body                                                      */
 677:../../MMI/Resource/BMPLoader.c ****     /*----------------------------------------------------------------*/
 678:../../MMI/Resource/BMPLoader.c ****     infile = fopen(in_filename, "rb");
 2215              	LM202:
 2216              	LBB9:
 2217 0f57 C7442404 		movl	$LC21, 4(%esp)
 2217      070E0000 
 2218 0f5f 8B4508   		movl	8(%ebp), %eax
 2219 0f62 890424   		movl	%eax, (%esp)
 2220 0f65 E8000000 		call	_fopen
 2220      00
 2221 0f6a 8945C4   		movl	%eax, -60(%ebp)
 679:../../MMI/Resource/BMPLoader.c ****     if (infile == NULL)
 2223              	LM203:
 2224 0f6d 837DC400 		cmpl	$0, -60(%ebp)
 2225 0f71 7532     		jne	L129
GAS LISTING f:/K7_TOUR/CODE/plutommi/Customer/ResGenerator/gcctmp/ccaobaaa.s 			page 42


 680:../../MMI/Resource/BMPLoader.c ****     {
 681:../../MMI/Resource/BMPLoader.c ****         BMPLDR_LOG_E("\nErr opening %s", in_filename);
 2227              	LM204:
 2228 0f73 8B4508   		movl	8(%ebp), %eax
 2229 0f76 8944240C 		movl	%eax, 12(%esp)
 2230 0f7a C7442408 		movl	$LC22, 8(%esp)
 2230      0A0E0000 
 2231 0f82 C7442404 		movl	$LC23, 4(%esp)
 2231      1A0E0000 
 2232 0f8a C7042403 		movl	$3, (%esp)
 2232      000000
 2233 0f91 E8000000 		call	_reslog_adaptor_log
 2233      00
 682:../../MMI/Resource/BMPLoader.c ****         return 0;
 2235              	LM205:
 2236 0f96 C78574FF 		movl	$0, -140(%ebp)
 2236      FFFF0000 
 2236      0000
 2237 0fa0 E9D90700 		jmp	L128
 2237      00
 2238              	L129:
 683:../../MMI/Resource/BMPLoader.c ****     }
 684:../../MMI/Resource/BMPLoader.c **** 
 685:../../MMI/Resource/BMPLoader.c ****     outfile = fopen(out_filename, "wb+");
 2240              	LM206:
 2241 0fa5 C7442404 		movl	$LC24, 4(%esp)
 2241      240E0000 
 2242 0fad 8B450C   		movl	12(%ebp), %eax
 2243 0fb0 890424   		movl	%eax, (%esp)
 2244 0fb3 E8000000 		call	_fopen
 2244      00
 2245 0fb8 8945C0   		movl	%eax, -64(%ebp)
 686:../../MMI/Resource/BMPLoader.c ****     if (outfile == NULL)
 2247              	LM207:
 2248 0fbb 837DC000 		cmpl	$0, -64(%ebp)
 2249 0fbf 753D     		jne	L130
 687:../../MMI/Resource/BMPLoader.c ****     {
 688:../../MMI/Resource/BMPLoader.c ****         BMPLDR_LOG_E("\nErr creating %s", out_filename);
 2251              	LM208:
 2252 0fc1 8B450C   		movl	12(%ebp), %eax
 2253 0fc4 8944240C 		movl	%eax, 12(%esp)
 2254 0fc8 C7442408 		movl	$LC25, 8(%esp)
 2254      280E0000 
 2255 0fd0 C7442404 		movl	$LC23, 4(%esp)
 2255      1A0E0000 
 2256 0fd8 C7042403 		movl	$3, (%esp)
 2256      000000
 2257 0fdf E8000000 		call	_reslog_adaptor_log
 2257      00
 689:../../MMI/Resource/BMPLoader.c ****         fclose(infile);
 2259              	LM209:
 2260 0fe4 8B45C4   		movl	-60(%ebp), %eax
 2261 0fe7 890424   		movl	%eax, (%esp)
 2262 0fea E8000000 		call	_fclose
 2262      00
 690:../../MMI/Resource/BMPLoader.c ****         return 0;
 2264              	LM210:
GAS LISTING f:/K7_TOUR/CODE/plutommi/Customer/ResGenerator/gcctmp/ccaobaaa.s 			page 43


 2265 0fef C78574FF 		movl	$0, -140(%ebp)
 2265      FFFF0000 
 2265      0000
 2266 0ff9 E9800700 		jmp	L128
 2266      00
 2267              	L130:
 691:../../MMI/Resource/BMPLoader.c ****     }
 692:../../MMI/Resource/BMPLoader.c **** 
 693:../../MMI/Resource/BMPLoader.c ****     fseek(infile, 0, SEEK_END);
 2269              	LM211:
 2270 0ffe C7442408 		movl	$2, 8(%esp)
 2270      02000000 
 2271 1006 C7442404 		movl	$0, 4(%esp)
 2271      00000000 
 2272 100e 8B45C4   		movl	-60(%ebp), %eax
 2273 1011 890424   		movl	%eax, (%esp)
 2274 1014 E8000000 		call	_fseek
 2274      00
 694:../../MMI/Resource/BMPLoader.c ****     file_length = ftell(infile);
 2276              	LM212:
 2277 1019 8B45C4   		movl	-60(%ebp), %eax
 2278 101c 890424   		movl	%eax, (%esp)
 2279 101f E8000000 		call	_ftell
 2279      00
 2280 1024 8945A4   		movl	%eax, -92(%ebp)
 695:../../MMI/Resource/BMPLoader.c ****     fseek(infile, 0, SEEK_SET);
 2282              	LM213:
 2283 1027 C7442408 		movl	$0, 8(%esp)
 2283      00000000 
 2284 102f C7442404 		movl	$0, 4(%esp)
 2284      00000000 
 2285 1037 8B45C4   		movl	-60(%ebp), %eax
 2286 103a 890424   		movl	%eax, (%esp)
 2287 103d E8000000 		call	_fseek
 2287      00
 696:../../MMI/Resource/BMPLoader.c ****     buffer = (U8*) malloc(file_length);
 2289              	LM214:
 2290 1042 8B45A4   		movl	-92(%ebp), %eax
 2291 1045 890424   		movl	%eax, (%esp)
 2292 1048 E8000000 		call	_malloc
 2292      00
 2293 104d 8945A0   		movl	%eax, -96(%ebp)
 697:../../MMI/Resource/BMPLoader.c ****     if (buffer == NULL)
 2295              	LM215:
 2296 1050 837DA000 		cmpl	$0, -96(%ebp)
 2297 1054 7548     		jne	L131
 698:../../MMI/Resource/BMPLoader.c ****     {
 699:../../MMI/Resource/BMPLoader.c ****         BMPLDR_LOG_E("\nErr allocating memory of size %d bytes", file_length);
 2299              	LM216:
 2300 1056 8B45A4   		movl	-92(%ebp), %eax
 2301 1059 8944240C 		movl	%eax, 12(%esp)
 2302 105d C7442408 		movl	$LC26, 8(%esp)
 2302      400E0000 
 2303 1065 C7442404 		movl	$LC23, 4(%esp)
 2303      1A0E0000 
 2304 106d C7042403 		movl	$3, (%esp)
 2304      000000
GAS LISTING f:/K7_TOUR/CODE/plutommi/Customer/ResGenerator/gcctmp/ccaobaaa.s 			page 44


 2305 1074 E8000000 		call	_reslog_adaptor_log
 2305      00
 700:../../MMI/Resource/BMPLoader.c ****         fclose(infile);
 2307              	LM217:
 2308 1079 8B45C4   		movl	-60(%ebp), %eax
 2309 107c 890424   		movl	%eax, (%esp)
 2310 107f E8000000 		call	_fclose
 2310      00
 701:../../MMI/Resource/BMPLoader.c ****         fclose(outfile);
 2312              	LM218:
 2313 1084 8B45C0   		movl	-64(%ebp), %eax
 2314 1087 890424   		movl	%eax, (%esp)
 2315 108a E8000000 		call	_fclose
 2315      00
 702:../../MMI/Resource/BMPLoader.c ****         return 0;
 2317              	LM219:
 2318 108f C78574FF 		movl	$0, -140(%ebp)
 2318      FFFF0000 
 2318      0000
 2319 1099 E9E00600 		jmp	L128
 2319      00
 2320              	L131:
 703:../../MMI/Resource/BMPLoader.c ****     }
 704:../../MMI/Resource/BMPLoader.c **** 
 705:../../MMI/Resource/BMPLoader.c ****     fread(buffer, 1, file_length, infile);
 2322              	LM220:
 2323 109e 8B45C4   		movl	-60(%ebp), %eax
 2324 10a1 8944240C 		movl	%eax, 12(%esp)
 2325 10a5 8B45A4   		movl	-92(%ebp), %eax
 2326 10a8 89442408 		movl	%eax, 8(%esp)
 2327 10ac C7442404 		movl	$1, 4(%esp)
 2327      01000000 
 2328 10b4 8B45A0   		movl	-96(%ebp), %eax
 2329 10b7 890424   		movl	%eax, (%esp)
 2330 10ba E8000000 		call	_fread
 2330      00
 706:../../MMI/Resource/BMPLoader.c ****     fclose(infile);
 2332              	LM221:
 2333 10bf 8B45C4   		movl	-60(%ebp), %eax
 2334 10c2 890424   		movl	%eax, (%esp)
 2335 10c5 E8000000 		call	_fclose
 2335      00
 707:../../MMI/Resource/BMPLoader.c ****     bytestream_initialize(&inimage, buffer, file_length);
 2337              	LM222:
 2338 10ca 8B45A4   		movl	-92(%ebp), %eax
 2339 10cd 89442408 		movl	%eax, 8(%esp)
 2340 10d1 8B45A0   		movl	-96(%ebp), %eax
 2341 10d4 89442404 		movl	%eax, 4(%esp)
 2342 10d8 8D45A8   		leal	-88(%ebp), %eax
 2343 10db 890424   		movl	%eax, (%esp)
 2344 10de E8000000 		call	_bytestream_initialize
 2344      00
 708:../../MMI/Resource/BMPLoader.c **** 
 709:../../MMI/Resource/BMPLoader.c ****     U32 * image_static_buffer = NULL;
 2346              	LM223:
 2347 10e3 C7857CFF 		movl	$0, -132(%ebp)
 2347      FFFF0000 
GAS LISTING f:/K7_TOUR/CODE/plutommi/Customer/ResGenerator/gcctmp/ccaobaaa.s 			page 45


 2347      0000
 710:../../MMI/Resource/BMPLoader.c ****     image_static_buffer = malloc( (IMAGE_STATIC_BUFFER_SIZE + 3) / 4 * 4);
 2349              	LM224:
 2350 10ed C7042400 		movl	$409600, (%esp)
 2350      400600
 2351 10f4 E8000000 		call	_malloc
 2351      00
 2352 10f9 89857CFF 		movl	%eax, -132(%ebp)
 2352      FFFF
 711:../../MMI/Resource/BMPLoader.c ****     memset(image_static_buffer, 0, (IMAGE_STATIC_PALETTE_SIZE + 3) / 4 * 4);
 2354              	LM225:
 2355 10ff C7442408 		movl	$768, 8(%esp)
 2355      00030000 
 2356 1107 C7442404 		movl	$0, 4(%esp)
 2356      00000000 
 2357 110f 8B857CFF 		movl	-132(%ebp), %eax
 2357      FFFF
 2358 1115 890424   		movl	%eax, (%esp)
 2359 1118 E8000000 		call	_memset
 2359      00
 712:../../MMI/Resource/BMPLoader.c ****     outimage.data = image_static_buffer;
 2361              	LM226:
 2362 111d 8B857CFF 		movl	-132(%ebp), %eax
 2362      FFFF
 2363 1123 8945DC   		movl	%eax, -36(%ebp)
 713:../../MMI/Resource/BMPLoader.c **** 
 714:../../MMI/Resource/BMPLoader.c ****     ret = BMP_load(&inimage, &outimage, color_depth/*__MMI_DEVICE_BMP_FORMAT__*/);
 2365              	LM227:
 2366 1126 0FBE45F7 		movsbl	-9(%ebp),%eax
 2367 112a 89442408 		movl	%eax, 8(%esp)
 2368 112e 8D45C8   		leal	-56(%ebp), %eax
 2369 1131 89442404 		movl	%eax, 4(%esp)
 2370 1135 8D45A8   		leal	-88(%ebp), %eax
 2371 1138 890424   		movl	%eax, (%esp)
 2372 113b E893F8FF 		call	_BMP_load
 2372      FF
 2373 1140 884593   		movb	%al, -109(%ebp)
 715:../../MMI/Resource/BMPLoader.c ****     if (ret == 0)
 2375              	LM228:
 2376 1143 807D9300 		cmpb	$0, -109(%ebp)
 2377 1147 7556     		jne	L132
 716:../../MMI/Resource/BMPLoader.c ****     {
 717:../../MMI/Resource/BMPLoader.c ****         BMPLDR_LOG_E("Format not supported %s", in_filename);
 2379              	LM229:
 2380 1149 8B4508   		movl	8(%ebp), %eax
 2381 114c 8944240C 		movl	%eax, 12(%esp)
 2382 1150 C7442408 		movl	$LC27, 8(%esp)
 2382      680E0000 
 2383 1158 C7442404 		movl	$LC23, 4(%esp)
 2383      1A0E0000 
 2384 1160 C7042403 		movl	$3, (%esp)
 2384      000000
 2385 1167 E8000000 		call	_reslog_adaptor_log
 2385      00
 718:../../MMI/Resource/BMPLoader.c ****         free(buffer);
 2387              	LM230:
 2388 116c 8B45A0   		movl	-96(%ebp), %eax
GAS LISTING f:/K7_TOUR/CODE/plutommi/Customer/ResGenerator/gcctmp/ccaobaaa.s 			page 46


 2389 116f 890424   		movl	%eax, (%esp)
 2390 1172 E8000000 		call	_free
 2390      00
 719:../../MMI/Resource/BMPLoader.c ****         fclose(outfile);
 2392              	LM231:
 2393 1177 8B45C0   		movl	-64(%ebp), %eax
 2394 117a 890424   		movl	%eax, (%esp)
 2395 117d E8000000 		call	_fclose
 2395      00
 720:../../MMI/Resource/BMPLoader.c ****         free(image_static_buffer);
 2397              	LM232:
 2398 1182 8B857CFF 		movl	-132(%ebp), %eax
 2398      FFFF
 2399 1188 890424   		movl	%eax, (%esp)
 2400 118b E8000000 		call	_free
 2400      00
 721:../../MMI/Resource/BMPLoader.c ****         return 0;
 2402              	LM233:
 2403 1190 C78574FF 		movl	$0, -140(%ebp)
 2403      FFFF0000 
 2403      0000
 2404 119a E9DF0500 		jmp	L128
 2404      00
 2405              	L132:
 722:../../MMI/Resource/BMPLoader.c ****     }
 723:../../MMI/Resource/BMPLoader.c ****     bitmap_size = outimage.row_bytes * outimage.ysize;
 2407              	LM234:
 2408 119f 8B45D4   		movl	-44(%ebp), %eax
 2409 11a2 0FAF45CC 		imull	-52(%ebp), %eax
 2410 11a6 894598   		movl	%eax, -104(%ebp)
 724:../../MMI/Resource/BMPLoader.c ****     total_data_size = bitmap_size + 13;
 2412              	LM235:
 2413 11a9 8B4598   		movl	-104(%ebp), %eax
 2414 11ac 83C00D   		addl	$13, %eax
 2415 11af 894594   		movl	%eax, -108(%ebp)
 725:../../MMI/Resource/BMPLoader.c ****     if ((total_data_size >> 24) > 0)
 2417              	LM236:
 2418 11b2 8B4594   		movl	-108(%ebp), %eax
 2419 11b5 C1F818   		sarl	$24, %eax
 2420 11b8 85C0     		testl	%eax, %eax
 2421 11ba 7E1F     		jle	L133
 726:../../MMI/Resource/BMPLoader.c ****     {
 727:../../MMI/Resource/BMPLoader.c ****         fprintf(stderr, "image is too big:%s\n", in_filename);
 2423              	LM237:
 2424 11bc 8B4508   		movl	8(%ebp), %eax
 2425 11bf 89442408 		movl	%eax, 8(%esp)
 2426 11c3 C7442404 		movl	$LC28, 4(%esp)
 2426      800E0000 
 2427 11cb A1000000 		movl	__imp___iob, %eax
 2427      00
 2428 11d0 83C040   		addl	$64, %eax
 2429 11d3 890424   		movl	%eax, (%esp)
 2430 11d6 E8000000 		call	_fprintf
 2430      00
 2431              	L133:
 728:../../MMI/Resource/BMPLoader.c ****     }
 729:../../MMI/Resource/BMPLoader.c **** 
GAS LISTING f:/K7_TOUR/CODE/plutommi/Customer/ResGenerator/gcctmp/ccaobaaa.s 			page 47


 730:../../MMI/Resource/BMPLoader.c ****     if (Image_Get_Dimensions(in_filename, &width, &height) >= 0)
 2433              	LM238:
 2434 11db 8D4588   		leal	-120(%ebp), %eax
 2435 11de 89442408 		movl	%eax, 8(%esp)
 2436 11e2 8D458C   		leal	-116(%ebp), %eax
 2437 11e5 89442404 		movl	%eax, 4(%esp)
 2438 11e9 8B4508   		movl	8(%ebp), %eax
 2439 11ec 890424   		movl	%eax, (%esp)
 2440 11ef E8000000 		call	_Image_Get_Dimensions
 2440      00
 2441 11f4 85C0     		testl	%eax, %eax
 2442 11f6 781C     		js	L134
 731:../../MMI/Resource/BMPLoader.c ****     {
 732:../../MMI/Resource/BMPLoader.c ****         width_height = ((width & 0XFFF) << 12) | (height & 0XFFF);
 2444              	LM239:
 2445 11f8 8B458C   		movl	-116(%ebp), %eax
 2446 11fb 25FF0F00 		andl	$4095, %eax
 2446      00
 2447 1200 89C2     		movl	%eax, %edx
 2448 1202 C1E20C   		sall	$12, %edx
 2449 1205 8B4588   		movl	-120(%ebp), %eax
 2450 1208 25FF0F00 		andl	$4095, %eax
 2450      00
 2451 120d 09D0     		orl	%edx, %eax
 2452 120f 894584   		movl	%eax, -124(%ebp)
 2453 1212 EB40     		jmp	L135
 2454              	L134:
 733:../../MMI/Resource/BMPLoader.c ****     }
 734:../../MMI/Resource/BMPLoader.c ****     else
 735:../../MMI/Resource/BMPLoader.c ****     {
 736:../../MMI/Resource/BMPLoader.c ****         BMPLDR_LOG_E("Get dimensions failed:\t%s", in_filename);
 2456              	LM240:
 2457 1214 8B4508   		movl	8(%ebp), %eax
 2458 1217 8944240C 		movl	%eax, 12(%esp)
 2459 121b C7442408 		movl	$LC29, 8(%esp)
 2459      950E0000 
 2460 1223 C7442404 		movl	$LC23, 4(%esp)
 2460      1A0E0000 
 2461 122b C7042403 		movl	$3, (%esp)
 2461      000000
 2462 1232 E8000000 		call	_reslog_adaptor_log
 2462      00
 737:../../MMI/Resource/BMPLoader.c ****         free(image_static_buffer);
 2464              	LM241:
 2465 1237 8B857CFF 		movl	-132(%ebp), %eax
 2465      FFFF
 2466 123d 890424   		movl	%eax, (%esp)
 2467 1240 E8000000 		call	_free
 2467      00
 738:../../MMI/Resource/BMPLoader.c ****         return 0;
 2469              	LM242:
 2470 1245 C78574FF 		movl	$0, -140(%ebp)
 2470      FFFF0000 
 2470      0000
 2471 124f E92A0500 		jmp	L128
 2471      00
 2472              	L135:
GAS LISTING f:/K7_TOUR/CODE/plutommi/Customer/ResGenerator/gcctmp/ccaobaaa.s 			page 48


 739:../../MMI/Resource/BMPLoader.c ****     }
 740:../../MMI/Resource/BMPLoader.c ****     
 741:../../MMI/Resource/BMPLoader.c **** #ifdef __MMI_RESOURCE_ENFB_SUPPORT__
 742:../../MMI/Resource/BMPLoader.c ****     enfb_ret = Image_Test(in_filename, &enfb_width, &enfb_height, processData->disable_enfb);
 743:../../MMI/Resource/BMPLoader.c ****     if (enfb_ret != ENFB_IMAGE_NONE)
 744:../../MMI/Resource/BMPLoader.c ****     {
 745:../../MMI/Resource/BMPLoader.c ****         processData->enfb_flag = 1;
 746:../../MMI/Resource/BMPLoader.c ****         if (enfb_ret == ENFB_IMAGE_ASSOCIATE)
 747:../../MMI/Resource/BMPLoader.c ****         {
 748:../../MMI/Resource/BMPLoader.c ****             ENFBAssociatedIDAdded = MMI_TRUE;
 749:../../MMI/Resource/BMPLoader.c ****         }
 750:../../MMI/Resource/BMPLoader.c ****     }
 751:../../MMI/Resource/BMPLoader.c **** #endif
 752:../../MMI/Resource/BMPLoader.c **** 
 753:../../MMI/Resource/BMPLoader.c ****     if (processData)
 2474              	LM243:
 2475 1254 837D1C00 		cmpl	$0, 28(%ebp)
 2476 1258 740C     		je	L136
 754:../../MMI/Resource/BMPLoader.c ****     {
 755:../../MMI/Resource/BMPLoader.c ****         processData->res_size = total_data_size;
 2478              	LM244:
 2479 125a 8B551C   		movl	28(%ebp), %edx
 2480 125d 8B4594   		movl	-108(%ebp), %eax
 2481 1260 89820002 		movl	%eax, 512(%edx)
 2481      0000
 2482              	L136:
 756:../../MMI/Resource/BMPLoader.c ****     }
 757:../../MMI/Resource/BMPLoader.c ****     data_size = total_data_size;
 2484              	LM245:
 2485 1266 8B4594   		movl	-108(%ebp), %eax
 2486 1269 894580   		movl	%eax, -128(%ebp)
 758:../../MMI/Resource/BMPLoader.c ****     
 759:../../MMI/Resource/BMPLoader.c ****     if (is9slice) 
 2488              	LM246:
 2489 126c 837D1800 		cmpl	$0, 24(%ebp)
 2490 1270 7406     		je	L137
 760:../../MMI/Resource/BMPLoader.c ****         data_size += 20;
 2492              	LM247:
 2493 1272 8D4580   		leal	-128(%ebp), %eax
 2494 1275 830014   		addl	$20, (%eax)
 2495              	L137:
 761:../../MMI/Resource/BMPLoader.c **** 
 762:../../MMI/Resource/BMPLoader.c ****     if (toolFlag == 1)
 2497              	LM248:
 2498 1278 833D0000 		cmpl	$1, _toolFlag
 2498      000001
 2499 127f 0F854002 		jne	L138
 2499      0000
 763:../../MMI/Resource/BMPLoader.c ****     {
 764:../../MMI/Resource/BMPLoader.c ****         /* resource header */
 765:../../MMI/Resource/BMPLoader.c ****         if (is9slice)
 2501              	LM249:
 2502 1285 837D1800 		cmpl	$0, 24(%ebp)
 2503 1289 741F     		je	L139
 766:../../MMI/Resource/BMPLoader.c ****             fprintf(dest_file, "%c", IMAGE_TYPE_9SLICE);
 2505              	LM250:
 2506 128b C7442408 		movl	$62, 8(%esp)
GAS LISTING f:/K7_TOUR/CODE/plutommi/Customer/ResGenerator/gcctmp/ccaobaaa.s 			page 49


 2506      3E000000 
 2507 1293 C7442404 		movl	$LC30, 4(%esp)
 2507      AF0E0000 
 2508 129b A1000000 		movl	_dest_file, %eax
 2508      00
 2509 12a0 890424   		movl	%eax, (%esp)
 2510 12a3 E8000000 		call	_fprintf
 2510      00
 2511 12a8 EB1D     		jmp	L140
 2512              	L139:
 767:../../MMI/Resource/BMPLoader.c ****         else             
 768:../../MMI/Resource/BMPLoader.c ****             fprintf(dest_file, "%c", 0x04);
 2514              	LM251:
 2515 12aa C7442408 		movl	$4, 8(%esp)
 2515      04000000 
 2516 12b2 C7442404 		movl	$LC30, 4(%esp)
 2516      AF0E0000 
 2517 12ba A1000000 		movl	_dest_file, %eax
 2517      00
 2518 12bf 890424   		movl	%eax, (%esp)
 2519 12c2 E8000000 		call	_fprintf
 2519      00
 2520              	L140:
 769:../../MMI/Resource/BMPLoader.c ****         fprintf(dest_file, "%c", 0x01);
 2522              	LM252:
 2523 12c7 C7442408 		movl	$1, 8(%esp)
 2523      01000000 
 2524 12cf C7442404 		movl	$LC30, 4(%esp)
 2524      AF0E0000 
 2525 12d7 A1000000 		movl	_dest_file, %eax
 2525      00
 2526 12dc 890424   		movl	%eax, (%esp)
 2527 12df E8000000 		call	_fprintf
 2527      00
 770:../../MMI/Resource/BMPLoader.c ****         total_data_size = bitmap_size + 13;
 2529              	LM253:
 2530 12e4 8B4598   		movl	-104(%ebp), %eax
 2531 12e7 83C00D   		addl	$13, %eax
 2532 12ea 894594   		movl	%eax, -108(%ebp)
 771:../../MMI/Resource/BMPLoader.c ****         fprintf(
 2534              	LM254:
 2535 12ed 8B4580   		movl	-128(%ebp), %eax
 2536 12f0 250000FF 		andl	$16711680, %eax
 2536      00
 2537 12f5 C1F810   		sarl	$16, %eax
 2538 12f8 89442410 		movl	%eax, 16(%esp)
 2539 12fc 8B4580   		movl	-128(%ebp), %eax
 2540 12ff 2500FF00 		andl	$65280, %eax
 2540      00
 2541 1304 C1F808   		sarl	$8, %eax
 2542 1307 8944240C 		movl	%eax, 12(%esp)
 2543 130b 0FB64580 		movzbl	-128(%ebp),%eax
 2544 130f 89442408 		movl	%eax, 8(%esp)
 2545 1313 C7442404 		movl	$LC31, 4(%esp)
 2545      B20E0000 
 2546 131b A1000000 		movl	_dest_file, %eax
 2546      00
GAS LISTING f:/K7_TOUR/CODE/plutommi/Customer/ResGenerator/gcctmp/ccaobaaa.s 			page 50


 2547 1320 890424   		movl	%eax, (%esp)
 2548 1323 E8000000 		call	_fprintf
 2548      00
 772:../../MMI/Resource/BMPLoader.c ****             dest_file,
 773:../../MMI/Resource/BMPLoader.c ****             "%c%c%c",
 774:../../MMI/Resource/BMPLoader.c ****             (data_size & 0x000000ff),
 775:../../MMI/Resource/BMPLoader.c ****             (data_size & 0x0000ff00) >> 8,
 776:../../MMI/Resource/BMPLoader.c ****             (data_size & 0x00ff0000) >> 16);
 777:../../MMI/Resource/BMPLoader.c ****         fprintf(
 2550              	LM255:
 2551 1328 8B4584   		movl	-124(%ebp), %eax
 2552 132b 250000FF 		andl	$16711680, %eax
 2552      00
 2553 1330 C1E810   		shrl	$16, %eax
 2554 1333 89442410 		movl	%eax, 16(%esp)
 2555 1337 8B4584   		movl	-124(%ebp), %eax
 2556 133a 2500FF00 		andl	$65280, %eax
 2556      00
 2557 133f C1E808   		shrl	$8, %eax
 2558 1342 8944240C 		movl	%eax, 12(%esp)
 2559 1346 0FB64584 		movzbl	-124(%ebp),%eax
 2560 134a 89442408 		movl	%eax, 8(%esp)
 2561 134e C7442404 		movl	$LC31, 4(%esp)
 2561      B20E0000 
 2562 1356 A1000000 		movl	_dest_file, %eax
 2562      00
 2563 135b 890424   		movl	%eax, (%esp)
 2564 135e E8000000 		call	_fprintf
 2564      00
 778:../../MMI/Resource/BMPLoader.c ****             dest_file,
 779:../../MMI/Resource/BMPLoader.c ****             "%c%c%c",
 780:../../MMI/Resource/BMPLoader.c ****             (width_height & 0x000000ff),
 781:../../MMI/Resource/BMPLoader.c ****             (width_height & 0x0000ff00) >> 8,
 782:../../MMI/Resource/BMPLoader.c ****             (width_height & 0x00ff0000) >> 16);
 783:../../MMI/Resource/BMPLoader.c ****         
 784:../../MMI/Resource/BMPLoader.c ****         if (is9slice)
 2566              	LM256:
 2567 1363 837D1800 		cmpl	$0, 24(%ebp)
 2568 1367 7424     		je	L141
 785:../../MMI/Resource/BMPLoader.c ****         {
 786:../../MMI/Resource/BMPLoader.c ****             /* Write 9slice file header */
 787:../../MMI/Resource/BMPLoader.c ****             mmi_rg_write_9slice_header(IMAGE_TYPE_DEVICE_BITMAP, _9slice_filename, dest_file, MMI_T
 2570              	LM257:
 2571 1369 C744240C 		movl	$1, 12(%esp)
 2571      01000000 
 2572 1371 A1000000 		movl	_dest_file, %eax
 2572      00
 2573 1376 89442408 		movl	%eax, 8(%esp)
 2574 137a 8B4514   		movl	20(%ebp), %eax
 2575 137d 89442404 		movl	%eax, 4(%esp)
 2576 1381 C7042404 		movl	$4, (%esp)
 2576      000000
 2577 1388 E8000000 		call	_mmi_rg_write_9slice_header
 2577      00
 2578              	L141:
 788:../../MMI/Resource/BMPLoader.c ****         }
 789:../../MMI/Resource/BMPLoader.c ****         
GAS LISTING f:/K7_TOUR/CODE/plutommi/Customer/ResGenerator/gcctmp/ccaobaaa.s 			page 51


 790:../../MMI/Resource/BMPLoader.c ****         /* BMP resource header */
 791:../../MMI/Resource/BMPLoader.c ****         fprintf(
 2580              	LM258:
 2581 138d 8B45C8   		movl	-56(%ebp), %eax
 2582 1390 25000000 		andl	$-16777216, %eax
 2582      FF
 2583 1395 C1E818   		shrl	$24, %eax
 2584 1398 89442414 		movl	%eax, 20(%esp)
 2585 139c 8B45C8   		movl	-56(%ebp), %eax
 2586 139f 250000FF 		andl	$16711680, %eax
 2586      00
 2587 13a4 C1F810   		sarl	$16, %eax
 2588 13a7 89442410 		movl	%eax, 16(%esp)
 2589 13ab 8B45C8   		movl	-56(%ebp), %eax
 2590 13ae 2500FF00 		andl	$65280, %eax
 2590      00
 2591 13b3 C1F808   		sarl	$8, %eax
 2592 13b6 8944240C 		movl	%eax, 12(%esp)
 2593 13ba 0FB645C8 		movzbl	-56(%ebp),%eax
 2594 13be 89442408 		movl	%eax, 8(%esp)
 2595 13c2 C7442404 		movl	$LC32, 4(%esp)
 2595      B90E0000 
 2596 13ca A1000000 		movl	_dest_file, %eax
 2596      00
 2597 13cf 890424   		movl	%eax, (%esp)
 2598 13d2 E8000000 		call	_fprintf
 2598      00
 792:../../MMI/Resource/BMPLoader.c ****             dest_file,
 793:../../MMI/Resource/BMPLoader.c ****             "%c%c%c%c",
 794:../../MMI/Resource/BMPLoader.c ****             (outimage.xsize & 0x000000ff),
 795:../../MMI/Resource/BMPLoader.c ****             (outimage.xsize & 0x0000ff00) >> 8,
 796:../../MMI/Resource/BMPLoader.c ****             (outimage.xsize & 0x00ff0000) >> 16,
 797:../../MMI/Resource/BMPLoader.c ****             (outimage.xsize & 0xff000000) >> 24);
 798:../../MMI/Resource/BMPLoader.c ****         fprintf(
 2600              	LM259:
 2601 13d7 8B45CC   		movl	-52(%ebp), %eax
 2602 13da 25000000 		andl	$-16777216, %eax
 2602      FF
 2603 13df C1E818   		shrl	$24, %eax
 2604 13e2 89442414 		movl	%eax, 20(%esp)
 2605 13e6 8B45CC   		movl	-52(%ebp), %eax
 2606 13e9 250000FF 		andl	$16711680, %eax
 2606      00
 2607 13ee C1F810   		sarl	$16, %eax
 2608 13f1 89442410 		movl	%eax, 16(%esp)
 2609 13f5 8B45CC   		movl	-52(%ebp), %eax
 2610 13f8 2500FF00 		andl	$65280, %eax
 2610      00
 2611 13fd C1F808   		sarl	$8, %eax
 2612 1400 8944240C 		movl	%eax, 12(%esp)
 2613 1404 0FB645CC 		movzbl	-52(%ebp),%eax
 2614 1408 89442408 		movl	%eax, 8(%esp)
 2615 140c C7442404 		movl	$LC32, 4(%esp)
 2615      B90E0000 
 2616 1414 A1000000 		movl	_dest_file, %eax
 2616      00
 2617 1419 890424   		movl	%eax, (%esp)
GAS LISTING f:/K7_TOUR/CODE/plutommi/Customer/ResGenerator/gcctmp/ccaobaaa.s 			page 52


 2618 141c E8000000 		call	_fprintf
 2618      00
 799:../../MMI/Resource/BMPLoader.c ****             dest_file,
 800:../../MMI/Resource/BMPLoader.c ****             "%c%c%c%c",
 801:../../MMI/Resource/BMPLoader.c ****             (outimage.ysize & 0x000000ff),
 802:../../MMI/Resource/BMPLoader.c ****             (outimage.ysize & 0x0000ff00) >> 8,
 803:../../MMI/Resource/BMPLoader.c ****             (outimage.ysize & 0x00ff0000) >> 16,
 804:../../MMI/Resource/BMPLoader.c ****             (outimage.ysize & 0xff000000) >> 24);
 805:../../MMI/Resource/BMPLoader.c ****         fprintf(dest_file, "%c", outimage.color_depth);
 2620              	LM260:
 2621 1421 0FBE45D0 		movsbl	-48(%ebp),%eax
 2622 1425 89442408 		movl	%eax, 8(%esp)
 2623 1429 C7442404 		movl	$LC30, 4(%esp)
 2623      AF0E0000 
 2624 1431 A1000000 		movl	_dest_file, %eax
 2624      00
 2625 1436 890424   		movl	%eax, (%esp)
 2626 1439 E8000000 		call	_fprintf
 2626      00
 806:../../MMI/Resource/BMPLoader.c ****         fprintf(
 2628              	LM261:
 2629 143e 8B45D4   		movl	-44(%ebp), %eax
 2630 1441 25000000 		andl	$-16777216, %eax
 2630      FF
 2631 1446 C1E818   		shrl	$24, %eax
 2632 1449 89442414 		movl	%eax, 20(%esp)
 2633 144d 8B45D4   		movl	-44(%ebp), %eax
 2634 1450 250000FF 		andl	$16711680, %eax
 2634      00
 2635 1455 C1F810   		sarl	$16, %eax
 2636 1458 89442410 		movl	%eax, 16(%esp)
 2637 145c 8B45D4   		movl	-44(%ebp), %eax
 2638 145f 2500FF00 		andl	$65280, %eax
 2638      00
 2639 1464 C1F808   		sarl	$8, %eax
 2640 1467 8944240C 		movl	%eax, 12(%esp)
 2641 146b 0FB645D4 		movzbl	-44(%ebp),%eax
 2642 146f 89442408 		movl	%eax, 8(%esp)
 2643 1473 C7442404 		movl	$LC32, 4(%esp)
 2643      B90E0000 
 2644 147b A1000000 		movl	_dest_file, %eax
 2644      00
 2645 1480 890424   		movl	%eax, (%esp)
 2646 1483 E8000000 		call	_fprintf
 2646      00
 807:../../MMI/Resource/BMPLoader.c ****             dest_file,
 808:../../MMI/Resource/BMPLoader.c ****             "%c%c%c%c",
 809:../../MMI/Resource/BMPLoader.c ****             (outimage.row_bytes & 0x000000ff),
 810:../../MMI/Resource/BMPLoader.c ****             (outimage.row_bytes & 0x0000ff00) >> 8,
 811:../../MMI/Resource/BMPLoader.c ****             (outimage.row_bytes & 0x00ff0000) >> 16,
 812:../../MMI/Resource/BMPLoader.c ****             (outimage.row_bytes & 0xff000000) >> 24);
 813:../../MMI/Resource/BMPLoader.c **** 
 814:../../MMI/Resource/BMPLoader.c ****         for (i = 0; i < bitmap_size; i++)
 2648              	LM262:
 2649 1488 C7459C00 		movl	$0, -100(%ebp)
 2649      000000
 2650              	L142:
GAS LISTING f:/K7_TOUR/CODE/plutommi/Customer/ResGenerator/gcctmp/ccaobaaa.s 			page 53


 2651 148f 8B459C   		movl	-100(%ebp), %eax
 2652 1492 3B4598   		cmpl	-104(%ebp), %eax
 2653 1495 7C05     		jl	L145
 2654 1497 E9B40200 		jmp	L146
 2654      00
 2655              	L145:
 815:../../MMI/Resource/BMPLoader.c ****         {
 816:../../MMI/Resource/BMPLoader.c ****             fprintf(dest_file, "%c", outimage.data[i]);
 2657              	LM263:
 2658 149c 8B459C   		movl	-100(%ebp), %eax
 2659 149f 0345DC   		addl	-36(%ebp), %eax
 2660 14a2 0FB600   		movzbl	(%eax), %eax
 2661 14a5 89442408 		movl	%eax, 8(%esp)
 2662 14a9 C7442404 		movl	$LC30, 4(%esp)
 2662      AF0E0000 
 2663 14b1 A1000000 		movl	_dest_file, %eax
 2663      00
 2664 14b6 890424   		movl	%eax, (%esp)
 2665 14b9 E8000000 		call	_fprintf
 2665      00
 2667              	LM264:
 2668 14be 8D459C   		leal	-100(%ebp), %eax
 2669 14c1 FF00     		incl	(%eax)
 2670 14c3 EBCA     		jmp	L142
 2671              	L138:
 817:../../MMI/Resource/BMPLoader.c ****         }
 818:../../MMI/Resource/BMPLoader.c ****     }
 819:../../MMI/Resource/BMPLoader.c ****     
 820:../../MMI/Resource/BMPLoader.c **** #ifdef __MMI_RESOURCE_ENFB_SUPPORT__
 821:../../MMI/Resource/BMPLoader.c ****     /* write ENFB header to CustImgDataxxx.h and
 822:../../MMI/Resource/BMPLoader.c ****      * image header/data to ENFB image data file */
 823:../../MMI/Resource/BMPLoader.c ****     else if (processData->enfb_flag == 1) 
 824:../../MMI/Resource/BMPLoader.c ****     {
 825:../../MMI/Resource/BMPLoader.c ****         enfb_size = 21 + bitmap_size;
 826:../../MMI/Resource/BMPLoader.c ****         
 827:../../MMI/Resource/BMPLoader.c ****         if (is9slice) 
 828:../../MMI/Resource/BMPLoader.c ****             enfb_size += 20;
 829:../../MMI/Resource/BMPLoader.c ****     
 830:../../MMI/Resource/BMPLoader.c ****         /* write ENFB header to CustImgDataxxx.h */
 831:../../MMI/Resource/BMPLoader.c ****         fprintf(
 832:../../MMI/Resource/BMPLoader.c ****             outfile,
 833:../../MMI/Resource/BMPLoader.c ****             "\n{\t0x%02X, 0x%02X, 0x%02X, 0x%02X, 0x%02X, 0x%02X, 0x%02X, 0x%02X, 0x%02X, 0x%02X, 0
 834:../../MMI/Resource/BMPLoader.c ****             (U8) 255,//type
 835:../../MMI/Resource/BMPLoader.c ****             (U8) ENFBAssociatedIDAdded,//associated id
 836:../../MMI/Resource/BMPLoader.c ****             (U8) 0,//reserved
 837:../../MMI/Resource/BMPLoader.c ****             (U8) 0,//reserved
 838:../../MMI/Resource/BMPLoader.c ****             (U8) (enfb_offset & 0xff),
 839:../../MMI/Resource/BMPLoader.c ****             (U8) ((enfb_offset >> 8) & 0xff),
 840:../../MMI/Resource/BMPLoader.c ****             (U8) ((enfb_offset >> 16) & 0xff),
 841:../../MMI/Resource/BMPLoader.c ****             (U8) ((enfb_offset >> 24) & 0xff),
 842:../../MMI/Resource/BMPLoader.c ****             (U8) (enfb_size & 0xff),
 843:../../MMI/Resource/BMPLoader.c ****             (U8) ((enfb_size >> 8) & 0xff),
 844:../../MMI/Resource/BMPLoader.c ****             (U8) ((enfb_size >> 16) & 0xff),
 845:../../MMI/Resource/BMPLoader.c ****             (U8) ((enfb_size >> 24) & 0xff));
 846:../../MMI/Resource/BMPLoader.c ****         
 847:../../MMI/Resource/BMPLoader.c ****         /* image header/data to ENFB image data file */
 848:../../MMI/Resource/BMPLoader.c ****         /* resource header */
GAS LISTING f:/K7_TOUR/CODE/plutommi/Customer/ResGenerator/gcctmp/ccaobaaa.s 			page 54


 849:../../MMI/Resource/BMPLoader.c ****         if (is9slice)
 850:../../MMI/Resource/BMPLoader.c ****             fprintf(enfb_img_data_file, "%c", IMAGE_TYPE_9SLICE);
 851:../../MMI/Resource/BMPLoader.c ****         else          
 852:../../MMI/Resource/BMPLoader.c ****             fprintf(enfb_img_data_file, "%c", 0x04);
 853:../../MMI/Resource/BMPLoader.c ****         fprintf(enfb_img_data_file, "%c", 0x01);
 854:../../MMI/Resource/BMPLoader.c ****         total_data_size = bitmap_size + 13;
 855:../../MMI/Resource/BMPLoader.c ****         fprintf(
 856:../../MMI/Resource/BMPLoader.c ****             enfb_img_data_file,
 857:../../MMI/Resource/BMPLoader.c ****             "%c%c%c",
 858:../../MMI/Resource/BMPLoader.c ****             (data_size & 0x000000ff),
 859:../../MMI/Resource/BMPLoader.c ****             (data_size & 0x0000ff00) >> 8,
 860:../../MMI/Resource/BMPLoader.c ****             (data_size & 0x00ff0000) >> 16);
 861:../../MMI/Resource/BMPLoader.c ****         fprintf(
 862:../../MMI/Resource/BMPLoader.c ****             enfb_img_data_file,
 863:../../MMI/Resource/BMPLoader.c ****             "%c%c%c",
 864:../../MMI/Resource/BMPLoader.c ****             (width_height & 0x000000ff),
 865:../../MMI/Resource/BMPLoader.c ****             (width_height & 0x0000ff00) >> 8,
 866:../../MMI/Resource/BMPLoader.c ****             (width_height & 0x00ff0000) >> 16);
 867:../../MMI/Resource/BMPLoader.c **** 
 868:../../MMI/Resource/BMPLoader.c ****         if (is9slice)
 869:../../MMI/Resource/BMPLoader.c ****         {
 870:../../MMI/Resource/BMPLoader.c ****             /* Write 9slice file header */
 871:../../MMI/Resource/BMPLoader.c ****             mmi_rg_write_9slice_header(IMAGE_TYPE_DEVICE_BITMAP, _9slice_filename, enfb_img_data_fi
 872:../../MMI/Resource/BMPLoader.c ****         }
 873:../../MMI/Resource/BMPLoader.c ****         
 874:../../MMI/Resource/BMPLoader.c ****         /* BMP resource header */
 875:../../MMI/Resource/BMPLoader.c ****         fprintf(
 876:../../MMI/Resource/BMPLoader.c ****             enfb_img_data_file,
 877:../../MMI/Resource/BMPLoader.c ****             "%c%c%c%c",
 878:../../MMI/Resource/BMPLoader.c ****             (outimage.xsize & 0x000000ff),
 879:../../MMI/Resource/BMPLoader.c ****             (outimage.xsize & 0x0000ff00) >> 8,
 880:../../MMI/Resource/BMPLoader.c ****             (outimage.xsize & 0x00ff0000) >> 16,
 881:../../MMI/Resource/BMPLoader.c ****             (outimage.xsize & 0xff000000) >> 24);
 882:../../MMI/Resource/BMPLoader.c ****         fprintf(
 883:../../MMI/Resource/BMPLoader.c ****             enfb_img_data_file,
 884:../../MMI/Resource/BMPLoader.c ****             "%c%c%c%c",
 885:../../MMI/Resource/BMPLoader.c ****             (outimage.ysize & 0x000000ff),
 886:../../MMI/Resource/BMPLoader.c ****             (outimage.ysize & 0x0000ff00) >> 8,
 887:../../MMI/Resource/BMPLoader.c ****             (outimage.ysize & 0x00ff0000) >> 16,
 888:../../MMI/Resource/BMPLoader.c ****             (outimage.ysize & 0xff000000) >> 24);
 889:../../MMI/Resource/BMPLoader.c ****         fprintf(enfb_img_data_file, "%c", outimage.color_depth);
 890:../../MMI/Resource/BMPLoader.c ****         fprintf(
 891:../../MMI/Resource/BMPLoader.c ****             enfb_img_data_file,
 892:../../MMI/Resource/BMPLoader.c ****             "%c%c%c%c",
 893:../../MMI/Resource/BMPLoader.c ****             (outimage.row_bytes & 0x000000ff),
 894:../../MMI/Resource/BMPLoader.c ****             (outimage.row_bytes & 0x0000ff00) >> 8,
 895:../../MMI/Resource/BMPLoader.c ****             (outimage.row_bytes & 0x00ff0000) >> 16,
 896:../../MMI/Resource/BMPLoader.c ****             (outimage.row_bytes & 0xff000000) >> 24);
 897:../../MMI/Resource/BMPLoader.c **** 
 898:../../MMI/Resource/BMPLoader.c ****         for (i = 0; i < bitmap_size; i++)
 899:../../MMI/Resource/BMPLoader.c ****         {
 900:../../MMI/Resource/BMPLoader.c ****             fprintf(enfb_img_data_file, "%c", outimage.data[i]);
 901:../../MMI/Resource/BMPLoader.c ****         }
 902:../../MMI/Resource/BMPLoader.c ****         
 903:../../MMI/Resource/BMPLoader.c ****         enfb_offset += enfb_size;
 904:../../MMI/Resource/BMPLoader.c ****         processData->enfb_flag = 0;
 905:../../MMI/Resource/BMPLoader.c ****     }
GAS LISTING f:/K7_TOUR/CODE/plutommi/Customer/ResGenerator/gcctmp/ccaobaaa.s 			page 55


 906:../../MMI/Resource/BMPLoader.c **** #endif
 907:../../MMI/Resource/BMPLoader.c ****     
 908:../../MMI/Resource/BMPLoader.c ****     else    /* Write to .c .h file */
 909:../../MMI/Resource/BMPLoader.c ****     {
 910:../../MMI/Resource/BMPLoader.c ****         fprintf(outfile, "{\n\t");
 2673              	LM265:
 2674 14c5 C7442404 		movl	$LC33, 4(%esp)
 2674      C20E0000 
 2675 14cd 8B45C0   		movl	-64(%ebp), %eax
 2676 14d0 890424   		movl	%eax, (%esp)
 2677 14d3 E8000000 		call	_fprintf
 2677      00
 911:../../MMI/Resource/BMPLoader.c **** 
 912:../../MMI/Resource/BMPLoader.c ****         /* resource header */
 913:../../MMI/Resource/BMPLoader.c ****         if (is9slice)
 2679              	LM266:
 2680 14d8 837D1800 		cmpl	$0, 24(%ebp)
 2681 14dc 741D     		je	L147
 914:../../MMI/Resource/BMPLoader.c ****             fprintf(outfile, "0x%02X, ", IMAGE_TYPE_9SLICE);
 2683              	LM267:
 2684 14de C7442408 		movl	$62, 8(%esp)
 2684      3E000000 
 2685 14e6 C7442404 		movl	$LC34, 4(%esp)
 2685      C60E0000 
 2686 14ee 8B45C0   		movl	-64(%ebp), %eax
 2687 14f1 890424   		movl	%eax, (%esp)
 2688 14f4 E8000000 		call	_fprintf
 2688      00
 2689 14f9 EB1B     		jmp	L148
 2690              	L147:
 915:../../MMI/Resource/BMPLoader.c ****         else        
 916:../../MMI/Resource/BMPLoader.c ****             fprintf(outfile, "0x%02X, ", 0x04);
 2692              	LM268:
 2693 14fb C7442408 		movl	$4, 8(%esp)
 2693      04000000 
 2694 1503 C7442404 		movl	$LC34, 4(%esp)
 2694      C60E0000 
 2695 150b 8B45C0   		movl	-64(%ebp), %eax
 2696 150e 890424   		movl	%eax, (%esp)
 2697 1511 E8000000 		call	_fprintf
 2697      00
 2698              	L148:
 917:../../MMI/Resource/BMPLoader.c ****         fprintf(outfile, "0x%02X, ", 0x01);
 2700              	LM269:
 2701 1516 C7442408 		movl	$1, 8(%esp)
 2701      01000000 
 2702 151e C7442404 		movl	$LC34, 4(%esp)
 2702      C60E0000 
 2703 1526 8B45C0   		movl	-64(%ebp), %eax
 2704 1529 890424   		movl	%eax, (%esp)
 2705 152c E8000000 		call	_fprintf
 2705      00
 918:../../MMI/Resource/BMPLoader.c ****         total_data_size = bitmap_size + 13;
 2707              	LM270:
 2708 1531 8B4598   		movl	-104(%ebp), %eax
 2709 1534 83C00D   		addl	$13, %eax
 2710 1537 894594   		movl	%eax, -108(%ebp)
GAS LISTING f:/K7_TOUR/CODE/plutommi/Customer/ResGenerator/gcctmp/ccaobaaa.s 			page 56


 919:../../MMI/Resource/BMPLoader.c ****         fprintf(
 2712              	LM271:
 2713 153a 8B4584   		movl	-124(%ebp), %eax
 2714 153d 250000FF 		andl	$16711680, %eax
 2714      00
 2715 1542 C1E810   		shrl	$16, %eax
 2716 1545 8944241C 		movl	%eax, 28(%esp)
 2717 1549 8B4584   		movl	-124(%ebp), %eax
 2718 154c 2500FF00 		andl	$65280, %eax
 2718      00
 2719 1551 C1E808   		shrl	$8, %eax
 2720 1554 89442418 		movl	%eax, 24(%esp)
 2721 1558 0FB64584 		movzbl	-124(%ebp),%eax
 2722 155c 89442414 		movl	%eax, 20(%esp)
 2723 1560 8B4580   		movl	-128(%ebp), %eax
 2724 1563 250000FF 		andl	$16711680, %eax
 2724      00
 2725 1568 C1F810   		sarl	$16, %eax
 2726 156b 89442410 		movl	%eax, 16(%esp)
 2727 156f 8B4580   		movl	-128(%ebp), %eax
 2728 1572 2500FF00 		andl	$65280, %eax
 2728      00
 2729 1577 C1F808   		sarl	$8, %eax
 2730 157a 8944240C 		movl	%eax, 12(%esp)
 2731 157e 0FB64580 		movzbl	-128(%ebp),%eax
 2732 1582 89442408 		movl	%eax, 8(%esp)
 2733 1586 C7442404 		movl	$LC35, 4(%esp)
 2733      E00E0000 
 2734 158e 8B45C0   		movl	-64(%ebp), %eax
 2735 1591 890424   		movl	%eax, (%esp)
 2736 1594 E8000000 		call	_fprintf
 2736      00
 920:../../MMI/Resource/BMPLoader.c ****             outfile,
 921:../../MMI/Resource/BMPLoader.c ****             "0x%02X, 0x%02X, 0x%02X, 0x%02X, 0x%02X, 0x%02X,\n\t",
 922:../../MMI/Resource/BMPLoader.c ****             (data_size & 0x000000ff),
 923:../../MMI/Resource/BMPLoader.c ****             (data_size & 0x0000ff00) >> 8,
 924:../../MMI/Resource/BMPLoader.c ****             (data_size & 0x00ff0000) >> 16,
 925:../../MMI/Resource/BMPLoader.c ****             (width_height & 0x000000ff),
 926:../../MMI/Resource/BMPLoader.c ****             (width_height & 0x0000ff00) >> 8,
 927:../../MMI/Resource/BMPLoader.c ****             (width_height & 0x00ff0000) >> 16);
 928:../../MMI/Resource/BMPLoader.c **** 
 929:../../MMI/Resource/BMPLoader.c ****         if (is9slice)
 2738              	LM272:
 2739 1599 837D1800 		cmpl	$0, 24(%ebp)
 2740 159d 7456     		je	L149
 930:../../MMI/Resource/BMPLoader.c ****         {
 931:../../MMI/Resource/BMPLoader.c ****             /* Write 9slice file header */
 932:../../MMI/Resource/BMPLoader.c ****             ResgenImageOutStream * outstream;
 933:../../MMI/Resource/BMPLoader.c ****             ImageOutStreamInit(&outstream);
 2742              	LM273:
 2743              	LBB10:
 2744 159f 8D8578FF 		leal	-136(%ebp), %eax
 2744      FFFF
 2745 15a5 890424   		movl	%eax, (%esp)
 2746 15a8 E8000000 		call	_ImageOutStreamInit
 2746      00
 934:../../MMI/Resource/BMPLoader.c ****             mmi_rg_write_9slice_header(IMAGE_TYPE_DEVICE_BITMAP, _9slice_filename, outstream, MMI_F
GAS LISTING f:/K7_TOUR/CODE/plutommi/Customer/ResGenerator/gcctmp/ccaobaaa.s 			page 57


 2748              	LM274:
 2749 15ad C744240C 		movl	$0, 12(%esp)
 2749      00000000 
 2750 15b5 8B8578FF 		movl	-136(%ebp), %eax
 2750      FFFF
 2751 15bb 89442408 		movl	%eax, 8(%esp)
 2752 15bf 8B4514   		movl	20(%ebp), %eax
 2753 15c2 89442404 		movl	%eax, 4(%esp)
 2754 15c6 C7042404 		movl	$4, (%esp)
 2754      000000
 2755 15cd E8000000 		call	_mmi_rg_write_9slice_header
 2755      00
 935:../../MMI/Resource/BMPLoader.c ****             ImageOutStreamOutputFile(outstream, outfile);
 2757              	LM275:
 2758 15d2 8B45C0   		movl	-64(%ebp), %eax
 2759 15d5 89442404 		movl	%eax, 4(%esp)
 2760 15d9 8B8578FF 		movl	-136(%ebp), %eax
 2760      FFFF
 2761 15df 890424   		movl	%eax, (%esp)
 2762 15e2 E8000000 		call	_ImageOutStreamOutputFile
 2762      00
 936:../../MMI/Resource/BMPLoader.c ****             ImageOutStreamDeinit(&outstream);
 2764              	LM276:
 2765 15e7 8D8578FF 		leal	-136(%ebp), %eax
 2765      FFFF
 2766 15ed 890424   		movl	%eax, (%esp)
 2767 15f0 E8000000 		call	_ImageOutStreamDeinit
 2767      00
 2768              	L149:
 937:../../MMI/Resource/BMPLoader.c ****         }
 938:../../MMI/Resource/BMPLoader.c **** 
 939:../../MMI/Resource/BMPLoader.c ****         /* BMP resource header */
 940:../../MMI/Resource/BMPLoader.c ****         fprintf(
 2770              	LM277:
 2771 15f5 8B45C8   		movl	-56(%ebp), %eax
 2772              	LBE10:
 2773 15f8 25000000 		andl	$-16777216, %eax
 2773      FF
 2774 15fd C1E818   		shrl	$24, %eax
 2775 1600 89442414 		movl	%eax, 20(%esp)
 2776 1604 8B45C8   		movl	-56(%ebp), %eax
 2777 1607 250000FF 		andl	$16711680, %eax
 2777      00
 2778 160c C1F810   		sarl	$16, %eax
 2779 160f 89442410 		movl	%eax, 16(%esp)
 2780 1613 8B45C8   		movl	-56(%ebp), %eax
 2781 1616 2500FF00 		andl	$65280, %eax
 2781      00
 2782 161b C1F808   		sarl	$8, %eax
 2783 161e 8944240C 		movl	%eax, 12(%esp)
 2784 1622 0FB645C8 		movzbl	-56(%ebp),%eax
 2785 1626 89442408 		movl	%eax, 8(%esp)
 2786 162a C7442404 		movl	$LC36, 4(%esp)
 2786      200F0000 
 2787 1632 8B45C0   		movl	-64(%ebp), %eax
 2788 1635 890424   		movl	%eax, (%esp)
 2789 1638 E8000000 		call	_fprintf
GAS LISTING f:/K7_TOUR/CODE/plutommi/Customer/ResGenerator/gcctmp/ccaobaaa.s 			page 58


 2789      00
 941:../../MMI/Resource/BMPLoader.c ****             outfile,
 942:../../MMI/Resource/BMPLoader.c ****             "0x%02X, 0x%02X, 0x%02X, 0x%02X, ",
 943:../../MMI/Resource/BMPLoader.c ****             (outimage.xsize & 0x000000ff),
 944:../../MMI/Resource/BMPLoader.c ****             (outimage.xsize & 0x0000ff00) >> 8,
 945:../../MMI/Resource/BMPLoader.c ****             (outimage.xsize & 0x00ff0000) >> 16,
 946:../../MMI/Resource/BMPLoader.c ****             (outimage.xsize & 0xff000000) >> 24);
 947:../../MMI/Resource/BMPLoader.c ****         fprintf(
 2791              	LM278:
 2792 163d 8B45CC   		movl	-52(%ebp), %eax
 2793 1640 25000000 		andl	$-16777216, %eax
 2793      FF
 2794 1645 C1E818   		shrl	$24, %eax
 2795 1648 89442414 		movl	%eax, 20(%esp)
 2796 164c 8B45CC   		movl	-52(%ebp), %eax
 2797 164f 250000FF 		andl	$16711680, %eax
 2797      00
 2798 1654 C1F810   		sarl	$16, %eax
 2799 1657 89442410 		movl	%eax, 16(%esp)
 2800 165b 8B45CC   		movl	-52(%ebp), %eax
 2801 165e 2500FF00 		andl	$65280, %eax
 2801      00
 2802 1663 C1F808   		sarl	$8, %eax
 2803 1666 8944240C 		movl	%eax, 12(%esp)
 2804 166a 0FB645CC 		movzbl	-52(%ebp),%eax
 2805 166e 89442408 		movl	%eax, 8(%esp)
 2806 1672 C7442404 		movl	$LC36, 4(%esp)
 2806      200F0000 
 2807 167a 8B45C0   		movl	-64(%ebp), %eax
 2808 167d 890424   		movl	%eax, (%esp)
 2809 1680 E8000000 		call	_fprintf
 2809      00
 948:../../MMI/Resource/BMPLoader.c ****             outfile,
 949:../../MMI/Resource/BMPLoader.c ****             "0x%02X, 0x%02X, 0x%02X, 0x%02X, ",
 950:../../MMI/Resource/BMPLoader.c ****             (outimage.ysize & 0x000000ff),
 951:../../MMI/Resource/BMPLoader.c ****             (outimage.ysize & 0x0000ff00) >> 8,
 952:../../MMI/Resource/BMPLoader.c ****             (outimage.ysize & 0x00ff0000) >> 16,
 953:../../MMI/Resource/BMPLoader.c ****             (outimage.ysize & 0xff000000) >> 24);
 954:../../MMI/Resource/BMPLoader.c ****         fprintf(outfile, "0x%02X, ", outimage.color_depth);
 2811              	LM279:
 2812 1685 0FBE45D0 		movsbl	-48(%ebp),%eax
 2813 1689 89442408 		movl	%eax, 8(%esp)
 2814 168d C7442404 		movl	$LC34, 4(%esp)
 2814      C60E0000 
 2815 1695 8B45C0   		movl	-64(%ebp), %eax
 2816 1698 890424   		movl	%eax, (%esp)
 2817 169b E8000000 		call	_fprintf
 2817      00
 955:../../MMI/Resource/BMPLoader.c ****         fprintf(
 2819              	LM280:
 2820 16a0 8B45D4   		movl	-44(%ebp), %eax
 2821 16a3 25000000 		andl	$-16777216, %eax
 2821      FF
 2822 16a8 C1E818   		shrl	$24, %eax
 2823 16ab 89442414 		movl	%eax, 20(%esp)
 2824 16af 8B45D4   		movl	-44(%ebp), %eax
 2825 16b2 250000FF 		andl	$16711680, %eax
GAS LISTING f:/K7_TOUR/CODE/plutommi/Customer/ResGenerator/gcctmp/ccaobaaa.s 			page 59


 2825      00
 2826 16b7 C1F810   		sarl	$16, %eax
 2827 16ba 89442410 		movl	%eax, 16(%esp)
 2828 16be 8B45D4   		movl	-44(%ebp), %eax
 2829 16c1 2500FF00 		andl	$65280, %eax
 2829      00
 2830 16c6 C1F808   		sarl	$8, %eax
 2831 16c9 8944240C 		movl	%eax, 12(%esp)
 2832 16cd 0FB645D4 		movzbl	-44(%ebp),%eax
 2833 16d1 89442408 		movl	%eax, 8(%esp)
 2834 16d5 C7442404 		movl	$LC36, 4(%esp)
 2834      200F0000 
 2835 16dd 8B45C0   		movl	-64(%ebp), %eax
 2836 16e0 890424   		movl	%eax, (%esp)
 2837 16e3 E8000000 		call	_fprintf
 2837      00
 956:../../MMI/Resource/BMPLoader.c ****             outfile,
 957:../../MMI/Resource/BMPLoader.c ****             "0x%02X, 0x%02X, 0x%02X, 0x%02X, ",
 958:../../MMI/Resource/BMPLoader.c ****             (outimage.row_bytes & 0x000000ff),
 959:../../MMI/Resource/BMPLoader.c ****             (outimage.row_bytes & 0x0000ff00) >> 8,
 960:../../MMI/Resource/BMPLoader.c ****             (outimage.row_bytes & 0x00ff0000) >> 16,
 961:../../MMI/Resource/BMPLoader.c ****             (outimage.row_bytes & 0xff000000) >> 24);
 962:../../MMI/Resource/BMPLoader.c **** 
 963:../../MMI/Resource/BMPLoader.c ****         for (i = 0; i < bitmap_size; i++)
 2839              	LM281:
 2840 16e8 C7459C00 		movl	$0, -100(%ebp)
 2840      000000
 2841              	L150:
 2842 16ef 8B459C   		movl	-100(%ebp), %eax
 2843 16f2 3B4598   		cmpl	-104(%ebp), %eax
 2844 16f5 7C02     		jl	L153
 2845 16f7 EB44     		jmp	L151
 2846              	L153:
 964:../../MMI/Resource/BMPLoader.c ****         {
 965:../../MMI/Resource/BMPLoader.c ****             if ((i % 16) == 0)
 2848              	LM282:
 2849 16f9 8B459C   		movl	-100(%ebp), %eax
 2850 16fc 83E00F   		andl	$15, %eax
 2851 16ff 85C0     		testl	%eax, %eax
 2852 1701 7513     		jne	L154
 966:../../MMI/Resource/BMPLoader.c ****             {
 967:../../MMI/Resource/BMPLoader.c ****                 fprintf(outfile, "\n\t");
 2854              	LM283:
 2855 1703 C7442404 		movl	$LC37, 4(%esp)
 2855      410F0000 
 2856 170b 8B45C0   		movl	-64(%ebp), %eax
 2857 170e 890424   		movl	%eax, (%esp)
 2858 1711 E8000000 		call	_fprintf
 2858      00
 2859              	L154:
 968:../../MMI/Resource/BMPLoader.c ****             }
 969:../../MMI/Resource/BMPLoader.c ****             fprintf(outfile, "0x%02X, ", outimage.data[i]);
 2861              	LM284:
 2862 1716 8B459C   		movl	-100(%ebp), %eax
 2863 1719 0345DC   		addl	-36(%ebp), %eax
 2864 171c 0FB600   		movzbl	(%eax), %eax
 2865 171f 89442408 		movl	%eax, 8(%esp)
GAS LISTING f:/K7_TOUR/CODE/plutommi/Customer/ResGenerator/gcctmp/ccaobaaa.s 			page 60


 2866 1723 C7442404 		movl	$LC34, 4(%esp)
 2866      C60E0000 
 2867 172b 8B45C0   		movl	-64(%ebp), %eax
 2868 172e 890424   		movl	%eax, (%esp)
 2869 1731 E8000000 		call	_fprintf
 2869      00
 2871              	LM285:
 2872 1736 8D459C   		leal	-100(%ebp), %eax
 2873 1739 FF00     		incl	(%eax)
 2874 173b EBB2     		jmp	L150
 2875              	L151:
 970:../../MMI/Resource/BMPLoader.c ****         }
 971:../../MMI/Resource/BMPLoader.c ****         fprintf(outfile, "\n};");
 2877              	LM286:
 2878 173d C7442404 		movl	$LC38, 4(%esp)
 2878      440F0000 
 2879 1745 8B45C0   		movl	-64(%ebp), %eax
 2880 1748 890424   		movl	%eax, (%esp)
 2881 174b E8000000 		call	_fprintf
 2881      00
 2882              	L146:
 972:../../MMI/Resource/BMPLoader.c ****     }
 973:../../MMI/Resource/BMPLoader.c **** 
 974:../../MMI/Resource/BMPLoader.c ****     fclose(outfile);
 2884              	LM287:
 2885 1750 8B45C0   		movl	-64(%ebp), %eax
 2886 1753 890424   		movl	%eax, (%esp)
 2887 1756 E8000000 		call	_fclose
 2887      00
 975:../../MMI/Resource/BMPLoader.c ****     free(buffer);
 2889              	LM288:
 2890 175b 8B45A0   		movl	-96(%ebp), %eax
 2891 175e 890424   		movl	%eax, (%esp)
 2892 1761 E8000000 		call	_free
 2892      00
 976:../../MMI/Resource/BMPLoader.c ****     free(image_static_buffer);
 2894              	LM289:
 2895 1766 8B857CFF 		movl	-132(%ebp), %eax
 2895      FFFF
 2896 176c 890424   		movl	%eax, (%esp)
 2897 176f E8000000 		call	_free
 2897      00
 977:../../MMI/Resource/BMPLoader.c ****     return 1;
 2899              	LM290:
 2900 1774 C78574FF 		movl	$1, -140(%ebp)
 2900      FFFF0100 
 2900      0000
 978:../../MMI/Resource/BMPLoader.c **** }
 2902              	LM291:
 2903              	L128:
 2904              	LBE9:
 2905 177e 8B8574FF 		movl	-140(%ebp), %eax
 2905      FFFF
 2906 1784 C9       		leave
 2907 1785 C3       		ret
 2929              	Lscope5:
 2932              		.text
GAS LISTING f:/K7_TOUR/CODE/plutommi/Customer/ResGenerator/gcctmp/ccaobaaa.s 			page 61


 2934              	Letext:
GAS LISTING f:/K7_TOUR/CODE/plutommi/Customer/ResGenerator/gcctmp/ccaobaaa.s 			page 62


DEFINED SYMBOLS
                            *ABS*:00000000 BMPLoader.c
f:/K7_TOUR/CODE/plutommi/Customer/ResGenerator/gcctmp/ccaobaaa.s:505    .text:00000060 _image_resource_info
f:/K7_TOUR/CODE/plutommi/Customer/ResGenerator/gcctmp/ccaobaaa.s:588    .text:00000108 _BMP_write_color
f:/K7_TOUR/CODE/plutommi/Customer/ResGenerator/gcctmp/ccaobaaa.s:777    .text:00000243 _BMP_write_line
f:/K7_TOUR/CODE/plutommi/Customer/ResGenerator/gcctmp/ccaobaaa.s:1536   .text:000008a4 _BMP_load_file_header
f:/K7_TOUR/CODE/plutommi/Customer/ResGenerator/gcctmp/ccaobaaa.s:1591   .text:00000908 _BMP_load_info_header
f:/K7_TOUR/CODE/plutommi/Customer/ResGenerator/gcctmp/ccaobaaa.s:1689   .text:000009d3 _BMP_load
f:/K7_TOUR/CODE/plutommi/Customer/ResGenerator/gcctmp/ccaobaaa.s:2206   .text:00000f48 _BMPLoader

UNDEFINED SYMBOLS
__imp___iob
_toolFlag
_dest_file
_ImageOutStreamDeinit
_ImageOutStreamOutputFile
_ImageOutStreamInit
_mmi_rg_write_9slice_header
_Image_Get_Dimensions
_fprintf
_free
_bytestream_initialize
_fread
_malloc
_ftell
_fseek
_fclose
_reslog_adaptor_log
_fopen
_bytestream_fseek
_bytestream_fgetbyte
_memset
_bytestream_fgetdword
_bytestream_fgetword
