GAS LISTING f:/K7_TOUR/CODE/plutommi/Customer/ResGenerator/gcctmp/ccCOcaaa.s 			page 1


   1              		.file	"CmidiGen.c"
   4              		.text
   5              	Ltext0:
 158              	_chantype:
 159 0000 00       		.byte	0
 160 0001 00       		.byte	0
 161 0002 00       		.byte	0
 162 0003 00       		.byte	0
 163 0004 00       		.byte	0
 164 0005 00       		.byte	0
 165 0006 00       		.byte	0
 166 0007 00       		.byte	0
 167 0008 02       		.byte	2
 168 0009 02       		.byte	2
 169 000a 02       		.byte	2
 170 000b 02       		.byte	2
 171 000c 01       		.byte	1
 172 000d 01       		.byte	1
 173 000e 02       		.byte	2
 174 000f 00       		.byte	0
 178              	_get32bit:
   1:../../MMI/Resource/CmidiGen.c **** /*****************************************************************************
   2:../../MMI/Resource/CmidiGen.c **** *  Copyright Statement:
   3:../../MMI/Resource/CmidiGen.c **** *  --------------------
   4:../../MMI/Resource/CmidiGen.c **** *  This software is protected by Copyright and the information contained
   5:../../MMI/Resource/CmidiGen.c **** *  herein is confidential. The software may not be copied and the information
   6:../../MMI/Resource/CmidiGen.c **** *  contained herein may not be used or disclosed except with the written
   7:../../MMI/Resource/CmidiGen.c **** *  permission of MediaTek Inc. (C) 2005
   8:../../MMI/Resource/CmidiGen.c **** *
   9:../../MMI/Resource/CmidiGen.c **** *  BY OPENING THIS FILE, BUYER HEREBY UNEQUIVOCALLY ACKNOWLEDGES AND AGREES
  10:../../MMI/Resource/CmidiGen.c **** *  THAT THE SOFTWARE/FIRMWARE AND ITS DOCUMENTATIONS ("MEDIATEK SOFTWARE")
  11:../../MMI/Resource/CmidiGen.c **** *  RECEIVED FROM MEDIATEK AND/OR ITS REPRESENTATIVES ARE PROVIDED TO BUYER ON
  12:../../MMI/Resource/CmidiGen.c **** *  AN "AS-IS" BASIS ONLY. MEDIATEK EXPRESSLY DISCLAIMS ANY AND ALL WARRANTIES,
  13:../../MMI/Resource/CmidiGen.c **** *  EXPRESS OR IMPLIED, INCLUDING BUT NOT LIMITED TO THE IMPLIED WARRANTIES OF
  14:../../MMI/Resource/CmidiGen.c **** *  MERCHANTABILITY, FITNESS FOR A PARTICULAR PURPOSE OR NONINFRINGEMENT.
  15:../../MMI/Resource/CmidiGen.c **** *  NEITHER DOES MEDIATEK PROVIDE ANY WARRANTY WHATSOEVER WITH RESPECT TO THE
  16:../../MMI/Resource/CmidiGen.c **** *  SOFTWARE OF ANY THIRD PARTY WHICH MAY BE USED BY, INCORPORATED IN, OR
  17:../../MMI/Resource/CmidiGen.c **** *  SUPPLIED WITH THE MEDIATEK SOFTWARE, AND BUYER AGREES TO LOOK ONLY TO SUCH
  18:../../MMI/Resource/CmidiGen.c **** *  THIRD PARTY FOR ANY WARRANTY CLAIM RELATING THERETO. MEDIATEK SHALL ALSO
  19:../../MMI/Resource/CmidiGen.c **** *  NOT BE RESPONSIBLE FOR ANY MEDIATEK SOFTWARE RELEASES MADE TO BUYER'S
  20:../../MMI/Resource/CmidiGen.c **** *  SPECIFICATION OR TO CONFORM TO A PARTICULAR STANDARD OR OPEN FORUM.
  21:../../MMI/Resource/CmidiGen.c **** *
  22:../../MMI/Resource/CmidiGen.c **** *  BUYER'S SOLE AND EXCLUSIVE REMEDY AND MEDIATEK'S ENTIRE AND CUMULATIVE
  23:../../MMI/Resource/CmidiGen.c **** *  LIABILITY WITH RESPECT TO THE MEDIATEK SOFTWARE RELEASED HEREUNDER WILL BE,
  24:../../MMI/Resource/CmidiGen.c **** *  AT MEDIATEK'S OPTION, TO REVISE OR REPLACE THE MEDIATEK SOFTWARE AT ISSUE,
  25:../../MMI/Resource/CmidiGen.c **** *  OR REFUND ANY SOFTWARE LICENSE FEES OR SERVICE CHARGE PAID BY BUYER TO
  26:../../MMI/Resource/CmidiGen.c **** *  MEDIATEK FOR SUCH MEDIATEK SOFTWARE AT ISSUE. 
  27:../../MMI/Resource/CmidiGen.c **** *
  28:../../MMI/Resource/CmidiGen.c **** *  THE TRANSACTION CONTEMPLATED HEREUNDER SHALL BE CONSTRUED IN ACCORDANCE
  29:../../MMI/Resource/CmidiGen.c **** *  WITH THE LAWS OF THE STATE OF CALIFORNIA, USA, EXCLUDING ITS CONFLICT OF
  30:../../MMI/Resource/CmidiGen.c **** *  LAWS PRINCIPLES.  ANY DISPUTES, CONTROVERSIES OR CLAIMS ARISING THEREOF AND
  31:../../MMI/Resource/CmidiGen.c **** *  RELATED THERETO SHALL BE SETTLED BY ARBITRATION IN SAN FRANCISCO, CA, UNDER
  32:../../MMI/Resource/CmidiGen.c **** *  THE RULES OF THE INTERNATIONAL CHAMBER OF COMMERCE (ICC).
  33:../../MMI/Resource/CmidiGen.c **** *
  34:../../MMI/Resource/CmidiGen.c **** *****************************************************************************/
  35:../../MMI/Resource/CmidiGen.c **** 
  36:../../MMI/Resource/CmidiGen.c **** /*******************************************************************************
GAS LISTING f:/K7_TOUR/CODE/plutommi/Customer/ResGenerator/gcctmp/ccCOcaaa.s 			page 2


  37:../../MMI/Resource/CmidiGen.c ****  * Filename:
  38:../../MMI/Resource/CmidiGen.c ****  * ---------
  39:../../MMI/Resource/CmidiGen.c ****  *  CmidiGen.c
  40:../../MMI/Resource/CmidiGen.c ****  *
  41:../../MMI/Resource/CmidiGen.c ****  * Project:
  42:../../MMI/Resource/CmidiGen.c ****  * --------
  43:../../MMI/Resource/CmidiGen.c ****  *  MAUI
  44:../../MMI/Resource/CmidiGen.c ****  *
  45:../../MMI/Resource/CmidiGen.c ****  * Description:
  46:../../MMI/Resource/CmidiGen.c ****  * ------------
  47:../../MMI/Resource/CmidiGen.c ****  *  
  48:../../MMI/Resource/CmidiGen.c ****  *
  49:../../MMI/Resource/CmidiGen.c ****  * Author:
  50:../../MMI/Resource/CmidiGen.c ****  * -------
  51:../../MMI/Resource/CmidiGen.c ****  *  
  52:../../MMI/Resource/CmidiGen.c ****  *
  53:../../MMI/Resource/CmidiGen.c ****  *==============================================================================
  54:../../MMI/Resource/CmidiGen.c ****  *             HISTORY
  55:../../MMI/Resource/CmidiGen.c ****  * Below this line, this part is controlled by PVCS VM. DO NOT MODIFY!! 
  56:../../MMI/Resource/CmidiGen.c ****  *------------------------------------------------------------------------------
  57:../../MMI/Resource/CmidiGen.c ****  * removed!
  58:../../MMI/Resource/CmidiGen.c ****  *
  59:../../MMI/Resource/CmidiGen.c ****  * removed!
  60:../../MMI/Resource/CmidiGen.c ****  * removed!
  61:../../MMI/Resource/CmidiGen.c ****  * removed!
  62:../../MMI/Resource/CmidiGen.c ****  *
  63:../../MMI/Resource/CmidiGen.c ****  * removed!
  64:../../MMI/Resource/CmidiGen.c ****  * removed!
  65:../../MMI/Resource/CmidiGen.c ****  * removed!
  66:../../MMI/Resource/CmidiGen.c ****  *
  67:../../MMI/Resource/CmidiGen.c ****  * removed!
  68:../../MMI/Resource/CmidiGen.c ****  * removed!
  69:../../MMI/Resource/CmidiGen.c ****  * removed!
  70:../../MMI/Resource/CmidiGen.c ****  *
  71:../../MMI/Resource/CmidiGen.c ****  * removed!
  72:../../MMI/Resource/CmidiGen.c ****  * removed!
  73:../../MMI/Resource/CmidiGen.c ****  * removed!
  74:../../MMI/Resource/CmidiGen.c ****  *
  75:../../MMI/Resource/CmidiGen.c ****  * removed!
  76:../../MMI/Resource/CmidiGen.c ****  * removed!
  77:../../MMI/Resource/CmidiGen.c ****  * removed!
  78:../../MMI/Resource/CmidiGen.c ****  *
  79:../../MMI/Resource/CmidiGen.c ****  * removed!
  80:../../MMI/Resource/CmidiGen.c ****  * removed!
  81:../../MMI/Resource/CmidiGen.c ****  * removed!
  82:../../MMI/Resource/CmidiGen.c ****  *
  83:../../MMI/Resource/CmidiGen.c ****  * removed!
  84:../../MMI/Resource/CmidiGen.c ****  * removed!
  85:../../MMI/Resource/CmidiGen.c ****  * removed!
  86:../../MMI/Resource/CmidiGen.c ****  *
  87:../../MMI/Resource/CmidiGen.c ****  * removed!
  88:../../MMI/Resource/CmidiGen.c ****  *
  89:../../MMI/Resource/CmidiGen.c ****  *------------------------------------------------------------------------------
  90:../../MMI/Resource/CmidiGen.c ****  * Upper this line, this part is controlled by PVCS VM. DO NOT MODIFY!! 
  91:../../MMI/Resource/CmidiGen.c ****  *==============================================================================
  92:../../MMI/Resource/CmidiGen.c ****  *******************************************************************************/
  93:../../MMI/Resource/CmidiGen.c **** 
GAS LISTING f:/K7_TOUR/CODE/plutommi/Customer/ResGenerator/gcctmp/ccCOcaaa.s 			page 3


  94:../../MMI/Resource/CmidiGen.c **** 
  95:../../MMI/Resource/CmidiGen.c **** // Audio_Converter.cpp : Defines the entry point for the DLL application.
  96:../../MMI/Resource/CmidiGen.c **** //
  97:../../MMI/Resource/CmidiGen.c **** //#define LOCALSIM
  98:../../MMI/Resource/CmidiGen.c **** #ifdef LOCALSIM
  99:../../MMI/Resource/CmidiGen.c **** #include "..\inc\CmidiGen.h"
 100:../../MMI/Resource/CmidiGen.c **** #include <stdio.h>
 101:../../MMI/Resource/CmidiGen.c **** #include <stdlib.h>
 102:../../MMI/Resource/CmidiGen.c **** #include <assert.h>
 103:../../MMI/Resource/CmidiGen.c **** #else
 104:../../MMI/Resource/CmidiGen.c **** #include "CmidiGen.h"
 105:../../MMI/Resource/CmidiGen.c **** #endif
 106:../../MMI/Resource/CmidiGen.c **** 
 107:../../MMI/Resource/CmidiGen.c **** #include "CustDataProts.h"
 108:../../MMI/Resource/CmidiGen.c **** #include "ResgenLogCAPI.h"
 109:../../MMI/Resource/CmidiGen.c **** 
 110:../../MMI/Resource/CmidiGen.c **** #define CMIDIGEN_TAG       "CMIDIGEN"
 111:../../MMI/Resource/CmidiGen.c **** #define CMIDIGEN_LOG_D(format, args...) RES_LOG_D((CMIDIGEN_TAG), (format) , ##args)
 112:../../MMI/Resource/CmidiGen.c **** #define CMIDIGEN_LOG_V(format, args...) RES_LOG_V((CMIDIGEN_TAG), (format) , ##args)
 113:../../MMI/Resource/CmidiGen.c **** #define CMIDIGEN_LOG_W(format, args...) RES_LOG_W((CMIDIGEN_TAG), (format) , ##args)
 114:../../MMI/Resource/CmidiGen.c **** #define CMIDIGEN_LOG_E(format, args...) RES_LOG_E((CMIDIGEN_TAG), (format) , ##args)
 115:../../MMI/Resource/CmidiGen.c **** 
 116:../../MMI/Resource/CmidiGen.c **** #ifdef LOCALSIM
 117:../../MMI/Resource/CmidiGen.c **** #define TRACE1(s,t)  \
 118:../../MMI/Resource/CmidiGen.c ****    if( ihdl->debug ) { \
 119:../../MMI/Resource/CmidiGen.c ****       printf(s, t * ihdl->time_div );    \
 120:../../MMI/Resource/CmidiGen.c ****    }
 121:../../MMI/Resource/CmidiGen.c **** 
 122:../../MMI/Resource/CmidiGen.c **** #define TRACE2(s,t,a)     \
 123:../../MMI/Resource/CmidiGen.c ****    if( ihdl->debug ) { \
 124:../../MMI/Resource/CmidiGen.c ****       printf(s, t * ihdl->time_div, a );  \
 125:../../MMI/Resource/CmidiGen.c ****    }
 126:../../MMI/Resource/CmidiGen.c **** 
 127:../../MMI/Resource/CmidiGen.c **** #define TRACE3(s,t,a,b)    \
 128:../../MMI/Resource/CmidiGen.c ****    if( ihdl->debug ) { \
 129:../../MMI/Resource/CmidiGen.c ****       printf(s, t * ihdl->time_div, a, b );  \
 130:../../MMI/Resource/CmidiGen.c ****    }
 131:../../MMI/Resource/CmidiGen.c **** 
 132:../../MMI/Resource/CmidiGen.c **** #define TRACE4(s,t,a,b,c)    \
 133:../../MMI/Resource/CmidiGen.c ****    if( ihdl->debug ) { \
 134:../../MMI/Resource/CmidiGen.c ****       printf(s, t * ihdl->time_div, a, b, c );  \
 135:../../MMI/Resource/CmidiGen.c ****    }
 136:../../MMI/Resource/CmidiGen.c **** #else    /* CMIDI_STANDALONE */
 137:../../MMI/Resource/CmidiGen.c **** #define TRACE1(s,t) 
 138:../../MMI/Resource/CmidiGen.c **** #define TRACE2(s,t,a)
 139:../../MMI/Resource/CmidiGen.c **** #define TRACE3(s,t,a,b) 
 140:../../MMI/Resource/CmidiGen.c **** #define TRACE4(s,t,a,b,c) 
 141:../../MMI/Resource/CmidiGen.c **** #endif
 142:../../MMI/Resource/CmidiGen.c **** 
 143:../../MMI/Resource/CmidiGen.c **** 
 144:../../MMI/Resource/CmidiGen.c **** #ifndef ASSERT
 145:../../MMI/Resource/CmidiGen.c **** #define ASSERT(expr) 
 146:../../MMI/Resource/CmidiGen.c **** #endif
 147:../../MMI/Resource/CmidiGen.c **** 
 148:../../MMI/Resource/CmidiGen.c **** 
 149:../../MMI/Resource/CmidiGen.c **** #ifndef NULL
 150:../../MMI/Resource/CmidiGen.c **** #define NULL (void*)0
GAS LISTING f:/K7_TOUR/CODE/plutommi/Customer/ResGenerator/gcctmp/ccCOcaaa.s 			page 4


 151:../../MMI/Resource/CmidiGen.c **** #endif
 152:../../MMI/Resource/CmidiGen.c **** 
 153:../../MMI/Resource/CmidiGen.c **** typedef unsigned char            c_uint8;
 154:../../MMI/Resource/CmidiGen.c **** typedef signed char              c_int8;
 155:../../MMI/Resource/CmidiGen.c **** typedef unsigned short           c_uint16;
 156:../../MMI/Resource/CmidiGen.c **** typedef signed short             c_int16;
 157:../../MMI/Resource/CmidiGen.c **** typedef unsigned int             c_uint32;
 158:../../MMI/Resource/CmidiGen.c **** typedef signed int               c_int32;
 159:../../MMI/Resource/CmidiGen.c **** #define TRUE           1
 160:../../MMI/Resource/CmidiGen.c **** #define FALSE          0
 161:../../MMI/Resource/CmidiGen.c **** 
 162:../../MMI/Resource/CmidiGen.c **** #define MAX_TRACK                32
 163:../../MMI/Resource/CmidiGen.c **** //#define ASSERT                   assert
 164:../../MMI/Resource/CmidiGen.c **** #define VOLUME_QUANTIZE
 165:../../MMI/Resource/CmidiGen.c **** #define MAX_MIDI_EVENTS          19
 166:../../MMI/Resource/CmidiGen.c **** #define BLOCK_PERIOD             18
 167:../../MMI/Resource/CmidiGen.c **** 
 168:../../MMI/Resource/CmidiGen.c **** 
 169:../../MMI/Resource/CmidiGen.c **** #define ME_DTIME                 0
 170:../../MMI/Resource/CmidiGen.c **** #define ME_NOTEON                1
 171:../../MMI/Resource/CmidiGen.c **** #define ME_NOTEOFF               2
 172:../../MMI/Resource/CmidiGen.c **** #define ME_KEY_PRESSURE          3
 173:../../MMI/Resource/CmidiGen.c **** #define ME_MAINVOLUME            4
 174:../../MMI/Resource/CmidiGen.c **** #define ME_PAN                   5
 175:../../MMI/Resource/CmidiGen.c **** #define ME_SUSTAIN               6
 176:../../MMI/Resource/CmidiGen.c **** #define ME_EXPRESSION            7
 177:../../MMI/Resource/CmidiGen.c **** #define ME_PITCH_WHEEL           8
 178:../../MMI/Resource/CmidiGen.c **** #define ME_PITCH_SENS            9
 179:../../MMI/Resource/CmidiGen.c **** #define ME_PROGRAM               10
 180:../../MMI/Resource/CmidiGen.c **** #define ME_CHANNEL_PRESSURE      11
 181:../../MMI/Resource/CmidiGen.c **** #define ME_TONE_BANK_HI          12
 182:../../MMI/Resource/CmidiGen.c **** #define ME_ALL_NOTES_OFF         13
 183:../../MMI/Resource/CmidiGen.c **** #define ME_ALL_SOUNDS_OFF        14
 184:../../MMI/Resource/CmidiGen.c **** #define ME_RESET_CONTROLLERS     15
 185:../../MMI/Resource/CmidiGen.c **** #define ME_MODULATION_WHEEL      16
 186:../../MMI/Resource/CmidiGen.c **** #define ME_TEMPO                 17
 187:../../MMI/Resource/CmidiGen.c **** #define ME_TONE_BANK_LO          18
 188:../../MMI/Resource/CmidiGen.c **** 
 189:../../MMI/Resource/CmidiGen.c **** 
 190:../../MMI/Resource/CmidiGen.c **** typedef struct {
 191:../../MMI/Resource/CmidiGen.c ****    c_int32       ticks;
 192:../../MMI/Resource/CmidiGen.c ****    c_int32       toberead;
 193:../../MMI/Resource/CmidiGen.c ****    const c_uint8 *ptr;
 194:../../MMI/Resource/CmidiGen.c ****    c_uint32      status;
 195:../../MMI/Resource/CmidiGen.c ****    c_int8        running;
 196:../../MMI/Resource/CmidiGen.c **** } TrkParam;
 197:../../MMI/Resource/CmidiGen.c **** 
 198:../../MMI/Resource/CmidiGen.c **** typedef struct midievent {
 199:../../MMI/Resource/CmidiGen.c ****   c_uint8     type;
 200:../../MMI/Resource/CmidiGen.c ****   c_uint8     ch;
 201:../../MMI/Resource/CmidiGen.c ****   c_uint8     c1;
 202:../../MMI/Resource/CmidiGen.c ****   c_uint8     c2;
 203:../../MMI/Resource/CmidiGen.c ****   c_int32     dtime;
 204:../../MMI/Resource/CmidiGen.c ****   struct midievent *next;
 205:../../MMI/Resource/CmidiGen.c **** } MidiEvent;
 206:../../MMI/Resource/CmidiGen.c **** 
 207:../../MMI/Resource/CmidiGen.c **** typedef struct{
GAS LISTING f:/K7_TOUR/CODE/plutommi/Customer/ResGenerator/gcctmp/ccCOcaaa.s 			page 5


 208:../../MMI/Resource/CmidiGen.c ****    c_int32       duration;
 209:../../MMI/Resource/CmidiGen.c ****    c_int32       active_tempo;
 210:../../MMI/Resource/CmidiGen.c ****    c_int16       division;
 211:../../MMI/Resource/CmidiGen.c ****    c_int32       acc_ticks;
 212:../../MMI/Resource/CmidiGen.c ****    c_int32       acc_20ms;
 213:../../MMI/Resource/CmidiGen.c ****    c_int32       time_div;
 214:../../MMI/Resource/CmidiGen.c ****    c_int32       evtcount;
 215:../../MMI/Resource/CmidiGen.c ****    c_int8        nrpn;
 216:../../MMI/Resource/CmidiGen.c ****    c_int8        rpn_msb[16];
 217:../../MMI/Resource/CmidiGen.c ****    c_int8        rpn_lsb[16];
 218:../../MMI/Resource/CmidiGen.c ****    TrkParam      tracks[MAX_TRACK];
 219:../../MMI/Resource/CmidiGen.c ****    MidiEvent     *event_head;
 220:../../MMI/Resource/CmidiGen.c ****    MidiEvent     *event_tail;
 221:../../MMI/Resource/CmidiGen.c ****    MidiEvent     *event_index;
 222:../../MMI/Resource/CmidiGen.c ****    c_int8        debug;
 223:../../MMI/Resource/CmidiGen.c ****    c_uint16      cache;
 224:../../MMI/Resource/CmidiGen.c ****    c_uint16      bits;
 225:../../MMI/Resource/CmidiGen.c ****    c_uint8       old_channel;
 226:../../MMI/Resource/CmidiGen.c ****    c_uint8       old_octave;
 227:../../MMI/Resource/CmidiGen.c ****    c_int32       total_events;
 228:../../MMI/Resource/CmidiGen.c ****    c_int32       output_bytes;
 229:../../MMI/Resource/CmidiGen.c ****    c_int32       statistic[MAX_MIDI_EVENTS];
 230:../../MMI/Resource/CmidiGen.c **** }CMIDI_Handle_Int;
 231:../../MMI/Resource/CmidiGen.c **** 
 232:../../MMI/Resource/CmidiGen.c **** /* -------------------------------------------------------------------------------------- */
 233:../../MMI/Resource/CmidiGen.c **** const static c_int8 chantype[] = {
 234:../../MMI/Resource/CmidiGen.c ****    0, 0, 0, 0, 0, 0, 0, 0,    /* 0x00 through 0x70 */
 235:../../MMI/Resource/CmidiGen.c ****    2, 2, 2, 2, 1, 1, 2, 0     /* 0x80 through 0xf0 */
 236:../../MMI/Resource/CmidiGen.c **** };
 237:../../MMI/Resource/CmidiGen.c **** 
 238:../../MMI/Resource/CmidiGen.c **** /* -------------------------------------------------------------------------------------- */
 239:../../MMI/Resource/CmidiGen.c **** static c_uint32 get32bit( const c_uint8 *s )
 240:../../MMI/Resource/CmidiGen.c **** {
 180              	LM1:
 181 0010 55       		pushl	%ebp
 182 0011 89E5     		movl	%esp, %ebp
 241:../../MMI/Resource/CmidiGen.c ****    return ((c_uint32)s[0] << 24) + ((c_uint32)s[1] << 16) + ((c_uint32)s[2] << 8) + (c_uint32)s[3];
 184              	LM2:
 185 0013 8B4508   		movl	8(%ebp), %eax
 186 0016 0FB600   		movzbl	(%eax), %eax
 187 0019 C1E018   		sall	$24, %eax
 188 001c 8B5508   		movl	8(%ebp), %edx
 189 001f 42       		incl	%edx
 190 0020 0FB612   		movzbl	(%edx), %edx
 191 0023 C1E210   		sall	$16, %edx
 192 0026 01D0     		addl	%edx, %eax
 193 0028 8B5508   		movl	8(%ebp), %edx
 194 002b 83C202   		addl	$2, %edx
 195 002e 0FB612   		movzbl	(%edx), %edx
 196 0031 C1E208   		sall	$8, %edx
 197 0034 01D0     		addl	%edx, %eax
 198 0036 8B5508   		movl	8(%ebp), %edx
 199 0039 83C203   		addl	$3, %edx
 200 003c 0FB612   		movzbl	(%edx), %edx
 201 003f 01D0     		addl	%edx, %eax
 242:../../MMI/Resource/CmidiGen.c **** }
 203              	LM3:
GAS LISTING f:/K7_TOUR/CODE/plutommi/Customer/ResGenerator/gcctmp/ccCOcaaa.s 			page 6


 204 0041 5D       		popl	%ebp
 205 0042 C3       		ret
 206              	Lscope0:
 211              	_get16bit:
 243:../../MMI/Resource/CmidiGen.c **** 
 244:../../MMI/Resource/CmidiGen.c **** 
 245:../../MMI/Resource/CmidiGen.c **** static c_uint16 get16bit( const c_uint8 *s )
 246:../../MMI/Resource/CmidiGen.c **** {
 213              	LM4:
 214 0043 55       		pushl	%ebp
 215 0044 89E5     		movl	%esp, %ebp
 247:../../MMI/Resource/CmidiGen.c ****    return (c_uint16)(((c_uint16)s[0] << 8) + (c_uint16)s[1]);
 217              	LM5:
 218 0046 8B4508   		movl	8(%ebp), %eax
 219 0049 0FB600   		movzbl	(%eax), %eax
 220 004c 89C1     		movl	%eax, %ecx
 221 004e C1E108   		sall	$8, %ecx
 222 0051 8B4508   		movl	8(%ebp), %eax
 223 0054 40       		incl	%eax
 224 0055 660FB610 		movzbw	(%eax), %dx
 225 0059 89C8     		movl	%ecx, %eax
 226 005b 8D0410   		leal	(%eax,%edx), %eax
 227 005e 0FB7C0   		movzwl	%ax, %eax
 248:../../MMI/Resource/CmidiGen.c **** }
 229              	LM6:
 230 0061 5D       		popl	%ebp
 231 0062 C3       		ret
 232              	Lscope1:
 237              	_egetc:
 249:../../MMI/Resource/CmidiGen.c **** 
 250:../../MMI/Resource/CmidiGen.c **** static c_uint8 egetc( TrkParam *trk )       /* read a single character and abort on EOF */
 251:../../MMI/Resource/CmidiGen.c **** {
 239              	LM7:
 240 0063 55       		pushl	%ebp
 241 0064 89E5     		movl	%esp, %ebp
 242 0066 83EC04   		subl	$4, %esp
 252:../../MMI/Resource/CmidiGen.c ****    if( trk->toberead > 0 ) {
 244              	LM8:
 245 0069 8B4508   		movl	8(%ebp), %eax
 246 006c 83780400 		cmpl	$0, 4(%eax)
 247 0070 7E17     		jle	L6
 253:../../MMI/Resource/CmidiGen.c ****       trk->toberead--;
 249              	LM9:
 250 0072 8B4508   		movl	8(%ebp), %eax
 251 0075 FF4804   		decl	4(%eax)
 254:../../MMI/Resource/CmidiGen.c ****       return *trk->ptr++;
 253              	LM10:
 254 0078 8B4508   		movl	8(%ebp), %eax
 255 007b 8B5008   		movl	8(%eax), %edx
 256 007e 0FB612   		movzbl	(%edx), %edx
 257 0081 FF4008   		incl	8(%eax)
 258 0084 8955FC   		movl	%edx, -4(%ebp)
 259 0087 EB07     		jmp	L5
 260              	L6:
 255:../../MMI/Resource/CmidiGen.c ****    }
 256:../../MMI/Resource/CmidiGen.c ****    return -1;
 262              	LM11:
GAS LISTING f:/K7_TOUR/CODE/plutommi/Customer/ResGenerator/gcctmp/ccCOcaaa.s 			page 7


 263 0089 C745FCFF 		movl	$255, -4(%ebp)
 263      000000
 257:../../MMI/Resource/CmidiGen.c **** }
 265              	LM12:
 266              	L5:
 267 0090 8B45FC   		movl	-4(%ebp), %eax
 268 0093 C9       		leave
 269 0094 C3       		ret
 270              	Lscope2:
 272              	LC0:
 273 0095 67657456 		.ascii "getVarNum:  trk = %x\0"
 273      61724E75 
 273      6D3A2020 
 273      74726B20 
 273      3D202578 
 274              	LC1:
 275 00aa 434D4944 		.ascii "CMIDIGEN\0"
 275      4947454E 
 275      00
 276 00b3 8DB60000 		.align 32
 276      00008DBC 
 276      27000000 
 276      00
 277              	LC2:
 278 00c0 67657456 		.ascii "getVarNum:  ptr = %x,  count = %d\0"
 278      61724E75 
 278      6D3A2020 
 278      70747220 
 278      3D202578 
 279 00e2 90909090 		.align 32
 279      90909090 
 279      90909090 
 279      90909090 
 279      90909090 
 280              	LC3:
 281 0100 67657456 		.ascii "getVarNum: afterwards, trk->ptr = %x,  count = %d\0"
 281      61724E75 
 281      6D3A2061 
 281      66746572 
 281      77617264 
 285              	_getVarNum:
 258:../../MMI/Resource/CmidiGen.c **** 
 259:../../MMI/Resource/CmidiGen.c **** static c_int32 getVarNum( TrkParam *trk )
 260:../../MMI/Resource/CmidiGen.c **** {
 287              	LM13:
 288 0132 55       		pushl	%ebp
 289 0133 89E5     		movl	%esp, %ebp
 290 0135 83EC28   		subl	$40, %esp
 261:../../MMI/Resource/CmidiGen.c **** 	 {
 262:../../MMI/Resource/CmidiGen.c ****    CMIDIGEN_LOG_V("getVarNum:  trk = %x", trk);
 292              	LM14:
 293              	LBB2:
 294 0138 8B4508   		movl	8(%ebp), %eax
 295 013b 8944240C 		movl	%eax, 12(%esp)
 296 013f C7442408 		movl	$LC0, 8(%esp)
 296      95000000 
 297 0147 C7442404 		movl	$LC1, 4(%esp)
GAS LISTING f:/K7_TOUR/CODE/plutommi/Customer/ResGenerator/gcctmp/ccCOcaaa.s 			page 8


 297      AA000000 
 298 014f C7042401 		movl	$1, (%esp)
 298      000000
 299 0156 E8000000 		call	_reslog_adaptor_log
 299      00
 263:../../MMI/Resource/CmidiGen.c ****    CMIDIGEN_LOG_V("getVarNum:  ptr = %x,  count = %d",  trk->ptr, trk->toberead);
 301              	LM15:
 302 015b 8B4508   		movl	8(%ebp), %eax
 303 015e 8B4004   		movl	4(%eax), %eax
 304 0161 89442410 		movl	%eax, 16(%esp)
 305 0165 8B4508   		movl	8(%ebp), %eax
 306 0168 8B4008   		movl	8(%eax), %eax
 307 016b 8944240C 		movl	%eax, 12(%esp)
 308 016f C7442408 		movl	$LC2, 8(%esp)
 308      C0000000 
 309 0177 C7442404 		movl	$LC1, 4(%esp)
 309      AA000000 
 310 017f C7042401 		movl	$1, (%esp)
 310      000000
 311 0186 E8000000 		call	_reslog_adaptor_log
 311      00
 264:../../MMI/Resource/CmidiGen.c **** 	 }
 265:../../MMI/Resource/CmidiGen.c **** 	 
 266:../../MMI/Resource/CmidiGen.c ****    c_int32 value;
 267:../../MMI/Resource/CmidiGen.c ****    c_int16 c;
 268:../../MMI/Resource/CmidiGen.c ****    const c_uint8 *ptr = trk->ptr;
 313              	LM16:
 314 018b 8B4508   		movl	8(%ebp), %eax
 315 018e 8B4008   		movl	8(%eax), %eax
 316 0191 8945F4   		movl	%eax, -12(%ebp)
 269:../../MMI/Resource/CmidiGen.c ****    c_int32 count = trk->toberead;
 318              	LM17:
 319 0194 8B4508   		movl	8(%ebp), %eax
 320 0197 8B4004   		movl	4(%eax), %eax
 321 019a 8945F0   		movl	%eax, -16(%ebp)
 270:../../MMI/Resource/CmidiGen.c ****    
 271:../../MMI/Resource/CmidiGen.c ****    if( count < 0 )  return -1;
 323              	LM18:
 324 019d 837DF000 		cmpl	$0, -16(%ebp)
 325 01a1 790C     		jns	L8
 326 01a3 C745ECFF 		movl	$-1, -20(%ebp)
 326      FFFFFF
 327 01aa E9040100 		jmp	L7
 327      00
 328              	L8:
 272:../../MMI/Resource/CmidiGen.c ****    c = *ptr++;          count--;
 330              	LM19:
 331 01af 8B45F4   		movl	-12(%ebp), %eax
 332 01b2 660FB600 		movzbw	(%eax), %ax
 333 01b6 668945FA 		movw	%ax, -6(%ebp)
 334 01ba 8D45F4   		leal	-12(%ebp), %eax
 335 01bd FF00     		incl	(%eax)
 336 01bf 8D45F0   		leal	-16(%ebp), %eax
 337 01c2 FF08     		decl	(%eax)
 273:../../MMI/Resource/CmidiGen.c ****    value = c & 0x7F;
 339              	LM20:
 340 01c4 0FBF45FA 		movswl	-6(%ebp),%eax
GAS LISTING f:/K7_TOUR/CODE/plutommi/Customer/ResGenerator/gcctmp/ccCOcaaa.s 			page 9


 341 01c8 83E07F   		andl	$127, %eax
 342 01cb 8945FC   		movl	%eax, -4(%ebp)
 274:../../MMI/Resource/CmidiGen.c ****    if( c & 0x80 ) {
 344              	LM21:
 345 01ce B080     		movb	$-128, %al
 346 01d0 2245FA   		andb	-6(%ebp), %al
 347 01d3 84C0     		testb	%al, %al
 348 01d5 0F849000 		je	L9
 348      0000
 275:../../MMI/Resource/CmidiGen.c ****       c = *ptr++;          count--;
 350              	LM22:
 351 01db 8B45F4   		movl	-12(%ebp), %eax
 352 01de 660FB600 		movzbw	(%eax), %ax
 353 01e2 668945FA 		movw	%ax, -6(%ebp)
 354 01e6 8D45F4   		leal	-12(%ebp), %eax
 355 01e9 FF00     		incl	(%eax)
 356 01eb 8D45F0   		leal	-16(%ebp), %eax
 357 01ee FF08     		decl	(%eax)
 276:../../MMI/Resource/CmidiGen.c ****       value = (value << 7) + (c & 0x7f);
 359              	LM23:
 360 01f0 8B45FC   		movl	-4(%ebp), %eax
 361 01f3 89C2     		movl	%eax, %edx
 362 01f5 C1E207   		sall	$7, %edx
 363 01f8 0FBF45FA 		movswl	-6(%ebp),%eax
 364 01fc 83E07F   		andl	$127, %eax
 365 01ff 8D0410   		leal	(%eax,%edx), %eax
 366 0202 8945FC   		movl	%eax, -4(%ebp)
 277:../../MMI/Resource/CmidiGen.c ****       if( c & 0x80 ) {
 368              	LM24:
 369 0205 B080     		movb	$-128, %al
 370 0207 2245FA   		andb	-6(%ebp), %al
 371 020a 84C0     		testb	%al, %al
 372 020c 745D     		je	L9
 278:../../MMI/Resource/CmidiGen.c ****          c = *ptr++;          count--;
 374              	LM25:
 375 020e 8B45F4   		movl	-12(%ebp), %eax
 376 0211 660FB600 		movzbw	(%eax), %ax
 377 0215 668945FA 		movw	%ax, -6(%ebp)
 378 0219 8D45F4   		leal	-12(%ebp), %eax
 379 021c FF00     		incl	(%eax)
 380 021e 8D45F0   		leal	-16(%ebp), %eax
 381 0221 FF08     		decl	(%eax)
 279:../../MMI/Resource/CmidiGen.c ****          value = (value << 7) + (c & 0x7f);
 383              	LM26:
 384 0223 8B45FC   		movl	-4(%ebp), %eax
 385 0226 89C2     		movl	%eax, %edx
 386 0228 C1E207   		sall	$7, %edx
 387 022b 0FBF45FA 		movswl	-6(%ebp),%eax
 388 022f 83E07F   		andl	$127, %eax
 389 0232 8D0410   		leal	(%eax,%edx), %eax
 390 0235 8945FC   		movl	%eax, -4(%ebp)
 280:../../MMI/Resource/CmidiGen.c ****          if( c & 0x80 ) {
 392              	LM27:
 393 0238 B080     		movb	$-128, %al
 394 023a 2245FA   		andb	-6(%ebp), %al
 395 023d 84C0     		testb	%al, %al
 396 023f 742A     		je	L9
GAS LISTING f:/K7_TOUR/CODE/plutommi/Customer/ResGenerator/gcctmp/ccCOcaaa.s 			page 10


 281:../../MMI/Resource/CmidiGen.c ****             c = *ptr++;          count--;
 398              	LM28:
 399 0241 8B45F4   		movl	-12(%ebp), %eax
 400 0244 660FB600 		movzbw	(%eax), %ax
 401 0248 668945FA 		movw	%ax, -6(%ebp)
 402 024c 8D45F4   		leal	-12(%ebp), %eax
 403 024f FF00     		incl	(%eax)
 404 0251 8D45F0   		leal	-16(%ebp), %eax
 405 0254 FF08     		decl	(%eax)
 282:../../MMI/Resource/CmidiGen.c ****             value = (value << 7) + (c & 0x7f);
 407              	LM29:
 408 0256 8B45FC   		movl	-4(%ebp), %eax
 409 0259 89C2     		movl	%eax, %edx
 410 025b C1E207   		sall	$7, %edx
 411 025e 0FBF45FA 		movswl	-6(%ebp),%eax
 412 0262 83E07F   		andl	$127, %eax
 413 0265 8D0410   		leal	(%eax,%edx), %eax
 414 0268 8945FC   		movl	%eax, -4(%ebp)
 415              	L9:
 283:../../MMI/Resource/CmidiGen.c ****          }
 284:../../MMI/Resource/CmidiGen.c ****       }
 285:../../MMI/Resource/CmidiGen.c ****    }
 286:../../MMI/Resource/CmidiGen.c ****    trk->ptr = ptr;
 417              	LM30:
 418 026b 8B5508   		movl	8(%ebp), %edx
 419 026e 8B45F4   		movl	-12(%ebp), %eax
 420 0271 894208   		movl	%eax, 8(%edx)
 287:../../MMI/Resource/CmidiGen.c ****    trk->toberead = count;
 422              	LM31:
 423 0274 8B5508   		movl	8(%ebp), %edx
 424 0277 8B45F0   		movl	-16(%ebp), %eax
 425 027a 894204   		movl	%eax, 4(%edx)
 288:../../MMI/Resource/CmidiGen.c ****    
 289:../../MMI/Resource/CmidiGen.c ****    CMIDIGEN_LOG_V("getVarNum: afterwards, trk->ptr = %x,  count = %d",  trk->ptr, trk->toberead); 
 427              	LM32:
 428 027d 8B4508   		movl	8(%ebp), %eax
 429 0280 8B4004   		movl	4(%eax), %eax
 430 0283 89442410 		movl	%eax, 16(%esp)
 431 0287 8B4508   		movl	8(%ebp), %eax
 432 028a 8B4008   		movl	8(%eax), %eax
 433 028d 8944240C 		movl	%eax, 12(%esp)
 434 0291 C7442408 		movl	$LC3, 8(%esp)
 434      00010000 
 435 0299 C7442404 		movl	$LC1, 4(%esp)
 435      AA000000 
 436 02a1 C7042401 		movl	$1, (%esp)
 436      000000
 437 02a8 E8000000 		call	_reslog_adaptor_log
 437      00
 290:../../MMI/Resource/CmidiGen.c ****    
 291:../../MMI/Resource/CmidiGen.c ****    return value;
 439              	LM33:
 440 02ad 8B45FC   		movl	-4(%ebp), %eax
 441 02b0 8945EC   		movl	%eax, -20(%ebp)
 292:../../MMI/Resource/CmidiGen.c **** }
 443              	LM34:
 444              	L7:
GAS LISTING f:/K7_TOUR/CODE/plutommi/Customer/ResGenerator/gcctmp/ccCOcaaa.s 			page 11


 445              	LBE2:
 446 02b3 8B45EC   		movl	-20(%ebp), %eax
 447 02b6 C9       		leave
 448 02b7 C3       		ret
 455              	Lscope3:
 461              	_InitSMF:
 293:../../MMI/Resource/CmidiGen.c **** 
 294:../../MMI/Resource/CmidiGen.c **** static void InitSMF(c_uint8* wrkbuf, c_int32 size)
 295:../../MMI/Resource/CmidiGen.c **** {
 463              	LM35:
 464 02b8 55       		pushl	%ebp
 465 02b9 89E5     		movl	%esp, %ebp
 466 02bb 83EC08   		subl	$8, %esp
 296:../../MMI/Resource/CmidiGen.c ****    c_int32 I;
 297:../../MMI/Resource/CmidiGen.c ****    c_uint8 *ptr8;
 298:../../MMI/Resource/CmidiGen.c ****    ptr8 = wrkbuf;
 468              	LM36:
 469              	LBB3:
 470 02be 8B4508   		movl	8(%ebp), %eax
 471 02c1 8945F8   		movl	%eax, -8(%ebp)
 299:../../MMI/Resource/CmidiGen.c ****    for( I=0; I<size; I++ )
 473              	LM37:
 474 02c4 C745FC00 		movl	$0, -4(%ebp)
 474      000000
 475              	L13:
 476 02cb 8B45FC   		movl	-4(%ebp), %eax
 477 02ce 3B450C   		cmpl	12(%ebp), %eax
 478 02d1 7C02     		jl	L16
 479 02d3 EB12     		jmp	L12
 480              	L16:
 300:../../MMI/Resource/CmidiGen.c ****       *ptr8++ = 0;
 482              	LM38:
 483 02d5 8B45F8   		movl	-8(%ebp), %eax
 484 02d8 C60000   		movb	$0, (%eax)
 485 02db 8D45F8   		leal	-8(%ebp), %eax
 486 02de FF00     		incl	(%eax)
 488              	LM39:
 489 02e0 8D45FC   		leal	-4(%ebp), %eax
 490 02e3 FF00     		incl	(%eax)
 491 02e5 EBE4     		jmp	L13
 301:../../MMI/Resource/CmidiGen.c **** }
 493              	LM40:
 494              	L12:
 495 02e7 C9       		leave
 496 02e8 C3       		ret
 497              	LBE3:
 502              	Lscope4:
 511              	_MidiEvent_Put:
 302:../../MMI/Resource/CmidiGen.c **** 
 303:../../MMI/Resource/CmidiGen.c **** static void MidiEvent_Put( CMIDI_Handle_Int *ihdl, c_uint8 type, c_uint8 ch, c_uint8 c1, c_uint8 c2
 304:../../MMI/Resource/CmidiGen.c **** {
 513              	LM41:
 514 02e9 55       		pushl	%ebp
 515 02ea 89E5     		movl	%esp, %ebp
 516 02ec 53       		pushl	%ebx
 517 02ed 83EC08   		subl	$8, %esp
 518 02f0 8B450C   		movl	12(%ebp), %eax
GAS LISTING f:/K7_TOUR/CODE/plutommi/Customer/ResGenerator/gcctmp/ccCOcaaa.s 			page 12


 519 02f3 8B5510   		movl	16(%ebp), %edx
 520 02f6 8B4D14   		movl	20(%ebp), %ecx
 521 02f9 8B5D18   		movl	24(%ebp), %ebx
 522 02fc 8845FB   		movb	%al, -5(%ebp)
 523 02ff 8855FA   		movb	%dl, -6(%ebp)
 524 0302 884DF9   		movb	%cl, -7(%ebp)
 525 0305 885DF8   		movb	%bl, -8(%ebp)
 305:../../MMI/Resource/CmidiGen.c ****    MidiEvent *event;
 306:../../MMI/Resource/CmidiGen.c **** 
 307:../../MMI/Resource/CmidiGen.c ****    event = ihdl->event_index;
 527              	LM42:
 528              	LBB4:
 529 0308 8B4508   		movl	8(%ebp), %eax
 530 030b 8B80C802 		movl	712(%eax), %eax
 530      0000
 531 0311 8945F4   		movl	%eax, -12(%ebp)
 308:../../MMI/Resource/CmidiGen.c ****    event->type = type;
 533              	LM43:
 534 0314 8B55F4   		movl	-12(%ebp), %edx
 535 0317 0FB645FB 		movzbl	-5(%ebp), %eax
 536 031b 8802     		movb	%al, (%edx)
 309:../../MMI/Resource/CmidiGen.c ****    event->ch = ch;
 538              	LM44:
 539 031d 8B55F4   		movl	-12(%ebp), %edx
 540 0320 0FB645FA 		movzbl	-6(%ebp), %eax
 541 0324 884201   		movb	%al, 1(%edx)
 310:../../MMI/Resource/CmidiGen.c ****    event->c1 = c1;
 543              	LM45:
 544 0327 8B55F4   		movl	-12(%ebp), %edx
 545 032a 0FB645F9 		movzbl	-7(%ebp), %eax
 546 032e 884202   		movb	%al, 2(%edx)
 311:../../MMI/Resource/CmidiGen.c ****    event->c2 = c2;
 548              	LM46:
 549 0331 8B55F4   		movl	-12(%ebp), %edx
 550 0334 0FB645F8 		movzbl	-8(%ebp), %eax
 551 0338 884203   		movb	%al, 3(%edx)
 312:../../MMI/Resource/CmidiGen.c ****    event->next = 0;
 553              	LM47:
 554 033b 8B45F4   		movl	-12(%ebp), %eax
 555 033e C7400800 		movl	$0, 8(%eax)
 555      000000
 313:../../MMI/Resource/CmidiGen.c ****    if( ihdl->event_head == NULL ) {
 557              	LM48:
 558 0345 8B4508   		movl	8(%ebp), %eax
 559 0348 83B8C002 		cmpl	$0, 704(%eax)
 559      000000
 560 034f 7517     		jne	L18
 314:../../MMI/Resource/CmidiGen.c ****       ihdl->event_head = ihdl->event_tail = event;
 562              	LM49:
 563 0351 8B4D08   		movl	8(%ebp), %ecx
 564 0354 8B5508   		movl	8(%ebp), %edx
 565 0357 8B45F4   		movl	-12(%ebp), %eax
 566 035a 8982C402 		movl	%eax, 708(%edx)
 566      0000
 567 0360 8981C002 		movl	%eax, 704(%ecx)
 567      0000
 568 0366 EB1B     		jmp	L19
GAS LISTING f:/K7_TOUR/CODE/plutommi/Customer/ResGenerator/gcctmp/ccCOcaaa.s 			page 13


 569              	L18:
 315:../../MMI/Resource/CmidiGen.c ****    }
 316:../../MMI/Resource/CmidiGen.c ****    else {
 317:../../MMI/Resource/CmidiGen.c ****       ASSERT( ihdl->event_tail != NULL );
 318:../../MMI/Resource/CmidiGen.c ****       ihdl->event_tail->next = event;
 571              	LM50:
 572 0368 8B4508   		movl	8(%ebp), %eax
 573 036b 8B90C402 		movl	708(%eax), %edx
 573      0000
 574 0371 8B45F4   		movl	-12(%ebp), %eax
 575 0374 894208   		movl	%eax, 8(%edx)
 319:../../MMI/Resource/CmidiGen.c ****       ihdl->event_tail = event;
 577              	LM51:
 578 0377 8B5508   		movl	8(%ebp), %edx
 579 037a 8B45F4   		movl	-12(%ebp), %eax
 580 037d 8982C402 		movl	%eax, 708(%edx)
 580      0000
 581              	L19:
 320:../../MMI/Resource/CmidiGen.c ****    }
 321:../../MMI/Resource/CmidiGen.c ****    ihdl->event_index++;
 583              	LM52:
 584 0383 8B4508   		movl	8(%ebp), %eax
 585 0386 8380C802 		addl	$12, 712(%eax)
 585      00000C
 322:../../MMI/Resource/CmidiGen.c **** }
 587              	LM53:
 588 038d 83C408   		addl	$8, %esp
 589 0390 5B       		popl	%ebx
 590 0391 5D       		popl	%ebp
 591 0392 C3       		ret
 592              	LBE4:
 600              	Lscope5:
 606              	_MidiEvent_Get:
 323:../../MMI/Resource/CmidiGen.c **** 
 324:../../MMI/Resource/CmidiGen.c **** static MidiEvent *MidiEvent_Get( CMIDI_Handle_Int *ihdl, MidiEvent *event )
 325:../../MMI/Resource/CmidiGen.c **** {
 608              	LM54:
 609 0393 55       		pushl	%ebp
 610 0394 89E5     		movl	%esp, %ebp
 611 0396 83EC08   		subl	$8, %esp
 326:../../MMI/Resource/CmidiGen.c ****    MidiEvent *temp;
 327:../../MMI/Resource/CmidiGen.c ****    if(ihdl->event_head == NULL )
 613              	LM55:
 614              	LBB5:
 615 0399 8B4508   		movl	8(%ebp), %eax
 616 039c 83B8C002 		cmpl	$0, 704(%eax)
 616      000000
 617 03a3 7509     		jne	L21
 328:../../MMI/Resource/CmidiGen.c ****       return NULL;
 619              	LM56:
 620 03a5 C745F800 		movl	$0, -8(%ebp)
 620      000000
 621 03ac EB5C     		jmp	L20
 622              	L21:
 329:../../MMI/Resource/CmidiGen.c ****    *event = *ihdl->event_head;
 624              	LM57:
 625 03ae 8B4D0C   		movl	12(%ebp), %ecx
GAS LISTING f:/K7_TOUR/CODE/plutommi/Customer/ResGenerator/gcctmp/ccCOcaaa.s 			page 14


 626 03b1 8B4508   		movl	8(%ebp), %eax
 627 03b4 8B90C002 		movl	704(%eax), %edx
 627      0000
 628 03ba 8B02     		movl	(%edx), %eax
 629 03bc 8901     		movl	%eax, (%ecx)
 630 03be 8B4204   		movl	4(%edx), %eax
 631 03c1 894104   		movl	%eax, 4(%ecx)
 632 03c4 8B4208   		movl	8(%edx), %eax
 633 03c7 894108   		movl	%eax, 8(%ecx)
 330:../../MMI/Resource/CmidiGen.c ****    temp = ihdl->event_head;
 635              	LM58:
 636 03ca 8B4508   		movl	8(%ebp), %eax
 637 03cd 8B80C002 		movl	704(%eax), %eax
 637      0000
 638 03d3 8945FC   		movl	%eax, -4(%ebp)
 331:../../MMI/Resource/CmidiGen.c ****    ihdl->event_head = ihdl->event_head->next;
 640              	LM59:
 641 03d6 8B5508   		movl	8(%ebp), %edx
 642 03d9 8B4508   		movl	8(%ebp), %eax
 643 03dc 8B80C002 		movl	704(%eax), %eax
 643      0000
 644 03e2 8B4008   		movl	8(%eax), %eax
 645 03e5 8982C002 		movl	%eax, 704(%edx)
 645      0000
 332:../../MMI/Resource/CmidiGen.c ****    if( ihdl->event_head == NULL )
 647              	LM60:
 648 03eb 8B4508   		movl	8(%ebp), %eax
 649 03ee 83B8C002 		cmpl	$0, 704(%eax)
 649      000000
 650 03f5 750D     		jne	L22
 333:../../MMI/Resource/CmidiGen.c ****       ihdl->event_tail = NULL;
 652              	LM61:
 653 03f7 8B4508   		movl	8(%ebp), %eax
 654 03fa C780C402 		movl	$0, 708(%eax)
 654      00000000 
 654      0000
 655              	L22:
 334:../../MMI/Resource/CmidiGen.c ****    return event;
 657              	LM62:
 658 0404 8B450C   		movl	12(%ebp), %eax
 659 0407 8945F8   		movl	%eax, -8(%ebp)
 335:../../MMI/Resource/CmidiGen.c **** }
 661              	LM63:
 662              	L20:
 663              	LBE5:
 664 040a 8B45F8   		movl	-8(%ebp), %eax
 665 040d C9       		leave
 666 040e C3       		ret
 670              	Lscope6:
 676              	_MIDI_Parse:
 336:../../MMI/Resource/CmidiGen.c **** 
 337:../../MMI/Resource/CmidiGen.c **** /* -------------------------------------------------------------------------------------- */
 338:../../MMI/Resource/CmidiGen.c **** 
 339:../../MMI/Resource/CmidiGen.c **** static c_int32 MIDI_Parse( CMIDI_Handle_Int *ihdl, const c_uint8 *mid )
 340:../../MMI/Resource/CmidiGen.c **** {
 678              	LM64:
 679 040f 55       		pushl	%ebp
GAS LISTING f:/K7_TOUR/CODE/plutommi/Customer/ResGenerator/gcctmp/ccCOcaaa.s 			page 15


 680 0410 89E5     		movl	%esp, %ebp
 681 0412 53       		pushl	%ebx
 682 0413 83EC54   		subl	$84, %esp
 341:../../MMI/Resource/CmidiGen.c ****    c_int32       I;
 342:../../MMI/Resource/CmidiGen.c ****    c_int32       ntrks;
 343:../../MMI/Resource/CmidiGen.c ****    TrkParam      *trk;
 344:../../MMI/Resource/CmidiGen.c ****    c_int16       next_trk;
 345:../../MMI/Resource/CmidiGen.c ****    c_int32       temp;
 346:../../MMI/Resource/CmidiGen.c ****    c_int32       delta;
 347:../../MMI/Resource/CmidiGen.c ****    TrkParam      *tracks;
 348:../../MMI/Resource/CmidiGen.c ****    c_int8        fail = FALSE;
 684              	LM65:
 685              	LBB6:
 686 0416 C645DF00 		movb	$0, -33(%ebp)
 349:../../MMI/Resource/CmidiGen.c ****    c_int16       needed;
 350:../../MMI/Resource/CmidiGen.c ****    c_uint8       type;
 351:../../MMI/Resource/CmidiGen.c ****    c_uint8       c1, c2, ch;
 352:../../MMI/Resource/CmidiGen.c **** 
 353:../../MMI/Resource/CmidiGen.c ****    if( mid[0] == 'R' && mid[1] == 'I' && mid[2] == 'F' && mid[3] == 'F' )
 688              	LM66:
 689 041a 8B450C   		movl	12(%ebp), %eax
 690 041d 803852   		cmpb	$82, (%eax)
 691 0420 7525     		jne	L24
 692 0422 8B450C   		movl	12(%ebp), %eax
 693 0425 40       		incl	%eax
 694 0426 803849   		cmpb	$73, (%eax)
 695 0429 751C     		jne	L24
 696 042b 8B450C   		movl	12(%ebp), %eax
 697 042e 83C002   		addl	$2, %eax
 698 0431 803846   		cmpb	$70, (%eax)
 699 0434 7511     		jne	L24
 700 0436 8B450C   		movl	12(%ebp), %eax
 701 0439 83C003   		addl	$3, %eax
 702 043c 803846   		cmpb	$70, (%eax)
 703 043f 7506     		jne	L24
 354:../../MMI/Resource/CmidiGen.c ****       mid += 20;
 705              	LM67:
 706 0441 8D450C   		leal	12(%ebp), %eax
 707 0444 830014   		addl	$20, (%eax)
 708              	L24:
 355:../../MMI/Resource/CmidiGen.c ****    if( mid[0] != 'M' || mid[1] != 'T' || mid[2] != 'h' || mid[3] != 'd' )
 710              	LM68:
 711 0447 8B450C   		movl	12(%ebp), %eax
 712 044a 80384D   		cmpb	$77, (%eax)
 713 044d 7521     		jne	L26
 714 044f 8B450C   		movl	12(%ebp), %eax
 715 0452 40       		incl	%eax
 716 0453 803854   		cmpb	$84, (%eax)
 717 0456 7518     		jne	L26
 718 0458 8B450C   		movl	12(%ebp), %eax
 719 045b 83C002   		addl	$2, %eax
 720 045e 803868   		cmpb	$104, (%eax)
 721 0461 750D     		jne	L26
 722 0463 8B450C   		movl	12(%ebp), %eax
 723 0466 83C003   		addl	$3, %eax
 724 0469 803864   		cmpb	$100, (%eax)
 725 046c 7502     		jne	L26
GAS LISTING f:/K7_TOUR/CODE/plutommi/Customer/ResGenerator/gcctmp/ccCOcaaa.s 			page 16


 726 046e EB0C     		jmp	L25
 727              	L26:
 356:../../MMI/Resource/CmidiGen.c ****       return -1;
 729              	LM69:
 730 0470 C745D4FF 		movl	$-1, -44(%ebp)
 730      FFFFFF
 731 0477 E9DD0B00 		jmp	L23
 731      00
 732              	L25:
 357:../../MMI/Resource/CmidiGen.c **** 
 358:../../MMI/Resource/CmidiGen.c ****    if( get16bit( &mid[8] ) > 2 )
 734              	LM70:
 735 047c 8B450C   		movl	12(%ebp), %eax
 736 047f 83C008   		addl	$8, %eax
 737 0482 890424   		movl	%eax, (%esp)
 738 0485 E8B9FBFF 		call	_get16bit
 738      FF
 739 048a 6683F802 		cmpw	$2, %ax
 740 048e 760C     		jbe	L27
 359:../../MMI/Resource/CmidiGen.c ****       return -1;
 742              	LM71:
 743 0490 C745D4FF 		movl	$-1, -44(%ebp)
 743      FFFFFF
 744 0497 E9BD0B00 		jmp	L23
 744      00
 745              	L27:
 360:../../MMI/Resource/CmidiGen.c ****    if( (ntrks  = (c_uint32)get16bit( &mid[10] )) > MAX_TRACK )
 747              	LM72:
 748 049c 8B450C   		movl	12(%ebp), %eax
 749 049f 83C00A   		addl	$10, %eax
 750 04a2 890424   		movl	%eax, (%esp)
 751 04a5 E899FBFF 		call	_get16bit
 751      FF
 752 04aa 0FB7C0   		movzwl	%ax, %eax
 753 04ad 8945F4   		movl	%eax, -12(%ebp)
 754 04b0 8B45F4   		movl	-12(%ebp), %eax
 755 04b3 83F820   		cmpl	$32, %eax
 756 04b6 7E0C     		jle	L28
 361:../../MMI/Resource/CmidiGen.c ****       return -1;
 758              	LM73:
 759 04b8 C745D4FF 		movl	$-1, -44(%ebp)
 759      FFFFFF
 760 04bf E9950B00 		jmp	L23
 760      00
 761              	L28:
 362:../../MMI/Resource/CmidiGen.c ****    ihdl->division = get16bit( &mid[12] );
 763              	LM74:
 764 04c4 8B5D08   		movl	8(%ebp), %ebx
 765 04c7 8B450C   		movl	12(%ebp), %eax
 766 04ca 83C00C   		addl	$12, %eax
 767 04cd 890424   		movl	%eax, (%esp)
 768 04d0 E86EFBFF 		call	_get16bit
 768      FF
 769 04d5 66894308 		movw	%ax, 8(%ebx)
 363:../../MMI/Resource/CmidiGen.c ****    if(ihdl->division <= 0)
 771              	LM75:
 772 04d9 8B4508   		movl	8(%ebp), %eax
GAS LISTING f:/K7_TOUR/CODE/plutommi/Customer/ResGenerator/gcctmp/ccCOcaaa.s 			page 17


 773 04dc 66837808 		cmpw	$0, 8(%eax)
 773      00
 774 04e1 7F0C     		jg	L29
 364:../../MMI/Resource/CmidiGen.c ****       return -1;
 776              	LM76:
 777 04e3 C745D4FF 		movl	$-1, -44(%ebp)
 777      FFFFFF
 778 04ea E96A0B00 		jmp	L23
 778      00
 779              	L29:
 365:../../MMI/Resource/CmidiGen.c ****    
 366:../../MMI/Resource/CmidiGen.c ****    mid = (const c_uint8 *)&mid[8 + get32bit(&mid[4])];
 781              	LM77:
 782 04ef 8B450C   		movl	12(%ebp), %eax
 783 04f2 83C004   		addl	$4, %eax
 784 04f5 890424   		movl	%eax, (%esp)
 785 04f8 E813FBFF 		call	_get32bit
 785      FF
 786 04fd 03450C   		addl	12(%ebp), %eax
 787 0500 83C008   		addl	$8, %eax
 788 0503 89450C   		movl	%eax, 12(%ebp)
 367:../../MMI/Resource/CmidiGen.c ****    tracks = ihdl->tracks;
 790              	LM78:
 791 0506 8B4508   		movl	8(%ebp), %eax
 792 0509 83C040   		addl	$64, %eax
 793 050c 8945E0   		movl	%eax, -32(%ebp)
 368:../../MMI/Resource/CmidiGen.c **** 
 369:../../MMI/Resource/CmidiGen.c ****    for( I = 0 ; I < ntrks; I++ ) {
 795              	LM79:
 796 050f C745F800 		movl	$0, -8(%ebp)
 796      000000
 797              	L30:
 798 0516 8B45F8   		movl	-8(%ebp), %eax
 799 0519 3B45F4   		cmpl	-12(%ebp), %eax
 800 051c 7C05     		jl	L33
 801 051e E99C0000 		jmp	L31
 801      00
 802              	L33:
 370:../../MMI/Resource/CmidiGen.c ****       if( mid[0] != 'M' || mid[1] != 'T' || mid[2] != 'r' || mid[3] != 'k' )
 804              	LM80:
 805 0523 8B450C   		movl	12(%ebp), %eax
 806 0526 80384D   		cmpb	$77, (%eax)
 807 0529 0F859000 		jne	L31
 807      0000
 808 052f 8B450C   		movl	12(%ebp), %eax
 809 0532 40       		incl	%eax
 810 0533 803854   		cmpb	$84, (%eax)
 811 0536 0F858300 		jne	L31
 811      0000
 812 053c 8B450C   		movl	12(%ebp), %eax
 813 053f 83C002   		addl	$2, %eax
 814 0542 803872   		cmpb	$114, (%eax)
 815 0545 7578     		jne	L31
 816 0547 8B450C   		movl	12(%ebp), %eax
 817 054a 83C003   		addl	$3, %eax
 818 054d 80386B   		cmpb	$107, (%eax)
 819 0550 756D     		jne	L31
GAS LISTING f:/K7_TOUR/CODE/plutommi/Customer/ResGenerator/gcctmp/ccCOcaaa.s 			page 18


 371:../../MMI/Resource/CmidiGen.c ****          break;
 372:../../MMI/Resource/CmidiGen.c ****       trk            = &tracks[I];
 821              	LM81:
 822 0552 8B55F8   		movl	-8(%ebp), %edx
 823 0555 89D0     		movl	%edx, %eax
 824 0557 C1E002   		sall	$2, %eax
 825 055a 01D0     		addl	%edx, %eax
 826 055c C1E002   		sall	$2, %eax
 827 055f 0345E0   		addl	-32(%ebp), %eax
 828 0562 8945F0   		movl	%eax, -16(%ebp)
 373:../../MMI/Resource/CmidiGen.c ****       trk->toberead  = get32bit( &mid[4] );
 830              	LM82:
 831 0565 8B5DF0   		movl	-16(%ebp), %ebx
 832 0568 8B450C   		movl	12(%ebp), %eax
 833 056b 83C004   		addl	$4, %eax
 834 056e 890424   		movl	%eax, (%esp)
 835 0571 E89AFAFF 		call	_get32bit
 835      FF
 836 0576 894304   		movl	%eax, 4(%ebx)
 374:../../MMI/Resource/CmidiGen.c ****       trk->ptr       = &mid[8];
 838              	LM83:
 839 0579 8B55F0   		movl	-16(%ebp), %edx
 840 057c 8B450C   		movl	12(%ebp), %eax
 841 057f 83C008   		addl	$8, %eax
 842 0582 894208   		movl	%eax, 8(%edx)
 375:../../MMI/Resource/CmidiGen.c ****       mid            = mid + 8 + trk->toberead;
 844              	LM84:
 845 0585 8B45F0   		movl	-16(%ebp), %eax
 846 0588 8B4004   		movl	4(%eax), %eax
 847 058b 03450C   		addl	12(%ebp), %eax
 848 058e 83C008   		addl	$8, %eax
 849 0591 89450C   		movl	%eax, 12(%ebp)
 376:../../MMI/Resource/CmidiGen.c ****       trk->ticks     = getVarNum( trk );
 851              	LM85:
 852 0594 8B5DF0   		movl	-16(%ebp), %ebx
 853 0597 8B45F0   		movl	-16(%ebp), %eax
 854 059a 890424   		movl	%eax, (%esp)
 855 059d E890FBFF 		call	_getVarNum
 855      FF
 856 05a2 8903     		movl	%eax, (%ebx)
 377:../../MMI/Resource/CmidiGen.c ****       trk->status    = 0;
 858              	LM86:
 859 05a4 8B45F0   		movl	-16(%ebp), %eax
 860 05a7 C7400C00 		movl	$0, 12(%eax)
 860      000000
 378:../../MMI/Resource/CmidiGen.c ****       trk->running   = FALSE;
 862              	LM87:
 863 05ae 8B45F0   		movl	-16(%ebp), %eax
 864 05b1 C6401000 		movb	$0, 16(%eax)
 866              	LM88:
 867 05b5 8D45F8   		leal	-8(%ebp), %eax
 868 05b8 FF00     		incl	(%eax)
 869 05ba E957FFFF 		jmp	L30
 869      FF
 870              	L31:
 379:../../MMI/Resource/CmidiGen.c ****    }
 380:../../MMI/Resource/CmidiGen.c ****    ntrks = I;
GAS LISTING f:/K7_TOUR/CODE/plutommi/Customer/ResGenerator/gcctmp/ccCOcaaa.s 			page 19


 872              	LM89:
 873 05bf 8B45F8   		movl	-8(%ebp), %eax
 874 05c2 8945F4   		movl	%eax, -12(%ebp)
 381:../../MMI/Resource/CmidiGen.c ****    
 382:../../MMI/Resource/CmidiGen.c ****    ihdl->event_head = ihdl->event_tail = NULL;
 876              	LM90:
 877 05c5 8B5508   		movl	8(%ebp), %edx
 878 05c8 8B4508   		movl	8(%ebp), %eax
 879 05cb C780C402 		movl	$0, 708(%eax)
 879      00000000 
 879      0000
 880 05d5 C782C002 		movl	$0, 704(%edx)
 880      00000000 
 880      0000
 383:../../MMI/Resource/CmidiGen.c ****    ihdl->duration = 0;
 882              	LM91:
 883 05df 8B4508   		movl	8(%ebp), %eax
 884 05e2 C7000000 		movl	$0, (%eax)
 884      0000
 384:../../MMI/Resource/CmidiGen.c ****    ihdl->acc_ticks = 0;
 886              	LM92:
 887 05e8 8B4508   		movl	8(%ebp), %eax
 888 05eb C7400C00 		movl	$0, 12(%eax)
 888      000000
 385:../../MMI/Resource/CmidiGen.c ****    ihdl->acc_20ms = 0;
 890              	LM93:
 891 05f2 8B4508   		movl	8(%ebp), %eax
 892 05f5 C7401000 		movl	$0, 16(%eax)
 892      000000
 386:../../MMI/Resource/CmidiGen.c ****    ihdl->active_tempo = 1024 * 500 / (c_uint32)ihdl->division;
 894              	LM94:
 895 05fc 8B4D08   		movl	8(%ebp), %ecx
 896 05ff 8B4508   		movl	8(%ebp), %eax
 897 0602 0FBF5008 		movswl	8(%eax),%edx
 898 0606 B800D007 		movl	$512000, %eax
 898      00
 899 060b 89D3     		movl	%edx, %ebx
 900 060d BA000000 		movl	$0, %edx
 900      00
 901 0612 F7F3     		divl	%ebx
 902 0614 894104   		movl	%eax, 4(%ecx)
 387:../../MMI/Resource/CmidiGen.c ****    ihdl->nrpn = FALSE;
 904              	LM95:
 905 0617 8B4508   		movl	8(%ebp), %eax
 906 061a C6401C00 		movb	$0, 28(%eax)
 907              	L36:
 388:../../MMI/Resource/CmidiGen.c ****    
 389:../../MMI/Resource/CmidiGen.c ****    while( 1 ) {
 390:../../MMI/Resource/CmidiGen.c ****       next_trk = MAX_TRACK;
 909              	LM96:
 910 061e 66C745EE 		movw	$32, -18(%ebp)
 910      2000
 391:../../MMI/Resource/CmidiGen.c ****       delta    = 0x7FFFFF;
 912              	LM97:
 913 0624 C745E4FF 		movl	$8388607, -28(%ebp)
 913      FF7F00
 392:../../MMI/Resource/CmidiGen.c ****       for( I = 0 ; I < ntrks; I++ ) {
GAS LISTING f:/K7_TOUR/CODE/plutommi/Customer/ResGenerator/gcctmp/ccCOcaaa.s 			page 20


 915              	LM98:
 916 062b C745F800 		movl	$0, -8(%ebp)
 916      000000
 917              	L39:
 918 0632 8B45F8   		movl	-8(%ebp), %eax
 919 0635 3B45F4   		cmpl	-12(%ebp), %eax
 920 0638 7C02     		jl	L42
 921 063a EB44     		jmp	L40
 922              	L42:
 393:../../MMI/Resource/CmidiGen.c ****          trk = &tracks[I];
 924              	LM99:
 925 063c 8B55F8   		movl	-8(%ebp), %edx
 926 063f 89D0     		movl	%edx, %eax
 927 0641 C1E002   		sall	$2, %eax
 928 0644 01D0     		addl	%edx, %eax
 929 0646 C1E002   		sall	$2, %eax
 930 0649 0345E0   		addl	-32(%ebp), %eax
 931 064c 8945F0   		movl	%eax, -16(%ebp)
 394:../../MMI/Resource/CmidiGen.c ****          if( trk->toberead > 0 && trk->ticks < delta ) {
 933              	LM100:
 934 064f 8B45F0   		movl	-16(%ebp), %eax
 935 0652 83780400 		cmpl	$0, 4(%eax)
 936 0656 7E21     		jle	L41
 937 0658 8B45F0   		movl	-16(%ebp), %eax
 938 065b 8B00     		movl	(%eax), %eax
 939 065d 3B45E4   		cmpl	-28(%ebp), %eax
 940 0660 7D17     		jge	L41
 395:../../MMI/Resource/CmidiGen.c ****             delta    = trk->ticks;
 942              	LM101:
 943 0662 8B45F0   		movl	-16(%ebp), %eax
 944 0665 8B00     		movl	(%eax), %eax
 945 0667 8945E4   		movl	%eax, -28(%ebp)
 396:../../MMI/Resource/CmidiGen.c ****             next_trk = I;
 947              	LM102:
 948 066a 8B45F8   		movl	-8(%ebp), %eax
 949 066d 668945EE 		movw	%ax, -18(%ebp)
 397:../../MMI/Resource/CmidiGen.c ****             if( delta == 0 )
 951              	LM103:
 952 0671 837DE400 		cmpl	$0, -28(%ebp)
 953 0675 7502     		jne	L41
 398:../../MMI/Resource/CmidiGen.c ****                break;
 955              	LM104:
 956 0677 EB07     		jmp	L40
 958              	LM105:
 959              	L41:
 960 0679 8D45F8   		leal	-8(%ebp), %eax
 961 067c FF00     		incl	(%eax)
 962 067e EBB2     		jmp	L39
 963              	L40:
 399:../../MMI/Resource/CmidiGen.c ****          }
 400:../../MMI/Resource/CmidiGen.c ****       }
 401:../../MMI/Resource/CmidiGen.c ****       if( next_trk == MAX_TRACK )            /* No unhandled MIDI data left */
 965              	LM106:
 966 0680 66837DEE 		cmpw	$32, -18(%ebp)
 966      20
 967 0685 7505     		jne	L45
 402:../../MMI/Resource/CmidiGen.c ****          break;
GAS LISTING f:/K7_TOUR/CODE/plutommi/Customer/ResGenerator/gcctmp/ccCOcaaa.s 			page 21


 969              	LM107:
 970 0687 E9A60900 		jmp	L37
 970      00
 971              	L45:
 403:../../MMI/Resource/CmidiGen.c ****       if( delta > 0 ) {
 973              	LM108:
 974 068c 837DE400 		cmpl	$0, -28(%ebp)
 975 0690 0F8EE300 		jle	L46
 975      0000
 404:../../MMI/Resource/CmidiGen.c ****          for( I = 0 ; I < ntrks; I++ ) {
 977              	LM109:
 978 0696 C745F800 		movl	$0, -8(%ebp)
 978      000000
 979              	L47:
 980 069d 8B45F8   		movl	-8(%ebp), %eax
 981 06a0 3B45F4   		cmpl	-12(%ebp), %eax
 982 06a3 7C02     		jl	L50
 983 06a5 EB32     		jmp	L48
 984              	L50:
 405:../../MMI/Resource/CmidiGen.c ****             trk = &tracks[I];
 986              	LM110:
 987 06a7 8B55F8   		movl	-8(%ebp), %edx
 988 06aa 89D0     		movl	%edx, %eax
 989 06ac C1E002   		sall	$2, %eax
 990 06af 01D0     		addl	%edx, %eax
 991 06b1 C1E002   		sall	$2, %eax
 992 06b4 0345E0   		addl	-32(%ebp), %eax
 993 06b7 8945F0   		movl	%eax, -16(%ebp)
 406:../../MMI/Resource/CmidiGen.c ****             if( trk->toberead > 0 )
 995              	LM111:
 996 06ba 8B45F0   		movl	-16(%ebp), %eax
 997 06bd 83780400 		cmpl	$0, 4(%eax)
 998 06c1 7E0F     		jle	L49
 407:../../MMI/Resource/CmidiGen.c ****                trk->ticks -= delta;
 1000              	LM112:
 1001 06c3 8B4DF0   		movl	-16(%ebp), %ecx
 1002 06c6 8B45F0   		movl	-16(%ebp), %eax
 1003 06c9 8B55E4   		movl	-28(%ebp), %edx
 1004 06cc 8B00     		movl	(%eax), %eax
 1005 06ce 29D0     		subl	%edx, %eax
 1006 06d0 8901     		movl	%eax, (%ecx)
 1008              	LM113:
 1009              	L49:
 1010 06d2 8D45F8   		leal	-8(%ebp), %eax
 1011 06d5 FF00     		incl	(%eax)
 1012 06d7 EBC4     		jmp	L47
 1013              	L48:
 408:../../MMI/Resource/CmidiGen.c ****          }
 409:../../MMI/Resource/CmidiGen.c ****          ihdl->acc_ticks += delta;
 1015              	LM114:
 1016 06d9 8B4D08   		movl	8(%ebp), %ecx
 1017 06dc 8B5508   		movl	8(%ebp), %edx
 1018 06df 8B45E4   		movl	-28(%ebp), %eax
 1019 06e2 03420C   		addl	12(%edx), %eax
 1020 06e5 89410C   		movl	%eax, 12(%ecx)
 410:../../MMI/Resource/CmidiGen.c ****          if( ihdl->acc_ticks * ihdl->active_tempo < ihdl->acc_ticks ) { /* overflow */
 1022              	LM115:
GAS LISTING f:/K7_TOUR/CODE/plutommi/Customer/ResGenerator/gcctmp/ccCOcaaa.s 			page 22


 1023 06e8 8B4508   		movl	8(%ebp), %eax
 1024 06eb 8B5508   		movl	8(%ebp), %edx
 1025 06ee 8B400C   		movl	12(%eax), %eax
 1026 06f1 0FAF4204 		imull	4(%edx), %eax
 1027 06f5 89C2     		movl	%eax, %edx
 1028 06f7 8B4508   		movl	8(%ebp), %eax
 1029 06fa 3B500C   		cmpl	12(%eax), %edx
 1030 06fd 7D23     		jge	L52
 411:../../MMI/Resource/CmidiGen.c ****             ihdl->duration += ihdl->acc_20ms;
 1032              	LM116:
 1033 06ff 8B4D08   		movl	8(%ebp), %ecx
 1034 0702 8B5508   		movl	8(%ebp), %edx
 1035 0705 8B4508   		movl	8(%ebp), %eax
 1036 0708 8B4010   		movl	16(%eax), %eax
 1037 070b 0302     		addl	(%edx), %eax
 1038 070d 8901     		movl	%eax, (%ecx)
 412:../../MMI/Resource/CmidiGen.c ****             ihdl->acc_ticks = delta;
 1040              	LM117:
 1041 070f 8B5508   		movl	8(%ebp), %edx
 1042 0712 8B45E4   		movl	-28(%ebp), %eax
 1043 0715 89420C   		movl	%eax, 12(%edx)
 413:../../MMI/Resource/CmidiGen.c ****             ihdl->acc_20ms = 0;
 1045              	LM118:
 1046 0718 8B4508   		movl	8(%ebp), %eax
 1047 071b C7401000 		movl	$0, 16(%eax)
 1047      000000
 1048              	L52:
 414:../../MMI/Resource/CmidiGen.c ****          }
 415:../../MMI/Resource/CmidiGen.c ****          temp = ((ihdl->acc_ticks * ihdl->active_tempo >> 10) + (ihdl->time_div/2)) / ihdl->time_di
 1050              	LM119:
 1051 0722 8B4508   		movl	8(%ebp), %eax
 1052 0725 8B5508   		movl	8(%ebp), %edx
 1053 0728 8B400C   		movl	12(%eax), %eax
 1054 072b 0FAF4204 		imull	4(%edx), %eax
 1055 072f 89C1     		movl	%eax, %ecx
 1056 0731 C1F90A   		sarl	$10, %ecx
 1057 0734 8B4508   		movl	8(%ebp), %eax
 1058 0737 8B5014   		movl	20(%eax), %edx
 1059 073a 89D0     		movl	%edx, %eax
 1060 073c C1F81F   		sarl	$31, %eax
 1061 073f C1E81F   		shrl	$31, %eax
 1062 0742 8D0410   		leal	(%eax,%edx), %eax
 1063 0745 D1F8     		sarl	%eax
 1064 0747 8D1408   		leal	(%eax,%ecx), %edx
 1065 074a 8B4508   		movl	8(%ebp), %eax
 1066 074d 8945C0   		movl	%eax, -64(%ebp)
 1067 0750 89D0     		movl	%edx, %eax
 1068 0752 8B4DC0   		movl	-64(%ebp), %ecx
 1069 0755 99       		cltd
 1070 0756 F77914   		idivl	20(%ecx)
 1071 0759 8945C0   		movl	%eax, -64(%ebp)
 1072 075c 8B5DC0   		movl	-64(%ebp), %ebx
 1073 075f 895DE8   		movl	%ebx, -24(%ebp)
 416:../../MMI/Resource/CmidiGen.c ****          delta = temp - ihdl->acc_20ms;
 1075              	LM120:
 1076 0762 8B4508   		movl	8(%ebp), %eax
 1077 0765 8B5010   		movl	16(%eax), %edx
GAS LISTING f:/K7_TOUR/CODE/plutommi/Customer/ResGenerator/gcctmp/ccCOcaaa.s 			page 23


 1078 0768 8B45E8   		movl	-24(%ebp), %eax
 1079 076b 29D0     		subl	%edx, %eax
 1080 076d 8945E4   		movl	%eax, -28(%ebp)
 417:../../MMI/Resource/CmidiGen.c ****          ihdl->acc_20ms = temp;
 1082              	LM121:
 1083 0770 8B5508   		movl	8(%ebp), %edx
 1084 0773 8B45E8   		movl	-24(%ebp), %eax
 1085 0776 894210   		movl	%eax, 16(%edx)
 1086              	L46:
 418:../../MMI/Resource/CmidiGen.c ****       }
 419:../../MMI/Resource/CmidiGen.c ****       if( delta != 0 ) {
 1088              	LM122:
 1089 0779 837DE400 		cmpl	$0, -28(%ebp)
 1090 077d 7445     		je	L53
 420:../../MMI/Resource/CmidiGen.c ****          MidiEvent_Put( ihdl, ME_DTIME, 0, (c_uint8)((delta>>7)&0x7F), (c_uint8)(delta&0x7F));
 1092              	LM123:
 1093 077f 0FB645E4 		movzbl	-28(%ebp), %eax
 1094 0783 83E07F   		andl	$127, %eax
 1095 0786 89442410 		movl	%eax, 16(%esp)
 1096 078a 8B45E4   		movl	-28(%ebp), %eax
 1097 078d C1F807   		sarl	$7, %eax
 1098 0790 0FB6C0   		movzbl	%al, %eax
 1099 0793 83E07F   		andl	$127, %eax
 1100 0796 8944240C 		movl	%eax, 12(%esp)
 1101 079a C7442408 		movl	$0, 8(%esp)
 1101      00000000 
 1102 07a2 C7442404 		movl	$0, 4(%esp)
 1102      00000000 
 1103 07aa 8B4508   		movl	8(%ebp), %eax
 1104 07ad 890424   		movl	%eax, (%esp)
 1105 07b0 E834FBFF 		call	_MidiEvent_Put
 1105      FF
 421:../../MMI/Resource/CmidiGen.c ****          ihdl->event_tail->dtime = delta;
 1107              	LM124:
 1108 07b5 8B4508   		movl	8(%ebp), %eax
 1109 07b8 8B90C402 		movl	708(%eax), %edx
 1109      0000
 1110 07be 8B45E4   		movl	-28(%ebp), %eax
 1111 07c1 894204   		movl	%eax, 4(%edx)
 1112              	L53:
 422:../../MMI/Resource/CmidiGen.c ****       }
 423:../../MMI/Resource/CmidiGen.c ****       trk = &tracks[next_trk];
 1114              	LM125:
 1115 07c4 0FBF55EE 		movswl	-18(%ebp),%edx
 1116 07c8 89D0     		movl	%edx, %eax
 1117 07ca C1E002   		sall	$2, %eax
 1118 07cd 01D0     		addl	%edx, %eax
 1119 07cf C1E002   		sall	$2, %eax
 1120 07d2 0345E0   		addl	-32(%ebp), %eax
 1121 07d5 8945F0   		movl	%eax, -16(%ebp)
 424:../../MMI/Resource/CmidiGen.c ****       
 425:../../MMI/Resource/CmidiGen.c ****       type = egetc( trk );
 1123              	LM126:
 1124 07d8 8B45F0   		movl	-16(%ebp), %eax
 1125 07db 890424   		movl	%eax, (%esp)
 1126 07de E880F8FF 		call	_egetc
 1126      FF
GAS LISTING f:/K7_TOUR/CODE/plutommi/Customer/ResGenerator/gcctmp/ccCOcaaa.s 			page 24


 1127 07e3 8845DB   		movb	%al, -37(%ebp)
 426:../../MMI/Resource/CmidiGen.c ****       if( type == 0xFF ) {
 1129              	LM127:
 1130 07e6 807DDBFF 		cmpb	$-1, -37(%ebp)
 1131 07ea 0F85F700 		jne	L54
 1131      0000
 427:../../MMI/Resource/CmidiGen.c ****          type = egetc( trk );                                    /* read type */
 1133              	LM128:
 1134 07f0 8B45F0   		movl	-16(%ebp), %eax
 1135 07f3 890424   		movl	%eax, (%esp)
 1136 07f6 E868F8FF 		call	_egetc
 1136      FF
 1137 07fb 8845DB   		movb	%al, -37(%ebp)
 428:../../MMI/Resource/CmidiGen.c ****          if( (delta = getVarNum( trk )) < 0 ) {                /* get meta event length */
 1139              	LM129:
 1140 07fe 8B45F0   		movl	-16(%ebp), %eax
 1141 0801 890424   		movl	%eax, (%esp)
 1142 0804 E829F9FF 		call	_getVarNum
 1142      FF
 1143 0809 8945E4   		movl	%eax, -28(%ebp)
 1144 080c 837DE400 		cmpl	$0, -28(%ebp)
 1145 0810 7909     		jns	L55
 429:../../MMI/Resource/CmidiGen.c ****             fail = TRUE;
 1147              	LM130:
 1148 0812 C645DF01 		movb	$1, -33(%ebp)
 430:../../MMI/Resource/CmidiGen.c ****             break;
 1150              	LM131:
 1151 0816 E9170800 		jmp	L37
 1151      00
 1152              	L55:
 431:../../MMI/Resource/CmidiGen.c ****          }
 432:../../MMI/Resource/CmidiGen.c ****          if( type == 0x51 ) {                                    /* Set tempo */
 1154              	LM132:
 1155 081b 807DDB51 		cmpb	$81, -37(%ebp)
 1156 081f 0F858C00 		jne	L56
 1156      0000
 433:../../MMI/Resource/CmidiGen.c ****             ihdl->duration += ihdl->acc_20ms;
 1158              	LM133:
 1159 0825 8B4D08   		movl	8(%ebp), %ecx
 1160 0828 8B5508   		movl	8(%ebp), %edx
 1161 082b 8B4508   		movl	8(%ebp), %eax
 1162 082e 8B4010   		movl	16(%eax), %eax
 1163 0831 0302     		addl	(%edx), %eax
 1164 0833 8901     		movl	%eax, (%ecx)
 434:../../MMI/Resource/CmidiGen.c ****             ihdl->acc_ticks = 0;
 1166              	LM134:
 1167 0835 8B4508   		movl	8(%ebp), %eax
 1168 0838 C7400C00 		movl	$0, 12(%eax)
 1168      000000
 435:../../MMI/Resource/CmidiGen.c ****             ihdl->acc_20ms = 0;
 1170              	LM135:
 1171 083f 8B4508   		movl	8(%ebp), %eax
 1172 0842 C7401000 		movl	$0, 16(%eax)
 1172      000000
 436:../../MMI/Resource/CmidiGen.c **** 
 437:../../MMI/Resource/CmidiGen.c ****             ihdl->active_tempo = (((c_uint32)trk->ptr[0] << 16) + ((c_uint32)trk->ptr[1] << 8) + (c
 1174              	LM136:
GAS LISTING f:/K7_TOUR/CODE/plutommi/Customer/ResGenerator/gcctmp/ccCOcaaa.s 			page 25


 1175 0849 8B4D08   		movl	8(%ebp), %ecx
 1176 084c 8B45F0   		movl	-16(%ebp), %eax
 1177 084f 8B4008   		movl	8(%eax), %eax
 1178 0852 0FB600   		movzbl	(%eax), %eax
 1179 0855 89C2     		movl	%eax, %edx
 1180 0857 C1E210   		sall	$16, %edx
 1181 085a 8B45F0   		movl	-16(%ebp), %eax
 1182 085d 8B4008   		movl	8(%eax), %eax
 1183 0860 40       		incl	%eax
 1184 0861 0FB600   		movzbl	(%eax), %eax
 1185 0864 C1E008   		sall	$8, %eax
 1186 0867 01C2     		addl	%eax, %edx
 1187 0869 8B45F0   		movl	-16(%ebp), %eax
 1188 086c 8B4008   		movl	8(%eax), %eax
 1189 086f 83C002   		addl	$2, %eax
 1190 0872 0FB600   		movzbl	(%eax), %eax
 1191 0875 01C2     		addl	%eax, %edx
 1192 0877 B8D34D62 		movl	$274877907, %eax
 1192      10
 1193 087c F7E2     		mull	%edx
 1194 087e 89D0     		movl	%edx, %eax
 1195 0880 C1E806   		shrl	$6, %eax
 1196 0883 894104   		movl	%eax, 4(%ecx)
 438:../../MMI/Resource/CmidiGen.c ****             ihdl->active_tempo = 1024 * ihdl->active_tempo / (c_uint32)ihdl->division;
 1198              	LM137:
 1199 0886 8B4D08   		movl	8(%ebp), %ecx
 1200 0889 8B4508   		movl	8(%ebp), %eax
 1201 088c 8B4004   		movl	4(%eax), %eax
 1202 088f 89C2     		movl	%eax, %edx
 1203 0891 C1E20A   		sall	$10, %edx
 1204 0894 8B4508   		movl	8(%ebp), %eax
 1205 0897 0FBF4008 		movswl	8(%eax),%eax
 1206 089b 8945C0   		movl	%eax, -64(%ebp)
 1207 089e 89D0     		movl	%edx, %eax
 1208 08a0 BA000000 		movl	$0, %edx
 1208      00
 1209 08a5 F775C0   		divl	-64(%ebp)
 1210 08a8 8945C0   		movl	%eax, -64(%ebp)
 1211 08ab 8B55C0   		movl	-64(%ebp), %edx
 1212 08ae 895104   		movl	%edx, 4(%ecx)
 1213              	L56:
 439:../../MMI/Resource/CmidiGen.c ****          }
 440:../../MMI/Resource/CmidiGen.c ****          trk->ptr += delta;
 1215              	LM138:
 1216 08b1 8B4DF0   		movl	-16(%ebp), %ecx
 1217 08b4 8B55F0   		movl	-16(%ebp), %edx
 1218 08b7 8B45E4   		movl	-28(%ebp), %eax
 1219 08ba 034208   		addl	8(%edx), %eax
 1220 08bd 894108   		movl	%eax, 8(%ecx)
 441:../../MMI/Resource/CmidiGen.c ****          trk->toberead -= delta;
 1222              	LM139:
 1223 08c0 8B4DF0   		movl	-16(%ebp), %ecx
 1224 08c3 8B45F0   		movl	-16(%ebp), %eax
 1225 08c6 8B55E4   		movl	-28(%ebp), %edx
 1226 08c9 8B4004   		movl	4(%eax), %eax
 1227 08cc 29D0     		subl	%edx, %eax
 1228 08ce 894104   		movl	%eax, 4(%ecx)
GAS LISTING f:/K7_TOUR/CODE/plutommi/Customer/ResGenerator/gcctmp/ccCOcaaa.s 			page 26


 442:../../MMI/Resource/CmidiGen.c ****          if( trk->toberead < 0 ) {
 1230              	LM140:
 1231 08d1 8B45F0   		movl	-16(%ebp), %eax
 1232 08d4 83780400 		cmpl	$0, 4(%eax)
 1233 08d8 0F893607 		jns	L58
 1233      0000
 443:../../MMI/Resource/CmidiGen.c ****             fail = TRUE;
 1235              	LM141:
 1236 08de C645DF01 		movb	$1, -33(%ebp)
 444:../../MMI/Resource/CmidiGen.c ****             break;
 1238              	LM142:
 1239 08e2 E94B0700 		jmp	L37
 1239      00
 1240              	L54:
 445:../../MMI/Resource/CmidiGen.c ****          }
 446:../../MMI/Resource/CmidiGen.c ****       }
 447:../../MMI/Resource/CmidiGen.c ****       else if( type == 0xF0 || type == 0xF7 ) {
 1242              	LM143:
 1243 08e7 807DDBF0 		cmpb	$-16, -37(%ebp)
 1244 08eb 7408     		je	L60
 1245 08ed 807DDBF7 		cmpb	$-9, -37(%ebp)
 1246 08f1 7402     		je	L60
 1247 08f3 EB53     		jmp	L59
 1248              	L60:
 448:../../MMI/Resource/CmidiGen.c ****          if( (delta = getVarNum( trk )) < 0 ) {
 1250              	LM144:
 1251 08f5 8B45F0   		movl	-16(%ebp), %eax
 1252 08f8 890424   		movl	%eax, (%esp)
 1253 08fb E832F8FF 		call	_getVarNum
 1253      FF
 1254 0900 8945E4   		movl	%eax, -28(%ebp)
 1255 0903 837DE400 		cmpl	$0, -28(%ebp)
 1256 0907 7909     		jns	L61
 449:../../MMI/Resource/CmidiGen.c ****             fail = TRUE;
 1258              	LM145:
 1259 0909 C645DF01 		movb	$1, -33(%ebp)
 450:../../MMI/Resource/CmidiGen.c ****             break;
 1261              	LM146:
 1262 090d E9200700 		jmp	L37
 1262      00
 1263              	L61:
 451:../../MMI/Resource/CmidiGen.c ****          }
 452:../../MMI/Resource/CmidiGen.c ****          trk->ptr += delta;
 1265              	LM147:
 1266 0912 8B4DF0   		movl	-16(%ebp), %ecx
 1267 0915 8B55F0   		movl	-16(%ebp), %edx
 1268 0918 8B45E4   		movl	-28(%ebp), %eax
 1269 091b 034208   		addl	8(%edx), %eax
 1270 091e 894108   		movl	%eax, 8(%ecx)
 453:../../MMI/Resource/CmidiGen.c ****          trk->toberead -= delta;
 1272              	LM148:
 1273 0921 8B4DF0   		movl	-16(%ebp), %ecx
 1274 0924 8B45F0   		movl	-16(%ebp), %eax
 1275 0927 8B55E4   		movl	-28(%ebp), %edx
 1276 092a 8B4004   		movl	4(%eax), %eax
 1277 092d 29D0     		subl	%edx, %eax
 1278 092f 894104   		movl	%eax, 4(%ecx)
GAS LISTING f:/K7_TOUR/CODE/plutommi/Customer/ResGenerator/gcctmp/ccCOcaaa.s 			page 27


 454:../../MMI/Resource/CmidiGen.c ****          if( trk->toberead < 0 ) {
 1280              	LM149:
 1281 0932 8B45F0   		movl	-16(%ebp), %eax
 1282 0935 83780400 		cmpl	$0, 4(%eax)
 1283 0939 0F89D506 		jns	L58
 1283      0000
 455:../../MMI/Resource/CmidiGen.c ****             fail = TRUE;
 1285              	LM150:
 1286 093f C645DF01 		movb	$1, -33(%ebp)
 456:../../MMI/Resource/CmidiGen.c ****             break;
 1288              	LM151:
 1289 0943 E9EA0600 		jmp	L37
 1289      00
 1290              	L59:
 457:../../MMI/Resource/CmidiGen.c ****          }
 458:../../MMI/Resource/CmidiGen.c ****       }
 459:../../MMI/Resource/CmidiGen.c ****       else {
 460:../../MMI/Resource/CmidiGen.c ****          if( (type & 0x80) == 0 ) {       /* running status? */
 1292              	LM152:
 1293 0948 807DDB00 		cmpb	$0, -37(%ebp)
 1294 094c 781B     		js	L64
 461:../../MMI/Resource/CmidiGen.c ****             if( trk->status == 0 ){
 1296              	LM153:
 1297 094e 8B45F0   		movl	-16(%ebp), %eax
 1298 0951 83780C00 		cmpl	$0, 12(%eax)
 1299 0955 7509     		jne	L65
 462:../../MMI/Resource/CmidiGen.c ****                fail = TRUE;
 1301              	LM154:
 1302 0957 C645DF01 		movb	$1, -33(%ebp)
 463:../../MMI/Resource/CmidiGen.c ****                break;
 1304              	LM155:
 1305 095b E9D20600 		jmp	L37
 1305      00
 1306              	L65:
 464:../../MMI/Resource/CmidiGen.c ****             }
 465:../../MMI/Resource/CmidiGen.c ****             trk->running = TRUE;
 1308              	LM156:
 1309 0960 8B45F0   		movl	-16(%ebp), %eax
 1310 0963 C6401001 		movb	$1, 16(%eax)
 1311 0967 EB11     		jmp	L66
 1312              	L64:
 466:../../MMI/Resource/CmidiGen.c ****          }
 467:../../MMI/Resource/CmidiGen.c ****          else {
 468:../../MMI/Resource/CmidiGen.c ****             trk->status = (c_uint8)type;
 1314              	LM157:
 1315 0969 8B45F0   		movl	-16(%ebp), %eax
 1316 096c 0FB655DB 		movzbl	-37(%ebp), %edx
 1317 0970 89500C   		movl	%edx, 12(%eax)
 469:../../MMI/Resource/CmidiGen.c ****             trk->running = FALSE;
 1319              	LM158:
 1320 0973 8B45F0   		movl	-16(%ebp), %eax
 1321 0976 C6401000 		movb	$0, 16(%eax)
 1322              	L66:
 470:../../MMI/Resource/CmidiGen.c ****          }
 471:../../MMI/Resource/CmidiGen.c ****          
 472:../../MMI/Resource/CmidiGen.c ****          needed = chantype[ (trk->status>>4) & 0xf ];
 1324              	LM159:
GAS LISTING f:/K7_TOUR/CODE/plutommi/Customer/ResGenerator/gcctmp/ccCOcaaa.s 			page 28


 1325 097a 8B45F0   		movl	-16(%ebp), %eax
 1326 097d 8B400C   		movl	12(%eax), %eax
 1327 0980 C1E804   		shrl	$4, %eax
 1328 0983 83E00F   		andl	$15, %eax
 1329 0986 660FBE80 		movsbw	_chantype(%eax),%ax
 1329      00000000 
 1330 098e 668945DC 		movw	%ax, -36(%ebp)
 473:../../MMI/Resource/CmidiGen.c ****          
 474:../../MMI/Resource/CmidiGen.c ****          if( needed ) {                /* ie. is it a channel message? */
 1332              	LM160:
 1333 0992 66837DDC 		cmpw	$0, -36(%ebp)
 1333      00
 1334 0997 0F847706 		je	L58
 1334      0000
 475:../../MMI/Resource/CmidiGen.c ****             if ( trk->running )
 1336              	LM161:
 1337 099d 8B45F0   		movl	-16(%ebp), %eax
 1338 09a0 80781000 		cmpb	$0, 16(%eax)
 1339 09a4 7409     		je	L68
 476:../../MMI/Resource/CmidiGen.c ****                c1 = type;
 1341              	LM162:
 1342 09a6 0FB645DB 		movzbl	-37(%ebp), %eax
 1343 09aa 8845DA   		movb	%al, -38(%ebp)
 1344 09ad EB0E     		jmp	L69
 1345              	L68:
 477:../../MMI/Resource/CmidiGen.c ****             else
 478:../../MMI/Resource/CmidiGen.c ****                c1 = egetc(trk);
 1347              	LM163:
 1348 09af 8B45F0   		movl	-16(%ebp), %eax
 1349 09b2 890424   		movl	%eax, (%esp)
 1350 09b5 E8A9F6FF 		call	_egetc
 1350      FF
 1351 09ba 8845DA   		movb	%al, -38(%ebp)
 1352              	L69:
 479:../../MMI/Resource/CmidiGen.c ****             c2 = (c_uint8)((needed>1) ? egetc(trk) : 0 );
 1354              	LM164:
 1355 09bd 66837DDC 		cmpw	$1, -36(%ebp)
 1355      01
 1356 09c2 7E10     		jle	L70
 1357 09c4 8B45F0   		movl	-16(%ebp), %eax
 1358 09c7 890424   		movl	%eax, (%esp)
 1359 09ca E894F6FF 		call	_egetc
 1359      FF
 1360 09cf 8845D3   		movb	%al, -45(%ebp)
 1361 09d2 EB04     		jmp	L71
 1362              	L70:
 1363 09d4 C645D300 		movb	$0, -45(%ebp)
 1364              	L71:
 1365 09d8 0FB64DD3 		movzbl	-45(%ebp), %ecx
 1366 09dc 884DD9   		movb	%cl, -39(%ebp)
 480:../../MMI/Resource/CmidiGen.c ****             ch = (c_uint8)(trk->status&0x0F);
 1368              	LM165:
 1369 09df 8B45F0   		movl	-16(%ebp), %eax
 1370 09e2 0FB6400C 		movzbl	12(%eax), %eax
 1371 09e6 240F     		andb	$15, %al
 1372 09e8 8845D8   		movb	%al, -40(%ebp)
 481:../../MMI/Resource/CmidiGen.c **** 
GAS LISTING f:/K7_TOUR/CODE/plutommi/Customer/ResGenerator/gcctmp/ccCOcaaa.s 			page 29


 482:../../MMI/Resource/CmidiGen.c ****             switch( trk->status & 0xf0 ) {
 1374              	LM166:
 1375 09eb 8B45F0   		movl	-16(%ebp), %eax
 1376 09ee 8B400C   		movl	12(%eax), %eax
 1377 09f1 25F00000 		andl	$240, %eax
 1377      00
 1378 09f6 8945C4   		movl	%eax, -60(%ebp)
 1379 09f9 817DC4B0 		cmpl	$176, -60(%ebp)
 1379      000000
 1380 0a00 0F844D01 		je	L78
 1380      0000
 1381 0a06 817DC4B0 		cmpl	$176, -60(%ebp)
 1381      000000
 1382 0a0d 7736     		ja	L105
 1383 0a0f 817DC490 		cmpl	$144, -60(%ebp)
 1383      000000
 1384 0a16 0F849300 		je	L74
 1384      0000
 1385 0a1c 817DC490 		cmpl	$144, -60(%ebp)
 1385      000000
 1386 0a23 770E     		ja	L106
 1387 0a25 817DC480 		cmpl	$128, -60(%ebp)
 1387      000000
 1388 0a2c 7451     		je	L73
 1389 0a2e E9E10500 		jmp	L58
 1389      00
 1390              	L106:
 1391 0a33 817DC4A0 		cmpl	$160, -60(%ebp)
 1391      000000
 1392 0a3a 0F84DC00 		je	L77
 1392      0000
 1393 0a40 E9CF0500 		jmp	L58
 1393      00
 1394              	L105:
 1395 0a45 817DC4D0 		cmpl	$208, -60(%ebp)
 1395      000000
 1396 0a4c 0F849005 		je	L102
 1396      0000
 1397 0a52 817DC4D0 		cmpl	$208, -60(%ebp)
 1397      000000
 1398 0a59 7712     		ja	L107
 1399 0a5b 817DC4C0 		cmpl	$192, -60(%ebp)
 1399      000000
 1400 0a62 0F841C05 		je	L100
 1400      0000
 1401 0a68 E9A70500 		jmp	L58
 1401      00
 1402              	L107:
 1403 0a6d 817DC4E0 		cmpl	$224, -60(%ebp)
 1403      000000
 1404 0a74 0F843705 		je	L101
 1404      0000
 1405 0a7a E9950500 		jmp	L58
 1405      00
 1406              	L73:
 483:../../MMI/Resource/CmidiGen.c ****             case 0x80:        /* Note off */
 484:../../MMI/Resource/CmidiGen.c ****                MidiEvent_Put( ihdl, ME_NOTEOFF, ch, c1, 0 );
GAS LISTING f:/K7_TOUR/CODE/plutommi/Customer/ResGenerator/gcctmp/ccCOcaaa.s 			page 30


 1408              	LM167:
 1409 0a7f C7442410 		movl	$0, 16(%esp)
 1409      00000000 
 1410 0a87 0FB645DA 		movzbl	-38(%ebp), %eax
 1411 0a8b 8944240C 		movl	%eax, 12(%esp)
 1412 0a8f 0FB645D8 		movzbl	-40(%ebp), %eax
 1413 0a93 89442408 		movl	%eax, 8(%esp)
 1414 0a97 C7442404 		movl	$2, 4(%esp)
 1414      02000000 
 1415 0a9f 8B4508   		movl	8(%ebp), %eax
 1416 0aa2 890424   		movl	%eax, (%esp)
 1417 0aa5 E83FF8FF 		call	_MidiEvent_Put
 1417      FF
 485:../../MMI/Resource/CmidiGen.c ****                break;
 1419              	LM168:
 1420 0aaa E9650500 		jmp	L58
 1420      00
 1421              	L74:
 486:../../MMI/Resource/CmidiGen.c ****             case 0x90:        /* Note on */
 487:../../MMI/Resource/CmidiGen.c ****                if( c2 == 0 )
 1423              	LM169:
 1424 0aaf 807DD900 		cmpb	$0, -39(%ebp)
 1425 0ab3 7530     		jne	L75
 488:../../MMI/Resource/CmidiGen.c ****                   MidiEvent_Put( ihdl, ME_NOTEOFF, ch, c1, 0 );
 1427              	LM170:
 1428 0ab5 C7442410 		movl	$0, 16(%esp)
 1428      00000000 
 1429 0abd 0FB645DA 		movzbl	-38(%ebp), %eax
 1430 0ac1 8944240C 		movl	%eax, 12(%esp)
 1431 0ac5 0FB645D8 		movzbl	-40(%ebp), %eax
 1432 0ac9 89442408 		movl	%eax, 8(%esp)
 1433 0acd C7442404 		movl	$2, 4(%esp)
 1433      02000000 
 1434 0ad5 8B4508   		movl	8(%ebp), %eax
 1435 0ad8 890424   		movl	%eax, (%esp)
 1436 0adb E809F8FF 		call	_MidiEvent_Put
 1436      FF
 1437 0ae0 E92F0500 		jmp	L58
 1437      00
 1438              	L75:
 489:../../MMI/Resource/CmidiGen.c ****                else {
 490:../../MMI/Resource/CmidiGen.c **** #ifdef VOLUME_QUANTIZE
 491:../../MMI/Resource/CmidiGen.c ****                   c2 &= 0xFC;
 1440              	LM171:
 1441 0ae5 B2FC     		movb	$-4, %dl
 1442 0ae7 8D45D9   		leal	-39(%ebp), %eax
 1443 0aea 2010     		andb	%dl, (%eax)
 492:../../MMI/Resource/CmidiGen.c **** #endif
 493:../../MMI/Resource/CmidiGen.c ****                   MidiEvent_Put( ihdl, ME_NOTEON, ch, c1, c2 );
 1445              	LM172:
 1446 0aec 0FB645D9 		movzbl	-39(%ebp), %eax
 1447 0af0 89442410 		movl	%eax, 16(%esp)
 1448 0af4 0FB645DA 		movzbl	-38(%ebp), %eax
 1449 0af8 8944240C 		movl	%eax, 12(%esp)
 1450 0afc 0FB645D8 		movzbl	-40(%ebp), %eax
 1451 0b00 89442408 		movl	%eax, 8(%esp)
 1452 0b04 C7442404 		movl	$1, 4(%esp)
GAS LISTING f:/K7_TOUR/CODE/plutommi/Customer/ResGenerator/gcctmp/ccCOcaaa.s 			page 31


 1452      01000000 
 1453 0b0c 8B4508   		movl	8(%ebp), %eax
 1454 0b0f 890424   		movl	%eax, (%esp)
 1455 0b12 E8D2F7FF 		call	_MidiEvent_Put
 1455      FF
 494:../../MMI/Resource/CmidiGen.c ****                }
 495:../../MMI/Resource/CmidiGen.c ****                break;
 1457              	LM173:
 1458 0b17 E9F80400 		jmp	L58
 1458      00
 1459              	L77:
 496:../../MMI/Resource/CmidiGen.c ****             case 0xa0:
 497:../../MMI/Resource/CmidiGen.c **** #ifdef VOLUME_QUANTIZE
 498:../../MMI/Resource/CmidiGen.c ****                   c2 &= 0xFC;
 1461              	LM174:
 1462 0b1c B2FC     		movb	$-4, %dl
 1463 0b1e 8D45D9   		leal	-39(%ebp), %eax
 1464 0b21 2010     		andb	%dl, (%eax)
 499:../../MMI/Resource/CmidiGen.c **** #endif
 500:../../MMI/Resource/CmidiGen.c ****                MidiEvent_Put( ihdl, ME_KEY_PRESSURE, ch, c1, c2 );
 1466              	LM175:
 1467 0b23 0FB645D9 		movzbl	-39(%ebp), %eax
 1468 0b27 89442410 		movl	%eax, 16(%esp)
 1469 0b2b 0FB645DA 		movzbl	-38(%ebp), %eax
 1470 0b2f 8944240C 		movl	%eax, 12(%esp)
 1471 0b33 0FB645D8 		movzbl	-40(%ebp), %eax
 1472 0b37 89442408 		movl	%eax, 8(%esp)
 1473 0b3b C7442404 		movl	$3, 4(%esp)
 1473      03000000 
 1474 0b43 8B4508   		movl	8(%ebp), %eax
 1475 0b46 890424   		movl	%eax, (%esp)
 1476 0b49 E89BF7FF 		call	_MidiEvent_Put
 1476      FF
 501:../../MMI/Resource/CmidiGen.c ****                break;
 1478              	LM176:
 1479 0b4e E9C10400 		jmp	L58
 1479      00
 1480              	L78:
 502:../../MMI/Resource/CmidiGen.c ****             case 0xb0:     /* Controller message */
 503:../../MMI/Resource/CmidiGen.c ****                switch( c1 ) {
 1482              	LM177:
 1483 0b53 0FB65DDA 		movzbl	-38(%ebp), %ebx
 1484 0b57 895DC8   		movl	%ebx, -56(%ebp)
 1485 0b5a 837DC865 		cmpl	$101, -56(%ebp)
 1486 0b5e 0F87B004 		ja	L58
 1486      0000
 1487 0b64 8B55C8   		movl	-56(%ebp), %edx
 1488 0b67 8B049570 		movl	L98(,%edx,4), %eax
 1488      0B0000
 1489 0b6e FFE0     		jmp	*%eax
 1490              		.p2align 2
 1491              		.align 4
 1492              	L98:
 1493 0b70 080D0000 		.long	L80
 1494 0b74 680D0000 		.long	L82
 1495 0b78 14100000 		.long	L58
 1496 0b7c 14100000 		.long	L58
GAS LISTING f:/K7_TOUR/CODE/plutommi/Customer/ResGenerator/gcctmp/ccCOcaaa.s 			page 32


 1497 0b80 14100000 		.long	L58
 1498 0b84 14100000 		.long	L58
 1499 0b88 E00E0000 		.long	L91
 1500 0b8c 980D0000 		.long	L83
 1501 0b90 14100000 		.long	L58
 1502 0b94 14100000 		.long	L58
 1503 0b98 CF0D0000 		.long	L84
 1504 0b9c 060E0000 		.long	L85
 1505 0ba0 14100000 		.long	L58
 1506 0ba4 14100000 		.long	L58
 1507 0ba8 14100000 		.long	L58
 1508 0bac 14100000 		.long	L58
 1509 0bb0 14100000 		.long	L58
 1510 0bb4 14100000 		.long	L58
 1511 0bb8 14100000 		.long	L58
 1512 0bbc 14100000 		.long	L58
 1513 0bc0 14100000 		.long	L58
 1514 0bc4 14100000 		.long	L58
 1515 0bc8 14100000 		.long	L58
 1516 0bcc 14100000 		.long	L58
 1517 0bd0 14100000 		.long	L58
 1518 0bd4 14100000 		.long	L58
 1519 0bd8 14100000 		.long	L58
 1520 0bdc 14100000 		.long	L58
 1521 0be0 14100000 		.long	L58
 1522 0be4 14100000 		.long	L58
 1523 0be8 14100000 		.long	L58
 1524 0bec 14100000 		.long	L58
 1525 0bf0 380D0000 		.long	L81
 1526 0bf4 14100000 		.long	L58
 1527 0bf8 14100000 		.long	L58
 1528 0bfc 14100000 		.long	L58
 1529 0c00 14100000 		.long	L58
 1530 0c04 14100000 		.long	L58
 1531 0c08 14100000 		.long	L58
 1532 0c0c 14100000 		.long	L58
 1533 0c10 14100000 		.long	L58
 1534 0c14 14100000 		.long	L58
 1535 0c18 14100000 		.long	L58
 1536 0c1c 14100000 		.long	L58
 1537 0c20 14100000 		.long	L58
 1538 0c24 14100000 		.long	L58
 1539 0c28 14100000 		.long	L58
 1540 0c2c 14100000 		.long	L58
 1541 0c30 14100000 		.long	L58
 1542 0c34 14100000 		.long	L58
 1543 0c38 14100000 		.long	L58
 1544 0c3c 14100000 		.long	L58
 1545 0c40 14100000 		.long	L58
 1546 0c44 14100000 		.long	L58
 1547 0c48 14100000 		.long	L58
 1548 0c4c 14100000 		.long	L58
 1549 0c50 14100000 		.long	L58
 1550 0c54 14100000 		.long	L58
 1551 0c58 14100000 		.long	L58
 1552 0c5c 14100000 		.long	L58
 1553 0c60 14100000 		.long	L58
GAS LISTING f:/K7_TOUR/CODE/plutommi/Customer/ResGenerator/gcctmp/ccCOcaaa.s 			page 33


 1554 0c64 14100000 		.long	L58
 1555 0c68 14100000 		.long	L58
 1556 0c6c 14100000 		.long	L58
 1557 0c70 3D0E0000 		.long	L86
 1558 0c74 14100000 		.long	L58
 1559 0c78 14100000 		.long	L58
 1560 0c7c 14100000 		.long	L58
 1561 0c80 14100000 		.long	L58
 1562 0c84 14100000 		.long	L58
 1563 0c88 14100000 		.long	L58
 1564 0c8c 14100000 		.long	L58
 1565 0c90 14100000 		.long	L58
 1566 0c94 14100000 		.long	L58
 1567 0c98 14100000 		.long	L58
 1568 0c9c 14100000 		.long	L58
 1569 0ca0 14100000 		.long	L58
 1570 0ca4 14100000 		.long	L58
 1571 0ca8 14100000 		.long	L58
 1572 0cac 14100000 		.long	L58
 1573 0cb0 14100000 		.long	L58
 1574 0cb4 14100000 		.long	L58
 1575 0cb8 14100000 		.long	L58
 1576 0cbc 14100000 		.long	L58
 1577 0cc0 14100000 		.long	L58
 1578 0cc4 14100000 		.long	L58
 1579 0cc8 14100000 		.long	L58
 1580 0ccc 14100000 		.long	L58
 1581 0cd0 14100000 		.long	L58
 1582 0cd4 14100000 		.long	L58
 1583 0cd8 14100000 		.long	L58
 1584 0cdc 14100000 		.long	L58
 1585 0ce0 14100000 		.long	L58
 1586 0ce4 14100000 		.long	L58
 1587 0ce8 14100000 		.long	L58
 1588 0cec 14100000 		.long	L58
 1589 0cf0 14100000 		.long	L58
 1590 0cf4 14100000 		.long	L58
 1591 0cf8 740E0000 		.long	L87
 1592 0cfc 8F0E0000 		.long	L88
 1593 0d00 AA0E0000 		.long	L89
 1594 0d04 C50E0000 		.long	L90
 1595              	L80:
 504:../../MMI/Resource/CmidiGen.c ****                case 0x00:
 505:../../MMI/Resource/CmidiGen.c ****                  MidiEvent_Put( ihdl, ME_TONE_BANK_HI, ch, c2, 0 );
 1597              	LM178:
 1598 0d08 C7442410 		movl	$0, 16(%esp)
 1598      00000000 
 1599 0d10 0FB645D9 		movzbl	-39(%ebp), %eax
 1600 0d14 8944240C 		movl	%eax, 12(%esp)
 1601 0d18 0FB645D8 		movzbl	-40(%ebp), %eax
 1602 0d1c 89442408 		movl	%eax, 8(%esp)
 1603 0d20 C7442404 		movl	$12, 4(%esp)
 1603      0C000000 
 1604 0d28 8B4508   		movl	8(%ebp), %eax
 1605 0d2b 890424   		movl	%eax, (%esp)
 1606 0d2e E8B6F5FF 		call	_MidiEvent_Put
 1606      FF
GAS LISTING f:/K7_TOUR/CODE/plutommi/Customer/ResGenerator/gcctmp/ccCOcaaa.s 			page 34


 506:../../MMI/Resource/CmidiGen.c ****                   break;
 1608              	LM179:
 1609 0d33 E9DC0200 		jmp	L58
 1609      00
 1610              	L81:
 507:../../MMI/Resource/CmidiGen.c ****                case 0x20:
 508:../../MMI/Resource/CmidiGen.c ****                   MidiEvent_Put( ihdl, ME_TONE_BANK_LO, ch, c2, 0 );
 1612              	LM180:
 1613 0d38 C7442410 		movl	$0, 16(%esp)
 1613      00000000 
 1614 0d40 0FB645D9 		movzbl	-39(%ebp), %eax
 1615 0d44 8944240C 		movl	%eax, 12(%esp)
 1616 0d48 0FB645D8 		movzbl	-40(%ebp), %eax
 1617 0d4c 89442408 		movl	%eax, 8(%esp)
 1618 0d50 C7442404 		movl	$18, 4(%esp)
 1618      12000000 
 1619 0d58 8B4508   		movl	8(%ebp), %eax
 1620 0d5b 890424   		movl	%eax, (%esp)
 1621 0d5e E886F5FF 		call	_MidiEvent_Put
 1621      FF
 509:../../MMI/Resource/CmidiGen.c ****                   break;
 1623              	LM181:
 1624 0d63 E9AC0200 		jmp	L58
 1624      00
 1625              	L82:
 510:../../MMI/Resource/CmidiGen.c ****                case 0x01:
 511:../../MMI/Resource/CmidiGen.c ****                   MidiEvent_Put( ihdl, ME_MODULATION_WHEEL, ch, c2, 0 );
 1627              	LM182:
 1628 0d68 C7442410 		movl	$0, 16(%esp)
 1628      00000000 
 1629 0d70 0FB645D9 		movzbl	-39(%ebp), %eax
 1630 0d74 8944240C 		movl	%eax, 12(%esp)
 1631 0d78 0FB645D8 		movzbl	-40(%ebp), %eax
 1632 0d7c 89442408 		movl	%eax, 8(%esp)
 1633 0d80 C7442404 		movl	$16, 4(%esp)
 1633      10000000 
 1634 0d88 8B4508   		movl	8(%ebp), %eax
 1635 0d8b 890424   		movl	%eax, (%esp)
 1636 0d8e E856F5FF 		call	_MidiEvent_Put
 1636      FF
 512:../../MMI/Resource/CmidiGen.c ****                   break;
 1638              	LM183:
 1639 0d93 E97C0200 		jmp	L58
 1639      00
 1640              	L83:
 513:../../MMI/Resource/CmidiGen.c ****                case 0x07:
 514:../../MMI/Resource/CmidiGen.c **** #ifdef VOLUME_QUANTIZE
 515:../../MMI/Resource/CmidiGen.c ****                   c2 &= 0xFC;
 1642              	LM184:
 1643 0d98 B2FC     		movb	$-4, %dl
 1644 0d9a 8D45D9   		leal	-39(%ebp), %eax
 1645 0d9d 2010     		andb	%dl, (%eax)
 516:../../MMI/Resource/CmidiGen.c **** #endif
 517:../../MMI/Resource/CmidiGen.c ****                   MidiEvent_Put( ihdl, ME_MAINVOLUME, ch, c2, 0 );
 1647              	LM185:
 1648 0d9f C7442410 		movl	$0, 16(%esp)
 1648      00000000 
GAS LISTING f:/K7_TOUR/CODE/plutommi/Customer/ResGenerator/gcctmp/ccCOcaaa.s 			page 35


 1649 0da7 0FB645D9 		movzbl	-39(%ebp), %eax
 1650 0dab 8944240C 		movl	%eax, 12(%esp)
 1651 0daf 0FB645D8 		movzbl	-40(%ebp), %eax
 1652 0db3 89442408 		movl	%eax, 8(%esp)
 1653 0db7 C7442404 		movl	$4, 4(%esp)
 1653      04000000 
 1654 0dbf 8B4508   		movl	8(%ebp), %eax
 1655 0dc2 890424   		movl	%eax, (%esp)
 1656 0dc5 E81FF5FF 		call	_MidiEvent_Put
 1656      FF
 518:../../MMI/Resource/CmidiGen.c ****                   break;
 1658              	LM186:
 1659 0dca E9450200 		jmp	L58
 1659      00
 1660              	L84:
 519:../../MMI/Resource/CmidiGen.c ****                case 0x0A:
 520:../../MMI/Resource/CmidiGen.c **** #ifdef VOLUME_QUANTIZE
 521:../../MMI/Resource/CmidiGen.c ****                   c2 &= 0xFC;
 1662              	LM187:
 1663 0dcf B2FC     		movb	$-4, %dl
 1664 0dd1 8D45D9   		leal	-39(%ebp), %eax
 1665 0dd4 2010     		andb	%dl, (%eax)
 522:../../MMI/Resource/CmidiGen.c **** #endif
 523:../../MMI/Resource/CmidiGen.c ****                   MidiEvent_Put( ihdl, ME_PAN, ch, c2, 0 );
 1667              	LM188:
 1668 0dd6 C7442410 		movl	$0, 16(%esp)
 1668      00000000 
 1669 0dde 0FB645D9 		movzbl	-39(%ebp), %eax
 1670 0de2 8944240C 		movl	%eax, 12(%esp)
 1671 0de6 0FB645D8 		movzbl	-40(%ebp), %eax
 1672 0dea 89442408 		movl	%eax, 8(%esp)
 1673 0dee C7442404 		movl	$5, 4(%esp)
 1673      05000000 
 1674 0df6 8B4508   		movl	8(%ebp), %eax
 1675 0df9 890424   		movl	%eax, (%esp)
 1676 0dfc E8E8F4FF 		call	_MidiEvent_Put
 1676      FF
 524:../../MMI/Resource/CmidiGen.c ****                   break;
 1678              	LM189:
 1679 0e01 E90E0200 		jmp	L58
 1679      00
 1680              	L85:
 525:../../MMI/Resource/CmidiGen.c ****                case 0x0B:
 526:../../MMI/Resource/CmidiGen.c **** #ifdef VOLUME_QUANTIZE
 527:../../MMI/Resource/CmidiGen.c ****                   c2 &= 0xFC;
 1682              	LM190:
 1683 0e06 B2FC     		movb	$-4, %dl
 1684 0e08 8D45D9   		leal	-39(%ebp), %eax
 1685 0e0b 2010     		andb	%dl, (%eax)
 528:../../MMI/Resource/CmidiGen.c **** #endif
 529:../../MMI/Resource/CmidiGen.c ****                   MidiEvent_Put( ihdl, ME_EXPRESSION, ch, c2, 0 );
 1687              	LM191:
 1688 0e0d C7442410 		movl	$0, 16(%esp)
 1688      00000000 
 1689 0e15 0FB645D9 		movzbl	-39(%ebp), %eax
 1690 0e19 8944240C 		movl	%eax, 12(%esp)
 1691 0e1d 0FB645D8 		movzbl	-40(%ebp), %eax
GAS LISTING f:/K7_TOUR/CODE/plutommi/Customer/ResGenerator/gcctmp/ccCOcaaa.s 			page 36


 1692 0e21 89442408 		movl	%eax, 8(%esp)
 1693 0e25 C7442404 		movl	$7, 4(%esp)
 1693      07000000 
 1694 0e2d 8B4508   		movl	8(%ebp), %eax
 1695 0e30 890424   		movl	%eax, (%esp)
 1696 0e33 E8B1F4FF 		call	_MidiEvent_Put
 1696      FF
 530:../../MMI/Resource/CmidiGen.c ****                   break;
 1698              	LM192:
 1699 0e38 E9D70100 		jmp	L58
 1699      00
 1700              	L86:
 531:../../MMI/Resource/CmidiGen.c ****                case 0x40:
 532:../../MMI/Resource/CmidiGen.c **** #ifdef VOLUME_QUANTIZE
 533:../../MMI/Resource/CmidiGen.c ****                   c2 &= 0xFC;
 1702              	LM193:
 1703 0e3d B2FC     		movb	$-4, %dl
 1704 0e3f 8D45D9   		leal	-39(%ebp), %eax
 1705 0e42 2010     		andb	%dl, (%eax)
 534:../../MMI/Resource/CmidiGen.c **** #endif
 535:../../MMI/Resource/CmidiGen.c ****                   MidiEvent_Put( ihdl, ME_SUSTAIN, ch, c2, 0 );
 1707              	LM194:
 1708 0e44 C7442410 		movl	$0, 16(%esp)
 1708      00000000 
 1709 0e4c 0FB645D9 		movzbl	-39(%ebp), %eax
 1710 0e50 8944240C 		movl	%eax, 12(%esp)
 1711 0e54 0FB645D8 		movzbl	-40(%ebp), %eax
 1712 0e58 89442408 		movl	%eax, 8(%esp)
 1713 0e5c C7442404 		movl	$6, 4(%esp)
 1713      06000000 
 1714 0e64 8B4508   		movl	8(%ebp), %eax
 1715 0e67 890424   		movl	%eax, (%esp)
 1716 0e6a E87AF4FF 		call	_MidiEvent_Put
 1716      FF
 536:../../MMI/Resource/CmidiGen.c ****                   break;
 1718              	LM195:
 1719 0e6f E9A00100 		jmp	L58
 1719      00
 1720              	L87:
 537:../../MMI/Resource/CmidiGen.c ****                   
 538:../../MMI/Resource/CmidiGen.c ****                case 98:    ihdl->nrpn=TRUE;  ihdl->rpn_lsb[ch] = c2;    break;
 1722              	LM196:
 1723 0e74 8B4508   		movl	8(%ebp), %eax
 1724 0e77 C6401C01 		movb	$1, 28(%eax)
 1725 0e7b 8B4D08   		movl	8(%ebp), %ecx
 1726 0e7e 0FB655D8 		movzbl	-40(%ebp), %edx
 1727 0e82 0FB645D9 		movzbl	-39(%ebp), %eax
 1728 0e86 88440A2D 		movb	%al, 45(%edx,%ecx)
 1729 0e8a E9850100 		jmp	L58
 1729      00
 1730              	L88:
 539:../../MMI/Resource/CmidiGen.c ****                case 99:    ihdl->nrpn=TRUE;  ihdl->rpn_msb[ch] = c2;    break;
 1732              	LM197:
 1733 0e8f 8B4508   		movl	8(%ebp), %eax
 1734 0e92 C6401C01 		movb	$1, 28(%eax)
 1735 0e96 8B4D08   		movl	8(%ebp), %ecx
 1736 0e99 0FB655D8 		movzbl	-40(%ebp), %edx
GAS LISTING f:/K7_TOUR/CODE/plutommi/Customer/ResGenerator/gcctmp/ccCOcaaa.s 			page 37


 1737 0e9d 0FB645D9 		movzbl	-39(%ebp), %eax
 1738 0ea1 88440A1D 		movb	%al, 29(%edx,%ecx)
 1739 0ea5 E96A0100 		jmp	L58
 1739      00
 1740              	L89:
 540:../../MMI/Resource/CmidiGen.c ****                case 100:   ihdl->nrpn=FALSE; ihdl->rpn_lsb[ch] = c2;    break;
 1742              	LM198:
 1743 0eaa 8B4508   		movl	8(%ebp), %eax
 1744 0ead C6401C00 		movb	$0, 28(%eax)
 1745 0eb1 8B4D08   		movl	8(%ebp), %ecx
 1746 0eb4 0FB655D8 		movzbl	-40(%ebp), %edx
 1747 0eb8 0FB645D9 		movzbl	-39(%ebp), %eax
 1748 0ebc 88440A2D 		movb	%al, 45(%edx,%ecx)
 1749 0ec0 E94F0100 		jmp	L58
 1749      00
 1750              	L90:
 541:../../MMI/Resource/CmidiGen.c ****                case 101:   ihdl->nrpn=FALSE; ihdl->rpn_msb[ch] = c2;    break;
 1752              	LM199:
 1753 0ec5 8B4508   		movl	8(%ebp), %eax
 1754 0ec8 C6401C00 		movb	$0, 28(%eax)
 1755 0ecc 8B4D08   		movl	8(%ebp), %ecx
 1756 0ecf 0FB655D8 		movzbl	-40(%ebp), %edx
 1757 0ed3 0FB645D9 		movzbl	-39(%ebp), %eax
 1758 0ed7 88440A1D 		movb	%al, 29(%edx,%ecx)
 1759 0edb E9340100 		jmp	L58
 1759      00
 1760              	L91:
 542:../../MMI/Resource/CmidiGen.c ****                   
 543:../../MMI/Resource/CmidiGen.c ****                case 0x06:     /* RPN */
 544:../../MMI/Resource/CmidiGen.c ****                   if( ihdl->nrpn )
 1762              	LM200:
 1763 0ee0 8B4508   		movl	8(%ebp), %eax
 1764 0ee3 80781C00 		cmpb	$0, 28(%eax)
 1765 0ee7 7405     		je	L92
 545:../../MMI/Resource/CmidiGen.c ****                      break;
 1767              	LM201:
 1768 0ee9 E9260100 		jmp	L58
 1768      00
 1769              	L92:
 546:../../MMI/Resource/CmidiGen.c ****                   switch( ( (c_int16)ihdl->rpn_msb[ch] << 7 ) | (c_int16)ihdl->rpn_lsb[ch] ) {
 1771              	LM202:
 1772 0eee 8B5508   		movl	8(%ebp), %edx
 1773 0ef1 0FB645D8 		movzbl	-40(%ebp), %eax
 1774 0ef5 0FBE4410 		movsbl	29(%eax,%edx),%eax
 1774      1D
 1775 0efa 89C1     		movl	%eax, %ecx
 1776 0efc C1E107   		sall	$7, %ecx
 1777 0eff 8B5508   		movl	8(%ebp), %edx
 1778 0f02 0FB645D8 		movzbl	-40(%ebp), %eax
 1779 0f06 0FBE4410 		movsbl	45(%eax,%edx),%eax
 1779      2D
 1780 0f0b 09C1     		orl	%eax, %ecx
 1781 0f0d 894DCC   		movl	%ecx, -52(%ebp)
 1782 0f10 837DCC00 		cmpl	$0, -52(%ebp)
 1783 0f14 740E     		je	L94
 1784 0f16 817DCCFF 		cmpl	$16383, -52(%ebp)
 1784      3F0000
GAS LISTING f:/K7_TOUR/CODE/plutommi/Customer/ResGenerator/gcctmp/ccCOcaaa.s 			page 38


 1785 0f1d 7435     		je	L95
 1786 0f1f E9F00000 		jmp	L58
 1786      00
 1787              	L94:
 547:../../MMI/Resource/CmidiGen.c ****                   case 0x0000: /* Pitch bend sensitivity */
 548:../../MMI/Resource/CmidiGen.c ****                      MidiEvent_Put( ihdl, ME_PITCH_SENS, ch, c2, 0 );
 1789              	LM203:
 1790 0f24 C7442410 		movl	$0, 16(%esp)
 1790      00000000 
 1791 0f2c 0FB645D9 		movzbl	-39(%ebp), %eax
 1792 0f30 8944240C 		movl	%eax, 12(%esp)
 1793 0f34 0FB645D8 		movzbl	-40(%ebp), %eax
 1794 0f38 89442408 		movl	%eax, 8(%esp)
 1795 0f3c C7442404 		movl	$9, 4(%esp)
 1795      09000000 
 1796 0f44 8B4508   		movl	8(%ebp), %eax
 1797 0f47 890424   		movl	%eax, (%esp)
 1798 0f4a E89AF3FF 		call	_MidiEvent_Put
 1798      FF
 549:../../MMI/Resource/CmidiGen.c ****                      break;
 1800              	LM204:
 1801 0f4f E9C00000 		jmp	L58
 1801      00
 1802              	L95:
 550:../../MMI/Resource/CmidiGen.c ****                   case 0x3FFF: /* RPN reset */
 551:../../MMI/Resource/CmidiGen.c ****                      /* reset pitch bend sensitivity to 2 */
 552:../../MMI/Resource/CmidiGen.c ****                      MidiEvent_Put( ihdl, ME_PITCH_SENS, ch, 2, 0 );
 1804              	LM205:
 1805 0f54 C7442410 		movl	$0, 16(%esp)
 1805      00000000 
 1806 0f5c C744240C 		movl	$2, 12(%esp)
 1806      02000000 
 1807 0f64 0FB645D8 		movzbl	-40(%ebp), %eax
 1808 0f68 89442408 		movl	%eax, 8(%esp)
 1809 0f6c C7442404 		movl	$9, 4(%esp)
 1809      09000000 
 1810 0f74 8B4508   		movl	8(%ebp), %eax
 1811 0f77 890424   		movl	%eax, (%esp)
 1812 0f7a E86AF3FF 		call	_MidiEvent_Put
 1812      FF
 553:../../MMI/Resource/CmidiGen.c ****                      break;
 1814              	LM206:
 1815 0f7f E9900000 		jmp	L58
 1815      00
 1816              	L100:
 554:../../MMI/Resource/CmidiGen.c ****                   }
 555:../../MMI/Resource/CmidiGen.c ****                   break;
 556:../../MMI/Resource/CmidiGen.c ****                }
 557:../../MMI/Resource/CmidiGen.c ****                break;
 558:../../MMI/Resource/CmidiGen.c **** 
 559:../../MMI/Resource/CmidiGen.c ****             case 0xc0:
 560:../../MMI/Resource/CmidiGen.c ****                MidiEvent_Put( ihdl, ME_PROGRAM, ch, c1, 0 );
 1818              	LM207:
 1819 0f84 C7442410 		movl	$0, 16(%esp)
 1819      00000000 
 1820 0f8c 0FB645DA 		movzbl	-38(%ebp), %eax
 1821 0f90 8944240C 		movl	%eax, 12(%esp)
GAS LISTING f:/K7_TOUR/CODE/plutommi/Customer/ResGenerator/gcctmp/ccCOcaaa.s 			page 39


 1822 0f94 0FB645D8 		movzbl	-40(%ebp), %eax
 1823 0f98 89442408 		movl	%eax, 8(%esp)
 1824 0f9c C7442404 		movl	$10, 4(%esp)
 1824      0A000000 
 1825 0fa4 8B4508   		movl	8(%ebp), %eax
 1826 0fa7 890424   		movl	%eax, (%esp)
 1827 0faa E83AF3FF 		call	_MidiEvent_Put
 1827      FF
 561:../../MMI/Resource/CmidiGen.c ****                break;
 1829              	LM208:
 1830 0faf EB63     		jmp	L58
 1831              	L101:
 562:../../MMI/Resource/CmidiGen.c ****             case 0xe0:
 563:../../MMI/Resource/CmidiGen.c **** #ifdef VOLUME_QUANTIZE
 564:../../MMI/Resource/CmidiGen.c ****                   c1 = 0;
 1833              	LM209:
 1834 0fb1 C645DA00 		movb	$0, -38(%ebp)
 565:../../MMI/Resource/CmidiGen.c **** #endif
 566:../../MMI/Resource/CmidiGen.c ****                MidiEvent_Put( ihdl, ME_PITCH_WHEEL, ch, c1, c2 );
 1836              	LM210:
 1837 0fb5 0FB645D9 		movzbl	-39(%ebp), %eax
 1838 0fb9 89442410 		movl	%eax, 16(%esp)
 1839 0fbd 0FB645DA 		movzbl	-38(%ebp), %eax
 1840 0fc1 8944240C 		movl	%eax, 12(%esp)
 1841 0fc5 0FB645D8 		movzbl	-40(%ebp), %eax
 1842 0fc9 89442408 		movl	%eax, 8(%esp)
 1843 0fcd C7442404 		movl	$8, 4(%esp)
 1843      08000000 
 1844 0fd5 8B4508   		movl	8(%ebp), %eax
 1845 0fd8 890424   		movl	%eax, (%esp)
 1846 0fdb E809F3FF 		call	_MidiEvent_Put
 1846      FF
 567:../../MMI/Resource/CmidiGen.c ****                break;
 1848              	LM211:
 1849 0fe0 EB32     		jmp	L58
 1850              	L102:
 568:../../MMI/Resource/CmidiGen.c ****             case 0xd0:
 569:../../MMI/Resource/CmidiGen.c **** #ifdef VOLUME_QUANTIZE
 570:../../MMI/Resource/CmidiGen.c ****                   c2 &= 0xFC;
 1852              	LM212:
 1853 0fe2 B2FC     		movb	$-4, %dl
 1854 0fe4 8D45D9   		leal	-39(%ebp), %eax
 1855 0fe7 2010     		andb	%dl, (%eax)
 571:../../MMI/Resource/CmidiGen.c **** #endif
 572:../../MMI/Resource/CmidiGen.c ****                MidiEvent_Put( ihdl, ME_CHANNEL_PRESSURE, ch, c1, 0 );
 1857              	LM213:
 1858 0fe9 C7442410 		movl	$0, 16(%esp)
 1858      00000000 
 1859 0ff1 0FB645DA 		movzbl	-38(%ebp), %eax
 1860 0ff5 8944240C 		movl	%eax, 12(%esp)
 1861 0ff9 0FB645D8 		movzbl	-40(%ebp), %eax
 1862 0ffd 89442408 		movl	%eax, 8(%esp)
 1863 1001 C7442404 		movl	$11, 4(%esp)
 1863      0B000000 
 1864 1009 8B4508   		movl	8(%ebp), %eax
 1865 100c 890424   		movl	%eax, (%esp)
 1866 100f E8D5F2FF 		call	_MidiEvent_Put
GAS LISTING f:/K7_TOUR/CODE/plutommi/Customer/ResGenerator/gcctmp/ccCOcaaa.s 			page 40


 1866      FF
 1867              	L58:
 573:../../MMI/Resource/CmidiGen.c ****                break;
 574:../../MMI/Resource/CmidiGen.c **** 
 575:../../MMI/Resource/CmidiGen.c ****             }
 576:../../MMI/Resource/CmidiGen.c ****          }
 577:../../MMI/Resource/CmidiGen.c ****       }
 578:../../MMI/Resource/CmidiGen.c ****       if( (trk->ticks = getVarNum( trk )) < 0 ) {
 1869              	LM214:
 1870 1014 8B5DF0   		movl	-16(%ebp), %ebx
 1871 1017 8B45F0   		movl	-16(%ebp), %eax
 1872 101a 890424   		movl	%eax, (%esp)
 1873 101d E810F1FF 		call	_getVarNum
 1873      FF
 1874 1022 8903     		movl	%eax, (%ebx)
 1875 1024 8B03     		movl	(%ebx), %eax
 1876 1026 85C0     		testl	%eax, %eax
 1877 1028 0F89F0F5 		jns	L36
 1877      FFFF
 579:../../MMI/Resource/CmidiGen.c ****          fail = TRUE;
 1879              	LM215:
 1880 102e C645DF01 		movb	$1, -33(%ebp)
 1881              	L37:
 580:../../MMI/Resource/CmidiGen.c ****          break;
 581:../../MMI/Resource/CmidiGen.c ****       }
 582:../../MMI/Resource/CmidiGen.c ****    }
 583:../../MMI/Resource/CmidiGen.c ****    ihdl->duration += ihdl->acc_20ms;
 1883              	LM216:
 1884 1032 8B4D08   		movl	8(%ebp), %ecx
 1885 1035 8B5508   		movl	8(%ebp), %edx
 1886 1038 8B4508   		movl	8(%ebp), %eax
 1887 103b 8B4010   		movl	16(%eax), %eax
 1888 103e 0302     		addl	(%edx), %eax
 1889 1040 8901     		movl	%eax, (%ecx)
 584:../../MMI/Resource/CmidiGen.c **** 
 585:../../MMI/Resource/CmidiGen.c ****    if( fail )
 1891              	LM217:
 1892 1042 807DDF00 		cmpb	$0, -33(%ebp)
 1893 1046 7409     		je	L109
 586:../../MMI/Resource/CmidiGen.c ****       return -1;
 1895              	LM218:
 1896 1048 C745D4FF 		movl	$-1, -44(%ebp)
 1896      FFFFFF
 1897 104f EB08     		jmp	L23
 1898              	L109:
 587:../../MMI/Resource/CmidiGen.c ****    return ihdl->duration;
 1900              	LM219:
 1901 1051 8B4508   		movl	8(%ebp), %eax
 1902 1054 8B00     		movl	(%eax), %eax
 1903 1056 8945D4   		movl	%eax, -44(%ebp)
 588:../../MMI/Resource/CmidiGen.c **** }
 1905              	LM220:
 1906              	L23:
 1907              	LBE6:
 1908 1059 8B45D4   		movl	-44(%ebp), %eax
 1909 105c 83C454   		addl	$84, %esp
 1910 105f 5B       		popl	%ebx
GAS LISTING f:/K7_TOUR/CODE/plutommi/Customer/ResGenerator/gcctmp/ccCOcaaa.s 			page 41


 1911 1060 5D       		popl	%ebp
 1912 1061 C3       		ret
 1928              	Lscope7:
 1934              	_MidiEvent_GroupC1:
 589:../../MMI/Resource/CmidiGen.c **** 
 590:../../MMI/Resource/CmidiGen.c **** /* -------------------------------------------------------------------------------------- */
 591:../../MMI/Resource/CmidiGen.c **** /*
 592:../../MMI/Resource/CmidiGen.c **** static void MidiEvent_GroupType( MidiEvent *head, MidiEvent **ptail )
 593:../../MMI/Resource/CmidiGen.c **** {
 594:../../MMI/Resource/CmidiGen.c ****    MidiEvent *curr, *prev;
 595:../../MMI/Resource/CmidiGen.c ****    MidiEvent *tail = *ptail;
 596:../../MMI/Resource/CmidiGen.c **** 
 597:../../MMI/Resource/CmidiGen.c ****    while( head != tail ) {
 598:../../MMI/Resource/CmidiGen.c ****       if( head->type != head->next->type ) {
 599:../../MMI/Resource/CmidiGen.c ****          for( prev = head, curr = head->next; curr != NULL; prev = curr, curr = curr->next ) {
 600:../../MMI/Resource/CmidiGen.c ****             if( curr->type == head->type ) {
 601:../../MMI/Resource/CmidiGen.c ****                prev->next = curr->next;
 602:../../MMI/Resource/CmidiGen.c ****                curr->next = head->next;
 603:../../MMI/Resource/CmidiGen.c ****                head->next = curr;
 604:../../MMI/Resource/CmidiGen.c ****                if( curr == tail )
 605:../../MMI/Resource/CmidiGen.c ****                   tail = prev;
 606:../../MMI/Resource/CmidiGen.c ****                break;
 607:../../MMI/Resource/CmidiGen.c ****             }
 608:../../MMI/Resource/CmidiGen.c ****             if( curr == tail )
 609:../../MMI/Resource/CmidiGen.c ****                break;
 610:../../MMI/Resource/CmidiGen.c ****          }
 611:../../MMI/Resource/CmidiGen.c ****       }
 612:../../MMI/Resource/CmidiGen.c ****       head = head->next;
 613:../../MMI/Resource/CmidiGen.c ****    }
 614:../../MMI/Resource/CmidiGen.c ****    *ptail = tail;
 615:../../MMI/Resource/CmidiGen.c **** }
 616:../../MMI/Resource/CmidiGen.c **** 
 617:../../MMI/Resource/CmidiGen.c **** static void MidiEvent_GroupTypeChannel( MidiEvent *head, MidiEvent **ptail )
 618:../../MMI/Resource/CmidiGen.c **** {
 619:../../MMI/Resource/CmidiGen.c ****    MidiEvent *curr, *prev;
 620:../../MMI/Resource/CmidiGen.c ****    MidiEvent *tail = *ptail;
 621:../../MMI/Resource/CmidiGen.c **** 
 622:../../MMI/Resource/CmidiGen.c ****    while( head != tail ) {
 623:../../MMI/Resource/CmidiGen.c ****       if( head->type == head->next->type && head->ch != head->next->ch ) {
 624:../../MMI/Resource/CmidiGen.c ****          for( prev = head, curr = head->next; curr != NULL; prev = curr, curr = curr->next ) {
 625:../../MMI/Resource/CmidiGen.c ****             if( curr->type == head->type && curr->ch == head->ch ) {
 626:../../MMI/Resource/CmidiGen.c ****                prev->next = curr->next;
 627:../../MMI/Resource/CmidiGen.c ****                curr->next = head->next;
 628:../../MMI/Resource/CmidiGen.c ****                head->next = curr;
 629:../../MMI/Resource/CmidiGen.c ****                if( curr == tail )
 630:../../MMI/Resource/CmidiGen.c ****                   tail = prev;
 631:../../MMI/Resource/CmidiGen.c ****                break;
 632:../../MMI/Resource/CmidiGen.c ****             }
 633:../../MMI/Resource/CmidiGen.c ****             if( curr == tail )
 634:../../MMI/Resource/CmidiGen.c ****                break;
 635:../../MMI/Resource/CmidiGen.c ****          }
 636:../../MMI/Resource/CmidiGen.c ****       }
 637:../../MMI/Resource/CmidiGen.c ****       head = head->next;
 638:../../MMI/Resource/CmidiGen.c ****    }
 639:../../MMI/Resource/CmidiGen.c ****    *ptail = tail;
 640:../../MMI/Resource/CmidiGen.c **** }
 641:../../MMI/Resource/CmidiGen.c **** */
GAS LISTING f:/K7_TOUR/CODE/plutommi/Customer/ResGenerator/gcctmp/ccCOcaaa.s 			page 42


 642:../../MMI/Resource/CmidiGen.c **** 
 643:../../MMI/Resource/CmidiGen.c **** static void MidiEvent_GroupC1( MidiEvent *head, MidiEvent **ptail )
 644:../../MMI/Resource/CmidiGen.c **** {
 1936              	LM221:
 1937 1062 55       		pushl	%ebp
 1938 1063 89E5     		movl	%esp, %ebp
 1939 1065 83EC0C   		subl	$12, %esp
 645:../../MMI/Resource/CmidiGen.c ****    MidiEvent *curr, *prev;
 646:../../MMI/Resource/CmidiGen.c ****    MidiEvent *tail = *ptail;
 1941              	LM222:
 1942              	LBB7:
 1943 1068 8B450C   		movl	12(%ebp), %eax
 1944 106b 8B00     		movl	(%eax), %eax
 1945 106d 8945F4   		movl	%eax, -12(%ebp)
 647:../../MMI/Resource/CmidiGen.c **** 
 648:../../MMI/Resource/CmidiGen.c ****    while( head != tail ) {
 1947              	LM223:
 1948              	L111:
 1949 1070 8B4508   		movl	8(%ebp), %eax
 1950 1073 3B45F4   		cmpl	-12(%ebp), %eax
 1951 1076 7505     		jne	L113
 1952 1078 E9A80000 		jmp	L112
 1952      00
 1953              	L113:
 649:../../MMI/Resource/CmidiGen.c ****       if( (head->c1>>4) != (head->next->c1>>4) ) {
 1955              	LM224:
 1956 107d 8B4508   		movl	8(%ebp), %eax
 1957 1080 0FB64002 		movzbl	2(%eax), %eax
 1958 1084 88C2     		movb	%al, %dl
 1959 1086 C0EA04   		shrb	$4, %dl
 1960 1089 8B4508   		movl	8(%ebp), %eax
 1961 108c 8B4008   		movl	8(%eax), %eax
 1962 108f 0FB64002 		movzbl	2(%eax), %eax
 1963 1093 C0E804   		shrb	$4, %al
 1964 1096 38C2     		cmpb	%al, %dl
 1965 1098 747D     		je	L114
 650:../../MMI/Resource/CmidiGen.c ****          for( prev = head, curr = head->next; curr != NULL; prev = curr, curr = curr->next ) {
 1967              	LM225:
 1968 109a 8B4508   		movl	8(%ebp), %eax
 1969 109d 8945F8   		movl	%eax, -8(%ebp)
 1970 10a0 8B4508   		movl	8(%ebp), %eax
 1971 10a3 8B4008   		movl	8(%eax), %eax
 1972 10a6 8945FC   		movl	%eax, -4(%ebp)
 1973              	L115:
 1974 10a9 837DFC00 		cmpl	$0, -4(%ebp)
 1975 10ad 7502     		jne	L118
 1976 10af EB66     		jmp	L114
 1977              	L118:
 651:../../MMI/Resource/CmidiGen.c ****             if( (curr->c1>>4) == (head->c1>>4) ) {
 1979              	LM226:
 1980 10b1 8B45FC   		movl	-4(%ebp), %eax
 1981 10b4 0FB64002 		movzbl	2(%eax), %eax
 1982 10b8 88C2     		movb	%al, %dl
 1983 10ba C0EA04   		shrb	$4, %dl
 1984 10bd 8B4508   		movl	8(%ebp), %eax
 1985 10c0 0FB64002 		movzbl	2(%eax), %eax
 1986 10c4 C0E804   		shrb	$4, %al
GAS LISTING f:/K7_TOUR/CODE/plutommi/Customer/ResGenerator/gcctmp/ccCOcaaa.s 			page 43


 1987 10c7 38C2     		cmpb	%al, %dl
 1988 10c9 7531     		jne	L119
 652:../../MMI/Resource/CmidiGen.c ****                prev->next = curr->next;
 1990              	LM227:
 1991 10cb 8B55F8   		movl	-8(%ebp), %edx
 1992 10ce 8B45FC   		movl	-4(%ebp), %eax
 1993 10d1 8B4008   		movl	8(%eax), %eax
 1994 10d4 894208   		movl	%eax, 8(%edx)
 653:../../MMI/Resource/CmidiGen.c ****                curr->next = head->next;
 1996              	LM228:
 1997 10d7 8B55FC   		movl	-4(%ebp), %edx
 1998 10da 8B4508   		movl	8(%ebp), %eax
 1999 10dd 8B4008   		movl	8(%eax), %eax
 2000 10e0 894208   		movl	%eax, 8(%edx)
 654:../../MMI/Resource/CmidiGen.c ****                head->next = curr;
 2002              	LM229:
 2003 10e3 8B5508   		movl	8(%ebp), %edx
 2004 10e6 8B45FC   		movl	-4(%ebp), %eax
 2005 10e9 894208   		movl	%eax, 8(%edx)
 655:../../MMI/Resource/CmidiGen.c ****                if( curr == tail )
 2007              	LM230:
 2008 10ec 8B45FC   		movl	-4(%ebp), %eax
 2009 10ef 3B45F4   		cmpl	-12(%ebp), %eax
 2010 10f2 7523     		jne	L114
 656:../../MMI/Resource/CmidiGen.c ****                   tail = prev;
 2012              	LM231:
 2013 10f4 8B45F8   		movl	-8(%ebp), %eax
 2014 10f7 8945F4   		movl	%eax, -12(%ebp)
 657:../../MMI/Resource/CmidiGen.c ****                break;
 2016              	LM232:
 2017 10fa EB1B     		jmp	L114
 2018              	L119:
 658:../../MMI/Resource/CmidiGen.c ****             }
 659:../../MMI/Resource/CmidiGen.c ****             if( curr == tail )
 2020              	LM233:
 2021 10fc 8B45FC   		movl	-4(%ebp), %eax
 2022 10ff 3B45F4   		cmpl	-12(%ebp), %eax
 2023 1102 7502     		jne	L117
 660:../../MMI/Resource/CmidiGen.c ****                break;
 2025              	LM234:
 2026 1104 EB11     		jmp	L114
 2028              	LM235:
 2029              	L117:
 2030 1106 8B45FC   		movl	-4(%ebp), %eax
 2031 1109 8945F8   		movl	%eax, -8(%ebp)
 2032 110c 8B45FC   		movl	-4(%ebp), %eax
 2033 110f 8B4008   		movl	8(%eax), %eax
 2034 1112 8945FC   		movl	%eax, -4(%ebp)
 2035 1115 EB92     		jmp	L115
 2036              	L114:
 661:../../MMI/Resource/CmidiGen.c ****          }
 662:../../MMI/Resource/CmidiGen.c ****       }
 663:../../MMI/Resource/CmidiGen.c ****       head = head->next;
 2038              	LM236:
 2039 1117 8B4508   		movl	8(%ebp), %eax
 2040 111a 8B4008   		movl	8(%eax), %eax
 2041 111d 894508   		movl	%eax, 8(%ebp)
GAS LISTING f:/K7_TOUR/CODE/plutommi/Customer/ResGenerator/gcctmp/ccCOcaaa.s 			page 44


 2042 1120 E94BFFFF 		jmp	L111
 2042      FF
 2043              	L112:
 664:../../MMI/Resource/CmidiGen.c ****    }
 665:../../MMI/Resource/CmidiGen.c ****    *ptail = tail;
 2045              	LM237:
 2046 1125 8B550C   		movl	12(%ebp), %edx
 2047 1128 8B45F4   		movl	-12(%ebp), %eax
 2048 112b 8902     		movl	%eax, (%edx)
 666:../../MMI/Resource/CmidiGen.c **** }
 2050              	LM238:
 2051 112d C9       		leave
 2052 112e C3       		ret
 2053              	LBE7:
 2059              	Lscope8:
 2066              	_MidiEvent_GroupChannel:
 667:../../MMI/Resource/CmidiGen.c **** 
 668:../../MMI/Resource/CmidiGen.c **** static void MidiEvent_GroupChannel( MidiEvent *prevtail, MidiEvent **phead, MidiEvent **ptail )
 669:../../MMI/Resource/CmidiGen.c **** {
 2068              	LM239:
 2069 112f 55       		pushl	%ebp
 2070 1130 89E5     		movl	%esp, %ebp
 2071 1132 83EC10   		subl	$16, %esp
 670:../../MMI/Resource/CmidiGen.c ****    MidiEvent *curr, *prev;
 671:../../MMI/Resource/CmidiGen.c ****    MidiEvent *tail = *ptail;
 2073              	LM240:
 2074              	LBB8:
 2075 1135 8B4510   		movl	16(%ebp), %eax
 2076 1138 8B00     		movl	(%eax), %eax
 2077 113a 8945F4   		movl	%eax, -12(%ebp)
 672:../../MMI/Resource/CmidiGen.c ****    MidiEvent *head = *phead;
 2079              	LM241:
 2080 113d 8B450C   		movl	12(%ebp), %eax
 2081 1140 8B00     		movl	(%eax), %eax
 2082 1142 8945F0   		movl	%eax, -16(%ebp)
 673:../../MMI/Resource/CmidiGen.c **** 
 674:../../MMI/Resource/CmidiGen.c ****    if( prevtail != 0 ) {
 2084              	LM242:
 2085 1145 837D0800 		cmpl	$0, 8(%ebp)
 2086 1149 0F84CD01 		je	L123
 2086      0000
 675:../../MMI/Resource/CmidiGen.c ****       ASSERT( prevtail->next->next == head );
 676:../../MMI/Resource/CmidiGen.c ****       if( prevtail->ch != head->ch ) {
 2088              	LM243:
 2089 114f 8B4508   		movl	8(%ebp), %eax
 2090 1152 8B55F0   		movl	-16(%ebp), %edx
 2091 1155 0FB64001 		movzbl	1(%eax), %eax
 2092 1159 3A4201   		cmpb	1(%edx), %al
 2093 115c 0F84BA01 		je	L123
 2093      0000
 677:../../MMI/Resource/CmidiGen.c ****          for( prev = head, curr = head->next; curr != tail->next; prev = curr, curr = curr->next ) 
 2095              	LM244:
 2096 1162 8B45F0   		movl	-16(%ebp), %eax
 2097 1165 8945F8   		movl	%eax, -8(%ebp)
 2098 1168 8B45F0   		movl	-16(%ebp), %eax
 2099 116b 8B4008   		movl	8(%eax), %eax
 2100 116e 8945FC   		movl	%eax, -4(%ebp)
GAS LISTING f:/K7_TOUR/CODE/plutommi/Customer/ResGenerator/gcctmp/ccCOcaaa.s 			page 45


 2101              	L125:
 2102 1171 8B55F4   		movl	-12(%ebp), %edx
 2103 1174 8B45FC   		movl	-4(%ebp), %eax
 2104 1177 3B4208   		cmpl	8(%edx), %eax
 2105 117a 7502     		jne	L128
 2106 117c EB7D     		jmp	L126
 2107              	L128:
 678:../../MMI/Resource/CmidiGen.c ****             if( curr->ch == prevtail->ch && (curr->c1>>4) == (prevtail->c1>>4) ) {
 2109              	LM245:
 2110 117e 8B45FC   		movl	-4(%ebp), %eax
 2111 1181 8B5508   		movl	8(%ebp), %edx
 2112 1184 0FB64001 		movzbl	1(%eax), %eax
 2113 1188 3A4201   		cmpb	1(%edx), %al
 2114 118b 755A     		jne	L127
 2115 118d 8B45FC   		movl	-4(%ebp), %eax
 2116 1190 0FB64002 		movzbl	2(%eax), %eax
 2117 1194 88C2     		movb	%al, %dl
 2118 1196 C0EA04   		shrb	$4, %dl
 2119 1199 8B4508   		movl	8(%ebp), %eax
 2120 119c 0FB64002 		movzbl	2(%eax), %eax
 2121 11a0 C0E804   		shrb	$4, %al
 2122 11a3 38C2     		cmpb	%al, %dl
 2123 11a5 7540     		jne	L127
 679:../../MMI/Resource/CmidiGen.c ****                prev->next = curr->next;
 2125              	LM246:
 2126 11a7 8B55F8   		movl	-8(%ebp), %edx
 2127 11aa 8B45FC   		movl	-4(%ebp), %eax
 2128 11ad 8B4008   		movl	8(%eax), %eax
 2129 11b0 894208   		movl	%eax, 8(%edx)
 680:../../MMI/Resource/CmidiGen.c ****                curr->next = head;
 2131              	LM247:
 2132 11b3 8B55FC   		movl	-4(%ebp), %edx
 2133 11b6 8B45F0   		movl	-16(%ebp), %eax
 2134 11b9 894208   		movl	%eax, 8(%edx)
 681:../../MMI/Resource/CmidiGen.c ****                head = curr;
 2136              	LM248:
 2137 11bc 8B45FC   		movl	-4(%ebp), %eax
 2138 11bf 8945F0   		movl	%eax, -16(%ebp)
 682:../../MMI/Resource/CmidiGen.c ****                prevtail->next->next = curr;
 2140              	LM249:
 2141 11c2 8B4508   		movl	8(%ebp), %eax
 2142 11c5 8B5008   		movl	8(%eax), %edx
 2143 11c8 8B45FC   		movl	-4(%ebp), %eax
 2144 11cb 894208   		movl	%eax, 8(%edx)
 683:../../MMI/Resource/CmidiGen.c ****                if( curr == tail ) {
 2146              	LM250:
 2147 11ce 8B45FC   		movl	-4(%ebp), %eax
 2148 11d1 3B45F4   		cmpl	-12(%ebp), %eax
 2149 11d4 7525     		jne	L126
 684:../../MMI/Resource/CmidiGen.c ****                   tail = prev;
 2151              	LM251:
 2152 11d6 8B45F8   		movl	-8(%ebp), %eax
 2153 11d9 8945F4   		movl	%eax, -12(%ebp)
 685:../../MMI/Resource/CmidiGen.c ****                   curr = tail->next;
 2155              	LM252:
 2156 11dc 8B45F4   		movl	-12(%ebp), %eax
 2157 11df 8B4008   		movl	8(%eax), %eax
GAS LISTING f:/K7_TOUR/CODE/plutommi/Customer/ResGenerator/gcctmp/ccCOcaaa.s 			page 46


 2158 11e2 8945FC   		movl	%eax, -4(%ebp)
 686:../../MMI/Resource/CmidiGen.c ****                }
 687:../../MMI/Resource/CmidiGen.c ****                break;
 2160              	LM253:
 2161 11e5 EB14     		jmp	L126
 2163              	LM254:
 2164              	L127:
 2165 11e7 8B45FC   		movl	-4(%ebp), %eax
 2166 11ea 8945F8   		movl	%eax, -8(%ebp)
 2167 11ed 8B45FC   		movl	-4(%ebp), %eax
 2168 11f0 8B4008   		movl	8(%eax), %eax
 2169 11f3 8945FC   		movl	%eax, -4(%ebp)
 2170 11f6 E976FFFF 		jmp	L125
 2170      FF
 2171              	L126:
 688:../../MMI/Resource/CmidiGen.c ****             }
 689:../../MMI/Resource/CmidiGen.c ****          }
 690:../../MMI/Resource/CmidiGen.c ****          if( curr == tail->next ) {
 2173              	LM255:
 2174 11fb 8B55F4   		movl	-12(%ebp), %edx
 2175 11fe 8B45FC   		movl	-4(%ebp), %eax
 2176 1201 3B4208   		cmpl	8(%edx), %eax
 2177 1204 0F851201 		jne	L123
 2177      0000
 691:../../MMI/Resource/CmidiGen.c ****             for( prev = head, curr = head->next; curr != tail->next; prev = curr, curr = curr->next
 2179              	LM256:
 2180 120a 8B45F0   		movl	-16(%ebp), %eax
 2181 120d 8945F8   		movl	%eax, -8(%ebp)
 2182 1210 8B45F0   		movl	-16(%ebp), %eax
 2183 1213 8B4008   		movl	8(%eax), %eax
 2184 1216 8945FC   		movl	%eax, -4(%ebp)
 2185              	L132:
 2186 1219 8B55F4   		movl	-12(%ebp), %edx
 2187 121c 8B45FC   		movl	-4(%ebp), %eax
 2188 121f 3B4208   		cmpl	8(%edx), %eax
 2189 1222 7502     		jne	L135
 2190 1224 EB60     		jmp	L133
 2191              	L135:
 692:../../MMI/Resource/CmidiGen.c ****                if( curr->ch == prevtail->ch ) {
 2193              	LM257:
 2194 1226 8B45FC   		movl	-4(%ebp), %eax
 2195 1229 8B5508   		movl	8(%ebp), %edx
 2196 122c 0FB64001 		movzbl	1(%eax), %eax
 2197 1230 3A4201   		cmpb	1(%edx), %al
 2198 1233 7540     		jne	L134
 693:../../MMI/Resource/CmidiGen.c ****                   prev->next = curr->next;
 2200              	LM258:
 2201 1235 8B55F8   		movl	-8(%ebp), %edx
 2202 1238 8B45FC   		movl	-4(%ebp), %eax
 2203 123b 8B4008   		movl	8(%eax), %eax
 2204 123e 894208   		movl	%eax, 8(%edx)
 694:../../MMI/Resource/CmidiGen.c ****                   curr->next = head;
 2206              	LM259:
 2207 1241 8B55FC   		movl	-4(%ebp), %edx
 2208 1244 8B45F0   		movl	-16(%ebp), %eax
 2209 1247 894208   		movl	%eax, 8(%edx)
 695:../../MMI/Resource/CmidiGen.c ****                   head = curr;
GAS LISTING f:/K7_TOUR/CODE/plutommi/Customer/ResGenerator/gcctmp/ccCOcaaa.s 			page 47


 2211              	LM260:
 2212 124a 8B45FC   		movl	-4(%ebp), %eax
 2213 124d 8945F0   		movl	%eax, -16(%ebp)
 696:../../MMI/Resource/CmidiGen.c ****                   prevtail->next->next = curr;
 2215              	LM261:
 2216 1250 8B4508   		movl	8(%ebp), %eax
 2217 1253 8B5008   		movl	8(%eax), %edx
 2218 1256 8B45FC   		movl	-4(%ebp), %eax
 2219 1259 894208   		movl	%eax, 8(%edx)
 697:../../MMI/Resource/CmidiGen.c ****                   if( curr == tail ) {
 2221              	LM262:
 2222 125c 8B45FC   		movl	-4(%ebp), %eax
 2223 125f 3B45F4   		cmpl	-12(%ebp), %eax
 2224 1262 7522     		jne	L133
 698:../../MMI/Resource/CmidiGen.c ****                      tail = prev;
 2226              	LM263:
 2227 1264 8B45F8   		movl	-8(%ebp), %eax
 2228 1267 8945F4   		movl	%eax, -12(%ebp)
 699:../../MMI/Resource/CmidiGen.c ****                      curr = tail->next;
 2230              	LM264:
 2231 126a 8B45F4   		movl	-12(%ebp), %eax
 2232 126d 8B4008   		movl	8(%eax), %eax
 2233 1270 8945FC   		movl	%eax, -4(%ebp)
 700:../../MMI/Resource/CmidiGen.c ****                   }
 701:../../MMI/Resource/CmidiGen.c ****                   break;
 2235              	LM265:
 2236 1273 EB11     		jmp	L133
 2238              	LM266:
 2239              	L134:
 2240 1275 8B45FC   		movl	-4(%ebp), %eax
 2241 1278 8945F8   		movl	%eax, -8(%ebp)
 2242 127b 8B45FC   		movl	-4(%ebp), %eax
 2243 127e 8B4008   		movl	8(%eax), %eax
 2244 1281 8945FC   		movl	%eax, -4(%ebp)
 2245 1284 EB93     		jmp	L132
 2246              	L133:
 702:../../MMI/Resource/CmidiGen.c ****                }
 703:../../MMI/Resource/CmidiGen.c ****             }
 704:../../MMI/Resource/CmidiGen.c ****             if( curr == tail->next ) {
 2248              	LM267:
 2249 1286 8B55F4   		movl	-12(%ebp), %edx
 2250 1289 8B45FC   		movl	-4(%ebp), %eax
 2251 128c 3B4208   		cmpl	8(%edx), %eax
 2252 128f 0F858700 		jne	L123
 2252      0000
 705:../../MMI/Resource/CmidiGen.c ****                for( prev = head, curr = head->next; curr != tail->next; prev = curr, curr = curr->n
 2254              	LM268:
 2255 1295 8B45F0   		movl	-16(%ebp), %eax
 2256 1298 8945F8   		movl	%eax, -8(%ebp)
 2257 129b 8B45F0   		movl	-16(%ebp), %eax
 2258 129e 8B4008   		movl	8(%eax), %eax
 2259 12a1 8945FC   		movl	%eax, -4(%ebp)
 2260              	L139:
 2261 12a4 8B55F4   		movl	-12(%ebp), %edx
 2262 12a7 8B45FC   		movl	-4(%ebp), %eax
 2263 12aa 3B4208   		cmpl	8(%edx), %eax
 2264 12ad 7502     		jne	L142
GAS LISTING f:/K7_TOUR/CODE/plutommi/Customer/ResGenerator/gcctmp/ccCOcaaa.s 			page 48


 2265 12af EB6B     		jmp	L123
 2266              	L142:
 706:../../MMI/Resource/CmidiGen.c ****                   if( (curr->c1>>4) == (prevtail->c1>>4) ) {
 2268              	LM269:
 2269 12b1 8B45FC   		movl	-4(%ebp), %eax
 2270 12b4 0FB64002 		movzbl	2(%eax), %eax
 2271 12b8 88C2     		movb	%al, %dl
 2272 12ba C0EA04   		shrb	$4, %dl
 2273 12bd 8B4508   		movl	8(%ebp), %eax
 2274 12c0 0FB64002 		movzbl	2(%eax), %eax
 2275 12c4 C0E804   		shrb	$4, %al
 2276 12c7 38C2     		cmpb	%al, %dl
 2277 12c9 7540     		jne	L141
 707:../../MMI/Resource/CmidiGen.c ****                      prev->next = curr->next;
 2279              	LM270:
 2280 12cb 8B55F8   		movl	-8(%ebp), %edx
 2281 12ce 8B45FC   		movl	-4(%ebp), %eax
 2282 12d1 8B4008   		movl	8(%eax), %eax
 2283 12d4 894208   		movl	%eax, 8(%edx)
 708:../../MMI/Resource/CmidiGen.c ****                      curr->next = head;
 2285              	LM271:
 2286 12d7 8B55FC   		movl	-4(%ebp), %edx
 2287 12da 8B45F0   		movl	-16(%ebp), %eax
 2288 12dd 894208   		movl	%eax, 8(%edx)
 709:../../MMI/Resource/CmidiGen.c ****                      head = curr;
 2290              	LM272:
 2291 12e0 8B45FC   		movl	-4(%ebp), %eax
 2292 12e3 8945F0   		movl	%eax, -16(%ebp)
 710:../../MMI/Resource/CmidiGen.c ****                      prevtail->next->next = curr;
 2294              	LM273:
 2295 12e6 8B4508   		movl	8(%ebp), %eax
 2296 12e9 8B5008   		movl	8(%eax), %edx
 2297 12ec 8B45FC   		movl	-4(%ebp), %eax
 2298 12ef 894208   		movl	%eax, 8(%edx)
 711:../../MMI/Resource/CmidiGen.c ****                      if( curr == tail ) {
 2300              	LM274:
 2301 12f2 8B45FC   		movl	-4(%ebp), %eax
 2302 12f5 3B45F4   		cmpl	-12(%ebp), %eax
 2303 12f8 7522     		jne	L123
 712:../../MMI/Resource/CmidiGen.c ****                         tail = prev;
 2305              	LM275:
 2306 12fa 8B45F8   		movl	-8(%ebp), %eax
 2307 12fd 8945F4   		movl	%eax, -12(%ebp)
 713:../../MMI/Resource/CmidiGen.c ****                         curr = tail->next;
 2309              	LM276:
 2310 1300 8B45F4   		movl	-12(%ebp), %eax
 2311 1303 8B4008   		movl	8(%eax), %eax
 2312 1306 8945FC   		movl	%eax, -4(%ebp)
 714:../../MMI/Resource/CmidiGen.c ****                      }
 715:../../MMI/Resource/CmidiGen.c ****                      break;
 2314              	LM277:
 2315 1309 EB11     		jmp	L123
 2317              	LM278:
 2318              	L141:
 2319 130b 8B45FC   		movl	-4(%ebp), %eax
 2320 130e 8945F8   		movl	%eax, -8(%ebp)
 2321 1311 8B45FC   		movl	-4(%ebp), %eax
GAS LISTING f:/K7_TOUR/CODE/plutommi/Customer/ResGenerator/gcctmp/ccCOcaaa.s 			page 49


 2322 1314 8B4008   		movl	8(%eax), %eax
 2323 1317 8945FC   		movl	%eax, -4(%ebp)
 2324 131a EB88     		jmp	L139
 2325              	L123:
 2326 131c 90       		nop
 716:../../MMI/Resource/CmidiGen.c ****                   }
 717:../../MMI/Resource/CmidiGen.c ****                }
 718:../../MMI/Resource/CmidiGen.c ****             }
 719:../../MMI/Resource/CmidiGen.c ****          }
 720:../../MMI/Resource/CmidiGen.c ****       }
 721:../../MMI/Resource/CmidiGen.c ****    }
 722:../../MMI/Resource/CmidiGen.c **** 
 723:../../MMI/Resource/CmidiGen.c ****    while( head != tail ) {
 2328              	LM279:
 2329              	L145:
 2330 131d 8B45F0   		movl	-16(%ebp), %eax
 2331 1320 3B45F4   		cmpl	-12(%ebp), %eax
 2332 1323 7505     		jne	L147
 2333 1325 E9920000 		jmp	L146
 2333      00
 2334              	L147:
 724:../../MMI/Resource/CmidiGen.c ****       if( head->ch != head->next->ch ) {
 2336              	LM280:
 2337 132a 8B4DF0   		movl	-16(%ebp), %ecx
 2338 132d 8B45F0   		movl	-16(%ebp), %eax
 2339 1330 8B5008   		movl	8(%eax), %edx
 2340 1333 0FB64101 		movzbl	1(%ecx), %eax
 2341 1337 3A4201   		cmpb	1(%edx), %al
 2342 133a 7472     		je	L148
 725:../../MMI/Resource/CmidiGen.c ****          for( prev = head, curr = head->next; curr != NULL; prev = curr, curr = curr->next ) {
 2344              	LM281:
 2345 133c 8B45F0   		movl	-16(%ebp), %eax
 2346 133f 8945F8   		movl	%eax, -8(%ebp)
 2347 1342 8B45F0   		movl	-16(%ebp), %eax
 2348 1345 8B4008   		movl	8(%eax), %eax
 2349 1348 8945FC   		movl	%eax, -4(%ebp)
 2350              	L149:
 2351 134b 837DFC00 		cmpl	$0, -4(%ebp)
 2352 134f 7502     		jne	L152
 2353 1351 EB5B     		jmp	L148
 2354              	L152:
 726:../../MMI/Resource/CmidiGen.c ****             if( curr->ch == head->ch ) {
 2356              	LM282:
 2357 1353 8B45FC   		movl	-4(%ebp), %eax
 2358 1356 8B55F0   		movl	-16(%ebp), %edx
 2359 1359 0FB64001 		movzbl	1(%eax), %eax
 2360 135d 3A4201   		cmpb	1(%edx), %al
 2361 1360 7531     		jne	L153
 727:../../MMI/Resource/CmidiGen.c ****                prev->next = curr->next;
 2363              	LM283:
 2364 1362 8B55F8   		movl	-8(%ebp), %edx
 2365 1365 8B45FC   		movl	-4(%ebp), %eax
 2366 1368 8B4008   		movl	8(%eax), %eax
 2367 136b 894208   		movl	%eax, 8(%edx)
 728:../../MMI/Resource/CmidiGen.c ****                curr->next = head->next;
 2369              	LM284:
 2370 136e 8B55FC   		movl	-4(%ebp), %edx
GAS LISTING f:/K7_TOUR/CODE/plutommi/Customer/ResGenerator/gcctmp/ccCOcaaa.s 			page 50


 2371 1371 8B45F0   		movl	-16(%ebp), %eax
 2372 1374 8B4008   		movl	8(%eax), %eax
 2373 1377 894208   		movl	%eax, 8(%edx)
 729:../../MMI/Resource/CmidiGen.c ****                head->next = curr;
 2375              	LM285:
 2376 137a 8B55F0   		movl	-16(%ebp), %edx
 2377 137d 8B45FC   		movl	-4(%ebp), %eax
 2378 1380 894208   		movl	%eax, 8(%edx)
 730:../../MMI/Resource/CmidiGen.c ****                if( curr == tail )
 2380              	LM286:
 2381 1383 8B45FC   		movl	-4(%ebp), %eax
 2382 1386 3B45F4   		cmpl	-12(%ebp), %eax
 2383 1389 7523     		jne	L148
 731:../../MMI/Resource/CmidiGen.c ****                   tail = prev;
 2385              	LM287:
 2386 138b 8B45F8   		movl	-8(%ebp), %eax
 2387 138e 8945F4   		movl	%eax, -12(%ebp)
 732:../../MMI/Resource/CmidiGen.c ****                break;
 2389              	LM288:
 2390 1391 EB1B     		jmp	L148
 2391              	L153:
 733:../../MMI/Resource/CmidiGen.c ****             }
 734:../../MMI/Resource/CmidiGen.c ****             if( curr == tail )
 2393              	LM289:
 2394 1393 8B45FC   		movl	-4(%ebp), %eax
 2395 1396 3B45F4   		cmpl	-12(%ebp), %eax
 2396 1399 7502     		jne	L151
 735:../../MMI/Resource/CmidiGen.c ****                break;
 2398              	LM290:
 2399 139b EB11     		jmp	L148
 2401              	LM291:
 2402              	L151:
 2403 139d 8B45FC   		movl	-4(%ebp), %eax
 2404 13a0 8945F8   		movl	%eax, -8(%ebp)
 2405 13a3 8B45FC   		movl	-4(%ebp), %eax
 2406 13a6 8B4008   		movl	8(%eax), %eax
 2407 13a9 8945FC   		movl	%eax, -4(%ebp)
 2408 13ac EB9D     		jmp	L149
 2409              	L148:
 736:../../MMI/Resource/CmidiGen.c ****          }
 737:../../MMI/Resource/CmidiGen.c ****       }
 738:../../MMI/Resource/CmidiGen.c ****       head = head->next;
 2411              	LM292:
 2412 13ae 8B45F0   		movl	-16(%ebp), %eax
 2413 13b1 8B4008   		movl	8(%eax), %eax
 2414 13b4 8945F0   		movl	%eax, -16(%ebp)
 2415 13b7 E961FFFF 		jmp	L145
 2415      FF
 2416              	L146:
 739:../../MMI/Resource/CmidiGen.c ****    }
 740:../../MMI/Resource/CmidiGen.c ****    *ptail = tail;
 2418              	LM293:
 2419 13bc 8B5510   		movl	16(%ebp), %edx
 2420 13bf 8B45F4   		movl	-12(%ebp), %eax
 2421 13c2 8902     		movl	%eax, (%edx)
 741:../../MMI/Resource/CmidiGen.c **** }
 2423              	LM294:
GAS LISTING f:/K7_TOUR/CODE/plutommi/Customer/ResGenerator/gcctmp/ccCOcaaa.s 			page 51


 2424 13c4 C9       		leave
 2425 13c5 C3       		ret
 2426              	LBE8:
 2433              	Lscope9:
 2439              	_MidiEvent_RemoveDupEvents:
 742:../../MMI/Resource/CmidiGen.c **** 
 743:../../MMI/Resource/CmidiGen.c **** static void MidiEvent_RemoveDupEvents( MidiEvent *head, MidiEvent **ptail )
 744:../../MMI/Resource/CmidiGen.c **** {
 2441              	LM295:
 2442 13c6 55       		pushl	%ebp
 2443 13c7 89E5     		movl	%esp, %ebp
 2444 13c9 83EC0C   		subl	$12, %esp
 745:../../MMI/Resource/CmidiGen.c ****    MidiEvent *curr, *temp;
 746:../../MMI/Resource/CmidiGen.c ****    MidiEvent *tail = *ptail;
 2446              	LM296:
 2447              	LBB9:
 2448 13cc 8B450C   		movl	12(%ebp), %eax
 2449 13cf 8B00     		movl	(%eax), %eax
 2450 13d1 8945F4   		movl	%eax, -12(%ebp)
 747:../../MMI/Resource/CmidiGen.c **** 
 748:../../MMI/Resource/CmidiGen.c ****    while( head != tail ) {
 2452              	LM297:
 2453              	L157:
 2454 13d4 8B4508   		movl	8(%ebp), %eax
 2455 13d7 3B45F4   		cmpl	-12(%ebp), %eax
 2456 13da 7505     		jne	L159
 2457 13dc E9FD0000 		jmp	L158
 2457      00
 2458              	L159:
 749:../../MMI/Resource/CmidiGen.c ****       if( head->type == ME_MAINVOLUME ||
 2460              	LM298:
 2461 13e1 8B4508   		movl	8(%ebp), %eax
 2462 13e4 803804   		cmpb	$4, (%eax)
 2463 13e7 7455     		je	L161
 2464 13e9 8B4508   		movl	8(%ebp), %eax
 2465 13ec 803806   		cmpb	$6, (%eax)
 2466 13ef 744D     		je	L161
 2467 13f1 8B4508   		movl	8(%ebp), %eax
 2468 13f4 803805   		cmpb	$5, (%eax)
 2469 13f7 7445     		je	L161
 2470 13f9 8B4508   		movl	8(%ebp), %eax
 2471 13fc 803808   		cmpb	$8, (%eax)
 2472 13ff 743D     		je	L161
 2473 1401 8B4508   		movl	8(%ebp), %eax
 2474 1404 80380A   		cmpb	$10, (%eax)
 2475 1407 7435     		je	L161
 2476 1409 8B4508   		movl	8(%ebp), %eax
 2477 140c 80380B   		cmpb	$11, (%eax)
 2478 140f 742D     		je	L161
 2479 1411 8B4508   		movl	8(%ebp), %eax
 2480 1414 80380C   		cmpb	$12, (%eax)
 2481 1417 7425     		je	L161
 2482 1419 8B4508   		movl	8(%ebp), %eax
 2483 141c 803812   		cmpb	$18, (%eax)
 2484 141f 741D     		je	L161
 2485 1421 8B4508   		movl	8(%ebp), %eax
 2486 1424 803810   		cmpb	$16, (%eax)
GAS LISTING f:/K7_TOUR/CODE/plutommi/Customer/ResGenerator/gcctmp/ccCOcaaa.s 			page 52


 2487 1427 7415     		je	L161
 2488 1429 8B4508   		movl	8(%ebp), %eax
 2489 142c 803807   		cmpb	$7, (%eax)
 2490 142f 740D     		je	L161
 2491 1431 8B4508   		movl	8(%ebp), %eax
 2492 1434 803809   		cmpb	$9, (%eax)
 2493 1437 7405     		je	L161
 2494 1439 E9860000 		jmp	L160
 2494      00
 2495              	L161:
 750:../../MMI/Resource/CmidiGen.c ****          head->type == ME_SUSTAIN ||
 751:../../MMI/Resource/CmidiGen.c ****          head->type == ME_PAN ||
 752:../../MMI/Resource/CmidiGen.c ****          head->type == ME_PITCH_WHEEL || 
 753:../../MMI/Resource/CmidiGen.c ****          head->type == ME_PROGRAM ||
 754:../../MMI/Resource/CmidiGen.c ****          head->type == ME_CHANNEL_PRESSURE ||
 755:../../MMI/Resource/CmidiGen.c ****          head->type == ME_TONE_BANK_HI ||
 756:../../MMI/Resource/CmidiGen.c ****          head->type == ME_TONE_BANK_LO ||
 757:../../MMI/Resource/CmidiGen.c ****          head->type == ME_MODULATION_WHEEL ||
 758:../../MMI/Resource/CmidiGen.c ****          head->type == ME_EXPRESSION ||
 759:../../MMI/Resource/CmidiGen.c ****          head->type == ME_PITCH_SENS ) {
 760:../../MMI/Resource/CmidiGen.c ****          for( curr = head; curr != tail;  ) {
 2497              	LM299:
 2498 143e 8B4508   		movl	8(%ebp), %eax
 2499 1441 8945FC   		movl	%eax, -4(%ebp)
 2500              	L162:
 2501 1444 8B45FC   		movl	-4(%ebp), %eax
 2502 1447 3B45F4   		cmpl	-12(%ebp), %eax
 2503 144a 7502     		jne	L165
 2504 144c EB76     		jmp	L160
 2505              	L165:
 761:../../MMI/Resource/CmidiGen.c ****             temp = curr->next;
 2507              	LM300:
 2508 144e 8B45FC   		movl	-4(%ebp), %eax
 2509 1451 8B4008   		movl	8(%eax), %eax
 2510 1454 8945F8   		movl	%eax, -8(%ebp)
 762:../../MMI/Resource/CmidiGen.c ****             if( temp->type == head->type && temp->ch == head->ch ) {
 2512              	LM301:
 2513 1457 8B45F8   		movl	-8(%ebp), %eax
 2514 145a 8B5508   		movl	8(%ebp), %edx
 2515 145d 0FB600   		movzbl	(%eax), %eax
 2516 1460 3A02     		cmpb	(%edx), %al
 2517 1462 7555     		jne	L166
 2518 1464 8B45F8   		movl	-8(%ebp), %eax
 2519 1467 8B5508   		movl	8(%ebp), %edx
 2520 146a 0FB64001 		movzbl	1(%eax), %eax
 2521 146e 3A4201   		cmpb	1(%edx), %al
 2522 1471 7546     		jne	L166
 763:../../MMI/Resource/CmidiGen.c ****                if( head != curr ) {
 2524              	LM302:
 2525 1473 8B4508   		movl	8(%ebp), %eax
 2526 1476 3B45FC   		cmpl	-4(%ebp), %eax
 2527 1479 7418     		je	L167
 764:../../MMI/Resource/CmidiGen.c ****                   curr->next = temp->next;
 2529              	LM303:
 2530 147b 8B55FC   		movl	-4(%ebp), %edx
 2531 147e 8B45F8   		movl	-8(%ebp), %eax
 2532 1481 8B4008   		movl	8(%eax), %eax
GAS LISTING f:/K7_TOUR/CODE/plutommi/Customer/ResGenerator/gcctmp/ccCOcaaa.s 			page 53


 2533 1484 894208   		movl	%eax, 8(%edx)
 765:../../MMI/Resource/CmidiGen.c ****                   temp->next = head->next;
 2535              	LM304:
 2536 1487 8B55F8   		movl	-8(%ebp), %edx
 2537 148a 8B4508   		movl	8(%ebp), %eax
 2538 148d 8B4008   		movl	8(%eax), %eax
 2539 1490 894208   		movl	%eax, 8(%edx)
 2540              	L167:
 766:../../MMI/Resource/CmidiGen.c ****                }
 767:../../MMI/Resource/CmidiGen.c ****                *head = *temp;
 2542              	LM305:
 2543 1493 8B4D08   		movl	8(%ebp), %ecx
 2544 1496 8B55F8   		movl	-8(%ebp), %edx
 2545 1499 8B02     		movl	(%edx), %eax
 2546 149b 8901     		movl	%eax, (%ecx)
 2547 149d 8B4204   		movl	4(%edx), %eax
 2548 14a0 894104   		movl	%eax, 4(%ecx)
 2549 14a3 8B4208   		movl	8(%edx), %eax
 2550 14a6 894108   		movl	%eax, 8(%ecx)
 768:../../MMI/Resource/CmidiGen.c **** //               free( temp );
 769:../../MMI/Resource/CmidiGen.c ****                if( tail == temp ) {
 2552              	LM306:
 2553 14a9 8B45F4   		movl	-12(%ebp), %eax
 2554 14ac 3B45F8   		cmpl	-8(%ebp), %eax
 2555 14af 7593     		jne	L162
 770:../../MMI/Resource/CmidiGen.c ****                   tail = curr;
 2557              	LM307:
 2558 14b1 8B45FC   		movl	-4(%ebp), %eax
 2559 14b4 8945F4   		movl	%eax, -12(%ebp)
 771:../../MMI/Resource/CmidiGen.c ****                   break;
 2561              	LM308:
 2562 14b7 EB0B     		jmp	L160
 2563              	L166:
 772:../../MMI/Resource/CmidiGen.c ****                }
 773:../../MMI/Resource/CmidiGen.c ****             }
 774:../../MMI/Resource/CmidiGen.c ****             else {
 775:../../MMI/Resource/CmidiGen.c ****                curr = curr->next;
 2565              	LM309:
 2566 14b9 8B45FC   		movl	-4(%ebp), %eax
 2567 14bc 8B4008   		movl	8(%eax), %eax
 2568 14bf 8945FC   		movl	%eax, -4(%ebp)
 2570              	LM310:
 2571 14c2 EB80     		jmp	L162
 2572              	L160:
 776:../../MMI/Resource/CmidiGen.c ****             }
 777:../../MMI/Resource/CmidiGen.c ****          }
 778:../../MMI/Resource/CmidiGen.c ****       }
 779:../../MMI/Resource/CmidiGen.c ****       if( head != tail )
 2574              	LM311:
 2575 14c4 8B4508   		movl	8(%ebp), %eax
 2576 14c7 3B45F4   		cmpl	-12(%ebp), %eax
 2577 14ca 0F8404FF 		je	L157
 2577      FFFF
 780:../../MMI/Resource/CmidiGen.c ****          head = head->next;
 2579              	LM312:
 2580 14d0 8B4508   		movl	8(%ebp), %eax
 2581 14d3 8B4008   		movl	8(%eax), %eax
GAS LISTING f:/K7_TOUR/CODE/plutommi/Customer/ResGenerator/gcctmp/ccCOcaaa.s 			page 54


 2582 14d6 894508   		movl	%eax, 8(%ebp)
 2583 14d9 E9F6FEFF 		jmp	L157
 2583      FF
 2584              	L158:
 781:../../MMI/Resource/CmidiGen.c ****    }
 782:../../MMI/Resource/CmidiGen.c ****    *ptail = tail;
 2586              	LM313:
 2587 14de 8B550C   		movl	12(%ebp), %edx
 2588 14e1 8B45F4   		movl	-12(%ebp), %eax
 2589 14e4 8902     		movl	%eax, (%edx)
 783:../../MMI/Resource/CmidiGen.c **** }
 2591              	LM314:
 2592 14e6 C9       		leave
 2593 14e7 C3       		ret
 2594              	LBE9:
 2600              	Lscope10:
 2605              	_MidiEvent_Optimize:
 784:../../MMI/Resource/CmidiGen.c **** 
 785:../../MMI/Resource/CmidiGen.c **** static void MidiEvent_Optimize( CMIDI_Handle_Int *ihdl )
 786:../../MMI/Resource/CmidiGen.c **** {
 2607              	LM315:
 2608 14e8 55       		pushl	%ebp
 2609 14e9 89E5     		movl	%esp, %ebp
 2610 14eb 83EC18   		subl	$24, %esp
 787:../../MMI/Resource/CmidiGen.c ****    MidiEvent *head, *tail, *prevtail;
 788:../../MMI/Resource/CmidiGen.c **** 
 789:../../MMI/Resource/CmidiGen.c ****    head = tail = ihdl->event_head;
 2612              	LM316:
 2613              	LBB10:
 2614 14ee 8B4508   		movl	8(%ebp), %eax
 2615 14f1 8B80C002 		movl	704(%eax), %eax
 2615      0000
 2616 14f7 8945F8   		movl	%eax, -8(%ebp)
 2617 14fa 8945FC   		movl	%eax, -4(%ebp)
 790:../../MMI/Resource/CmidiGen.c ****    prevtail = 0;
 2619              	LM317:
 2620 14fd C745F400 		movl	$0, -12(%ebp)
 2620      000000
 791:../../MMI/Resource/CmidiGen.c ****    while( head != NULL ) {
 2622              	LM318:
 2623              	L172:
 2624 1504 837DFC00 		cmpl	$0, -4(%ebp)
 2625 1508 7505     		jne	L174
 2626 150a E9CB0000 		jmp	L171
 2626      00
 2627              	L174:
 792:../../MMI/Resource/CmidiGen.c ****       if( head->type == ME_DTIME ) {
 2629              	LM319:
 2630 150f 8B45FC   		movl	-4(%ebp), %eax
 2631 1512 803800   		cmpb	$0, (%eax)
 2632 1515 754B     		jne	L175
 793:../../MMI/Resource/CmidiGen.c ****          tail = head->next;
 2634              	LM320:
 2635 1517 8B45FC   		movl	-4(%ebp), %eax
 2636 151a 8B4008   		movl	8(%eax), %eax
 2637 151d 8945F8   		movl	%eax, -8(%ebp)
 794:../../MMI/Resource/CmidiGen.c ****          while( tail != NULL && tail->type == ME_DTIME ) {
GAS LISTING f:/K7_TOUR/CODE/plutommi/Customer/ResGenerator/gcctmp/ccCOcaaa.s 			page 55


 2639              	LM321:
 2640              	L176:
 2641 1520 837DF800 		cmpl	$0, -8(%ebp)
 2642 1524 7431     		je	L177
 2643 1526 8B45F8   		movl	-8(%ebp), %eax
 2644 1529 803800   		cmpb	$0, (%eax)
 2645 152c 7529     		jne	L177
 795:../../MMI/Resource/CmidiGen.c ****             head->dtime += tail->dtime;
 2647              	LM322:
 2648 152e 8B4DFC   		movl	-4(%ebp), %ecx
 2649 1531 8B55FC   		movl	-4(%ebp), %edx
 2650 1534 8B45F8   		movl	-8(%ebp), %eax
 2651 1537 8B4004   		movl	4(%eax), %eax
 2652 153a 034204   		addl	4(%edx), %eax
 2653 153d 894104   		movl	%eax, 4(%ecx)
 796:../../MMI/Resource/CmidiGen.c ****             head->next = tail->next;
 2655              	LM323:
 2656 1540 8B55FC   		movl	-4(%ebp), %edx
 2657 1543 8B45F8   		movl	-8(%ebp), %eax
 2658 1546 8B4008   		movl	8(%eax), %eax
 2659 1549 894208   		movl	%eax, 8(%edx)
 797:../../MMI/Resource/CmidiGen.c **** //            free( tail );
 798:../../MMI/Resource/CmidiGen.c ****             tail = head->next;
 2661              	LM324:
 2662 154c 8B45FC   		movl	-4(%ebp), %eax
 2663 154f 8B4008   		movl	8(%eax), %eax
 2664 1552 8945F8   		movl	%eax, -8(%ebp)
 2665 1555 EBC9     		jmp	L176
 2666              	L177:
 799:../../MMI/Resource/CmidiGen.c ****          }
 800:../../MMI/Resource/CmidiGen.c ****          head = head->next;
 2668              	LM325:
 2669 1557 8B45FC   		movl	-4(%ebp), %eax
 2670 155a 8B4008   		movl	8(%eax), %eax
 2671 155d 8945FC   		movl	%eax, -4(%ebp)
 2672 1560 EBA2     		jmp	L172
 2673              	L175:
 801:../../MMI/Resource/CmidiGen.c ****       }
 802:../../MMI/Resource/CmidiGen.c ****       else {
 803:../../MMI/Resource/CmidiGen.c ****          tail = head;
 2675              	LM326:
 2676 1562 8B45FC   		movl	-4(%ebp), %eax
 2677 1565 8945F8   		movl	%eax, -8(%ebp)
 804:../../MMI/Resource/CmidiGen.c ****          while( tail->next!= 0 && tail->next->type != ME_DTIME )
 2679              	LM327:
 2680              	L181:
 2681 1568 8B45F8   		movl	-8(%ebp), %eax
 2682 156b 83780800 		cmpl	$0, 8(%eax)
 2683 156f 7418     		je	L182
 2684 1571 8B45F8   		movl	-8(%ebp), %eax
 2685 1574 8B4008   		movl	8(%eax), %eax
 2686 1577 803800   		cmpb	$0, (%eax)
 2687 157a 7502     		jne	L183
 2688 157c EB0B     		jmp	L182
 2689              	L183:
 805:../../MMI/Resource/CmidiGen.c ****             tail = tail->next;
 2691              	LM328:
GAS LISTING f:/K7_TOUR/CODE/plutommi/Customer/ResGenerator/gcctmp/ccCOcaaa.s 			page 56


 2692 157e 8B45F8   		movl	-8(%ebp), %eax
 2693 1581 8B4008   		movl	8(%eax), %eax
 2694 1584 8945F8   		movl	%eax, -8(%ebp)
 2695 1587 EBDF     		jmp	L181
 2696              	L182:
 806:../../MMI/Resource/CmidiGen.c ****          MidiEvent_RemoveDupEvents( head, &tail );
 2698              	LM329:
 2699 1589 8D45F8   		leal	-8(%ebp), %eax
 2700 158c 89442404 		movl	%eax, 4(%esp)
 2701 1590 8B45FC   		movl	-4(%ebp), %eax
 2702 1593 890424   		movl	%eax, (%esp)
 2703 1596 E82BFEFF 		call	_MidiEvent_RemoveDupEvents
 2703      FF
 807:../../MMI/Resource/CmidiGen.c **** //         MidiEvent_GroupType( head, &tail );
 808:../../MMI/Resource/CmidiGen.c **** //         MidiEvent_GroupTypeChannel( head, &tail );
 809:../../MMI/Resource/CmidiGen.c ****          MidiEvent_GroupC1( head, &tail );
 2705              	LM330:
 2706 159b 8D45F8   		leal	-8(%ebp), %eax
 2707 159e 89442404 		movl	%eax, 4(%esp)
 2708 15a2 8B45FC   		movl	-4(%ebp), %eax
 2709 15a5 890424   		movl	%eax, (%esp)
 2710 15a8 E8B5FAFF 		call	_MidiEvent_GroupC1
 2710      FF
 810:../../MMI/Resource/CmidiGen.c ****          MidiEvent_GroupChannel( prevtail, &head, &tail );
 2712              	LM331:
 2713 15ad 8D45F8   		leal	-8(%ebp), %eax
 2714 15b0 89442408 		movl	%eax, 8(%esp)
 2715 15b4 8D45FC   		leal	-4(%ebp), %eax
 2716 15b7 89442404 		movl	%eax, 4(%esp)
 2717 15bb 8B45F4   		movl	-12(%ebp), %eax
 2718 15be 890424   		movl	%eax, (%esp)
 2719 15c1 E869FBFF 		call	_MidiEvent_GroupChannel
 2719      FF
 811:../../MMI/Resource/CmidiGen.c ****          head = tail->next;
 2721              	LM332:
 2722 15c6 8B45F8   		movl	-8(%ebp), %eax
 2723 15c9 8B4008   		movl	8(%eax), %eax
 2724 15cc 8945FC   		movl	%eax, -4(%ebp)
 812:../../MMI/Resource/CmidiGen.c ****          prevtail = tail;
 2726              	LM333:
 2727 15cf 8B45F8   		movl	-8(%ebp), %eax
 2728 15d2 8945F4   		movl	%eax, -12(%ebp)
 2729 15d5 E92AFFFF 		jmp	L172
 2729      FF
 813:../../MMI/Resource/CmidiGen.c ****       }
 814:../../MMI/Resource/CmidiGen.c ****    }
 815:../../MMI/Resource/CmidiGen.c **** }
 2731              	LM334:
 2732              	L171:
 2733 15da C9       		leave
 2734 15db C3       		ret
 2735              	LBE10:
 2741              	Lscope11:
 2749              	_putBits:
 816:../../MMI/Resource/CmidiGen.c **** /* -------------------------------------------------------------------------------------- */
 817:../../MMI/Resource/CmidiGen.c **** 
 818:../../MMI/Resource/CmidiGen.c **** static void putBits( CMIDI_Handle_Int *ihdl, c_uint8 data, c_uint32 len, c_uint8 **pptr )
GAS LISTING f:/K7_TOUR/CODE/plutommi/Customer/ResGenerator/gcctmp/ccCOcaaa.s 			page 57


 819:../../MMI/Resource/CmidiGen.c **** {
 2751              	LM335:
 2752 15dc 55       		pushl	%ebp
 2753 15dd 89E5     		movl	%esp, %ebp
 2754 15df 53       		pushl	%ebx
 2755 15e0 83EC04   		subl	$4, %esp
 2756 15e3 8B450C   		movl	12(%ebp), %eax
 2757 15e6 8845FB   		movb	%al, -5(%ebp)
 820:../../MMI/Resource/CmidiGen.c ****    c_uint16 mask = ((1<<len)-1);
 2759              	LM336:
 2760              	LBB11:
 2761 15e9 B8010000 		movl	$1, %eax
 2761      00
 2762 15ee 0FB64D10 		movzbl	16(%ebp), %ecx
 2763 15f2 D3E0     		sall	%cl, %eax
 2764 15f4 48       		decl	%eax
 2765 15f5 668945F8 		movw	%ax, -8(%ebp)
 821:../../MMI/Resource/CmidiGen.c ****    if( len == 0 )
 2767              	LM337:
 2768 15f9 837D1000 		cmpl	$0, 16(%ebp)
 2769 15fd 7505     		jne	L186
 822:../../MMI/Resource/CmidiGen.c ****       return;
 2771              	LM338:
 2772 15ff E9C30000 		jmp	L185
 2772      00
 2773              	L186:
 823:../../MMI/Resource/CmidiGen.c ****    ASSERT( len <= 8 );
 824:../../MMI/Resource/CmidiGen.c **** 
 825:../../MMI/Resource/CmidiGen.c ****    ihdl->cache = ((c_uint16)data & mask) + (ihdl->cache << len );
 2775              	LM339:
 2776 1604 8B5D08   		movl	8(%ebp), %ebx
 2777 1607 660FB655 		movzbw	-5(%ebp), %dx
 2777      FB
 2778 160c 8B45F8   		movl	-8(%ebp), %eax
 2779 160f 21C2     		andl	%eax, %edx
 2780 1611 8B4508   		movl	8(%ebp), %eax
 2781 1614 0FB780CE 		movzwl	718(%eax), %eax
 2781      020000
 2782 161b 0FB64D10 		movzbl	16(%ebp), %ecx
 2783 161f D3E0     		sall	%cl, %eax
 2784 1621 8D0410   		leal	(%eax,%edx), %eax
 2785 1624 668983CE 		movw	%ax, 718(%ebx)
 2785      020000
 826:../../MMI/Resource/CmidiGen.c ****    ihdl->bits += len;
 2787              	LM340:
 2788 162b 8B4D08   		movl	8(%ebp), %ecx
 2789 162e 8B4508   		movl	8(%ebp), %eax
 2790 1631 0FB790D0 		movzwl	720(%eax), %edx
 2790      020000
 2791 1638 8B4510   		movl	16(%ebp), %eax
 2792 163b 8D0410   		leal	(%eax,%edx), %eax
 2793 163e 668981D0 		movw	%ax, 720(%ecx)
 2793      020000
 827:../../MMI/Resource/CmidiGen.c ****    if( ihdl->bits >= 8 ) {
 2795              	LM341:
 2796 1645 8B4508   		movl	8(%ebp), %eax
 2797 1648 6683B8D0 		cmpw	$7, 720(%eax)
GAS LISTING f:/K7_TOUR/CODE/plutommi/Customer/ResGenerator/gcctmp/ccCOcaaa.s 			page 58


 2797      02000007 
 2798 1650 7675     		jbe	L185
 828:../../MMI/Resource/CmidiGen.c ****       data = (c_uint8)(ihdl->cache >> (ihdl->bits-8));
 2800              	LM342:
 2801 1652 8B4508   		movl	8(%ebp), %eax
 2802 1655 0FB790CE 		movzwl	718(%eax), %edx
 2802      020000
 2803 165c 8B4508   		movl	8(%ebp), %eax
 2804 165f 0FB780D0 		movzwl	720(%eax), %eax
 2804      020000
 2805 1666 8D48F8   		leal	-8(%eax), %ecx
 2806 1669 89D0     		movl	%edx, %eax
 2807 166b D3F8     		sarl	%cl, %eax
 2808 166d 8845FB   		movb	%al, -5(%ebp)
 829:../../MMI/Resource/CmidiGen.c ****       ihdl->bits -= 8;
 2810              	LM343:
 2811 1670 8B5508   		movl	8(%ebp), %edx
 2812 1673 8B4508   		movl	8(%ebp), %eax
 2813 1676 0FB780D0 		movzwl	720(%eax), %eax
 2813      020000
 2814 167d 83E808   		subl	$8, %eax
 2815 1680 668982D0 		movw	%ax, 720(%edx)
 2815      020000
 830:../../MMI/Resource/CmidiGen.c ****       ihdl->cache &= ((1<<ihdl->bits)-1);
 2817              	LM344:
 2818 1687 8B5D08   		movl	8(%ebp), %ebx
 2819 168a 8B5508   		movl	8(%ebp), %edx
 2820 168d 8B4508   		movl	8(%ebp), %eax
 2821 1690 0FB788D0 		movzwl	720(%eax), %ecx
 2821      020000
 2822 1697 B8010000 		movl	$1, %eax
 2822      00
 2823 169c D3E0     		sall	%cl, %eax
 2824 169e 48       		decl	%eax
 2825 169f 0FB792CE 		movzwl	718(%edx), %edx
 2825      020000
 2826 16a6 21D0     		andl	%edx, %eax
 2827 16a8 668983CE 		movw	%ax, 718(%ebx)
 2827      020000
 831:../../MMI/Resource/CmidiGen.c ****       *(*pptr)++ = data;
 2829              	LM345:
 2830 16af 8B5514   		movl	20(%ebp), %edx
 2831 16b2 8B02     		movl	(%edx), %eax
 2832 16b4 89C1     		movl	%eax, %ecx
 2833 16b6 0FB645FB 		movzbl	-5(%ebp), %eax
 2834 16ba 8801     		movb	%al, (%ecx)
 2835 16bc FF02     		incl	(%edx)
 832:../../MMI/Resource/CmidiGen.c ****       ihdl->output_bytes++;
 2837              	LM346:
 2838 16be 8B4508   		movl	8(%ebp), %eax
 2839 16c1 FF80D802 		incl	728(%eax)
 2839      0000
 833:../../MMI/Resource/CmidiGen.c ****    }
 834:../../MMI/Resource/CmidiGen.c **** }
 2841              	LM347:
 2842              	L185:
 2843 16c7 83C404   		addl	$4, %esp
GAS LISTING f:/K7_TOUR/CODE/plutommi/Customer/ResGenerator/gcctmp/ccCOcaaa.s 			page 59


 2844 16ca 5B       		popl	%ebx
 2845 16cb 5D       		popl	%ebp
 2846 16cc C3       		ret
 2847              	LBE11:
 2852              	Lscope12:
 2858              	_addStatistics:
 835:../../MMI/Resource/CmidiGen.c **** 
 836:../../MMI/Resource/CmidiGen.c **** static void addStatistics( CMIDI_Handle_Int *ihdl, c_int32 type )
 837:../../MMI/Resource/CmidiGen.c **** {
 2860              	LM348:
 2861 16cd 55       		pushl	%ebp
 2862 16ce 89E5     		movl	%esp, %ebp
 838:../../MMI/Resource/CmidiGen.c ****    ihdl->statistic[type]++;
 2864              	LM349:
 2865 16d0 8B4508   		movl	8(%ebp), %eax
 2866 16d3 8B550C   		movl	12(%ebp), %edx
 2867 16d6 FF8490DC 		incl	732(%eax,%edx,4)
 2867      020000
 839:../../MMI/Resource/CmidiGen.c ****    ihdl->total_events++;
 2869              	LM350:
 2870 16dd 8B4508   		movl	8(%ebp), %eax
 2871 16e0 FF80D402 		incl	724(%eax)
 2871      0000
 840:../../MMI/Resource/CmidiGen.c **** }
 2873              	LM351:
 2874 16e6 5D       		popl	%ebp
 2875 16e7 C3       		ret
 2876              	Lscope13:
 2883              	_checkChannel:
 841:../../MMI/Resource/CmidiGen.c **** 
 842:../../MMI/Resource/CmidiGen.c **** static void checkChannel( CMIDI_Handle_Int *ihdl, MidiEvent *event, c_uint8 **pptr )
 843:../../MMI/Resource/CmidiGen.c **** {
 2885              	LM352:
 2886 16e8 55       		pushl	%ebp
 2887 16e9 89E5     		movl	%esp, %ebp
 2888 16eb 83EC18   		subl	$24, %esp
 844:../../MMI/Resource/CmidiGen.c ****    if( event->ch != ihdl->old_channel ) {
 2890              	LM353:
 2891 16ee 8B450C   		movl	12(%ebp), %eax
 2892 16f1 8B5508   		movl	8(%ebp), %edx
 2893 16f4 0FB64001 		movzbl	1(%eax), %eax
 2894 16f8 3A82D202 		cmpb	722(%edx), %al
 2894      0000
 2895 16fe 746D     		je	L189
 845:../../MMI/Resource/CmidiGen.c ****       ihdl->old_channel = event->ch;
 2897              	LM354:
 2898 1700 8B5508   		movl	8(%ebp), %edx
 2899 1703 8B450C   		movl	12(%ebp), %eax
 2900 1706 0FB64001 		movzbl	1(%eax), %eax
 2901 170a 8882D202 		movb	%al, 722(%edx)
 2901      0000
 846:../../MMI/Resource/CmidiGen.c ****       addStatistics( ihdl, 2 );
 2903              	LM355:
 2904 1710 C7442404 		movl	$2, 4(%esp)
 2904      02000000 
 2905 1718 8B4508   		movl	8(%ebp), %eax
 2906 171b 890424   		movl	%eax, (%esp)
GAS LISTING f:/K7_TOUR/CODE/plutommi/Customer/ResGenerator/gcctmp/ccCOcaaa.s 			page 60


 2907 171e E8AAFFFF 		call	_addStatistics
 2907      FF
 847:../../MMI/Resource/CmidiGen.c ****       putBits( ihdl, (c_uint8)0x04, 3, pptr );
 2909              	LM356:
 2910 1723 8B4510   		movl	16(%ebp), %eax
 2911 1726 8944240C 		movl	%eax, 12(%esp)
 2912 172a C7442408 		movl	$3, 8(%esp)
 2912      03000000 
 2913 1732 C7442404 		movl	$4, 4(%esp)
 2913      04000000 
 2914 173a 8B4508   		movl	8(%ebp), %eax
 2915 173d 890424   		movl	%eax, (%esp)
 2916 1740 E897FEFF 		call	_putBits
 2916      FF
 848:../../MMI/Resource/CmidiGen.c ****       putBits( ihdl, ihdl->old_channel, 4, pptr );
 2918              	LM357:
 2919 1745 8B4510   		movl	16(%ebp), %eax
 2920 1748 8944240C 		movl	%eax, 12(%esp)
 2921 174c C7442408 		movl	$4, 8(%esp)
 2921      04000000 
 2922 1754 8B4508   		movl	8(%ebp), %eax
 2923 1757 0FB680D2 		movzbl	722(%eax), %eax
 2923      020000
 2924 175e 89442404 		movl	%eax, 4(%esp)
 2925 1762 8B4508   		movl	8(%ebp), %eax
 2926 1765 890424   		movl	%eax, (%esp)
 2927 1768 E86FFEFF 		call	_putBits
 2927      FF
 849:../../MMI/Resource/CmidiGen.c ****    }
 850:../../MMI/Resource/CmidiGen.c **** }
 2929              	LM358:
 2930              	L189:
 2931 176d C9       		leave
 2932 176e C3       		ret
 2933              	Lscope14:
 2940              	_checkOctave:
 851:../../MMI/Resource/CmidiGen.c **** 
 852:../../MMI/Resource/CmidiGen.c **** static void checkOctave( CMIDI_Handle_Int *ihdl, MidiEvent *event, c_uint8 **pptr )
 853:../../MMI/Resource/CmidiGen.c **** {
 2942              	LM359:
 2943 176f 55       		pushl	%ebp
 2944 1770 89E5     		movl	%esp, %ebp
 2945 1772 83EC18   		subl	$24, %esp
 854:../../MMI/Resource/CmidiGen.c ****    if( (event->c1>>4) != ihdl->old_octave ) {
 2947              	LM360:
 2948 1775 8B450C   		movl	12(%ebp), %eax
 2949 1778 0FB64002 		movzbl	2(%eax), %eax
 2950 177c 88C2     		movb	%al, %dl
 2951 177e C0EA04   		shrb	$4, %dl
 2952 1781 8B4508   		movl	8(%ebp), %eax
 2953 1784 3A90D302 		cmpb	723(%eax), %dl
 2953      0000
 2954 178a 7470     		je	L191
 855:../../MMI/Resource/CmidiGen.c ****       ihdl->old_octave = (event->c1>>4);
 2956              	LM361:
 2957 178c 8B5508   		movl	8(%ebp), %edx
 2958 178f 8B450C   		movl	12(%ebp), %eax
GAS LISTING f:/K7_TOUR/CODE/plutommi/Customer/ResGenerator/gcctmp/ccCOcaaa.s 			page 61


 2959 1792 0FB64002 		movzbl	2(%eax), %eax
 2960 1796 C0E804   		shrb	$4, %al
 2961 1799 8882D302 		movb	%al, 723(%edx)
 2961      0000
 856:../../MMI/Resource/CmidiGen.c ****       addStatistics( ihdl, 3 );
 2963              	LM362:
 2964 179f C7442404 		movl	$3, 4(%esp)
 2964      03000000 
 2965 17a7 8B4508   		movl	8(%ebp), %eax
 2966 17aa 890424   		movl	%eax, (%esp)
 2967 17ad E81BFFFF 		call	_addStatistics
 2967      FF
 857:../../MMI/Resource/CmidiGen.c ****       putBits( ihdl, (c_uint8)0x05, 3, pptr );
 2969              	LM363:
 2970 17b2 8B4510   		movl	16(%ebp), %eax
 2971 17b5 8944240C 		movl	%eax, 12(%esp)
 2972 17b9 C7442408 		movl	$3, 8(%esp)
 2972      03000000 
 2973 17c1 C7442404 		movl	$5, 4(%esp)
 2973      05000000 
 2974 17c9 8B4508   		movl	8(%ebp), %eax
 2975 17cc 890424   		movl	%eax, (%esp)
 2976 17cf E808FEFF 		call	_putBits
 2976      FF
 858:../../MMI/Resource/CmidiGen.c ****       putBits( ihdl, ihdl->old_octave, 3, pptr );
 2978              	LM364:
 2979 17d4 8B4510   		movl	16(%ebp), %eax
 2980 17d7 8944240C 		movl	%eax, 12(%esp)
 2981 17db C7442408 		movl	$3, 8(%esp)
 2981      03000000 
 2982 17e3 8B4508   		movl	8(%ebp), %eax
 2983 17e6 0FB680D3 		movzbl	723(%eax), %eax
 2983      020000
 2984 17ed 89442404 		movl	%eax, 4(%esp)
 2985 17f1 8B4508   		movl	8(%ebp), %eax
 2986 17f4 890424   		movl	%eax, (%esp)
 2987 17f7 E8E0FDFF 		call	_putBits
 2987      FF
 859:../../MMI/Resource/CmidiGen.c ****    }
 860:../../MMI/Resource/CmidiGen.c **** }
 2989              	LM365:
 2990              	L191:
 2991 17fc C9       		leave
 2992 17fd C3       		ret
 2993              	Lscope15:
 2999              	_MidiEvent_Output:
 861:../../MMI/Resource/CmidiGen.c **** 
 862:../../MMI/Resource/CmidiGen.c **** static void MidiEvent_Output( CMIDI_Handle_Int *ihdl, c_uint8 *ptr )
 863:../../MMI/Resource/CmidiGen.c **** {
 3001              	LM366:
 3002 17fe 55       		pushl	%ebp
 3003 17ff 89E5     		movl	%esp, %ebp
 3004 1801 83EC38   		subl	$56, %esp
 864:../../MMI/Resource/CmidiGen.c ****    MidiEvent event;
 865:../../MMI/Resource/CmidiGen.c ****    c_int32 total_time = 0;
 3006              	LM367:
 3007              	LBB12:
GAS LISTING f:/K7_TOUR/CODE/plutommi/Customer/ResGenerator/gcctmp/ccCOcaaa.s 			page 62


 3008 1804 C745E400 		movl	$0, -28(%ebp)
 3008      000000
 866:../../MMI/Resource/CmidiGen.c ****    c_int32 I;
 867:../../MMI/Resource/CmidiGen.c ****    ihdl->bits = 0;
 3010              	LM368:
 3011 180b 8B4508   		movl	8(%ebp), %eax
 3012 180e 66C780D0 		movw	$0, 720(%eax)
 3012      02000000 
 3012      00
 868:../../MMI/Resource/CmidiGen.c ****    ihdl->cache = 0;
 3014              	LM369:
 3015 1817 8B4508   		movl	8(%ebp), %eax
 3016 181a 66C780CE 		movw	$0, 718(%eax)
 3016      02000000 
 3016      00
 869:../../MMI/Resource/CmidiGen.c ****    ihdl->old_channel = 0;
 3018              	LM370:
 3019 1823 8B4508   		movl	8(%ebp), %eax
 3020 1826 C680D202 		movb	$0, 722(%eax)
 3020      000000
 870:../../MMI/Resource/CmidiGen.c ****    ihdl->old_octave = 0;
 3022              	LM371:
 3023 182d 8B4508   		movl	8(%ebp), %eax
 3024 1830 C680D302 		movb	$0, 723(%eax)
 3024      000000
 871:../../MMI/Resource/CmidiGen.c ****    ihdl->total_events = 0;
 3026              	LM372:
 3027 1837 8B4508   		movl	8(%ebp), %eax
 3028 183a C780D402 		movl	$0, 724(%eax)
 3028      00000000 
 3028      0000
 872:../../MMI/Resource/CmidiGen.c ****    ihdl->output_bytes = 0;
 3030              	LM373:
 3031 1844 8B4508   		movl	8(%ebp), %eax
 3032 1847 C780D802 		movl	$0, 728(%eax)
 3032      00000000 
 3032      0000
 873:../../MMI/Resource/CmidiGen.c **** 
 874:../../MMI/Resource/CmidiGen.c ****    for( I = 0; I < MAX_MIDI_EVENTS; I++ )
 3034              	LM374:
 3035 1851 C745E000 		movl	$0, -32(%ebp)
 3035      000000
 3036              	L194:
 3037 1858 837DE012 		cmpl	$18, -32(%ebp)
 3038 185c 7E02     		jle	L197
 3039 185e EB18     		jmp	L195
 3040              	L197:
 875:../../MMI/Resource/CmidiGen.c ****       ihdl->statistic[I] = 0;
 3042              	LM375:
 3043 1860 8B5508   		movl	8(%ebp), %edx
 3044 1863 8B45E0   		movl	-32(%ebp), %eax
 3045 1866 C78482DC 		movl	$0, 732(%edx,%eax,4)
 3045      02000000 
 3045      000000
 3047              	LM376:
 3048 1871 8D45E0   		leal	-32(%ebp), %eax
 3049 1874 FF00     		incl	(%eax)
GAS LISTING f:/K7_TOUR/CODE/plutommi/Customer/ResGenerator/gcctmp/ccCOcaaa.s 			page 63


 3050 1876 EBE0     		jmp	L194
 3051              	L195:
 3052 1878 90       		nop
 876:../../MMI/Resource/CmidiGen.c **** 
 877:../../MMI/Resource/CmidiGen.c ****    while( MidiEvent_Get(ihdl,  &event ) != NULL ) {
 3054              	LM377:
 3055              	L198:
 3056 1879 8D45E8   		leal	-24(%ebp), %eax
 3057 187c 89442404 		movl	%eax, 4(%esp)
 3058 1880 8B4508   		movl	8(%ebp), %eax
 3059 1883 890424   		movl	%eax, (%esp)
 3060 1886 E808EBFF 		call	_MidiEvent_Get
 3060      FF
 3061 188b 85C0     		testl	%eax, %eax
 3062 188d 7505     		jne	L200
 3063 188f E98B0800 		jmp	L199
 3063      00
 3064              	L200:
 878:../../MMI/Resource/CmidiGen.c ****       switch( event.type ) {
 3066              	LM378:
 3067 1894 0FB645E8 		movzbl	-24(%ebp), %eax
 3068 1898 8945DC   		movl	%eax, -36(%ebp)
 3069 189b 837DDC12 		cmpl	$18, -36(%ebp)
 3070 189f 77D8     		ja	L198
 3071 18a1 8B55DC   		movl	-36(%ebp), %edx
 3072 18a4 8B0495B0 		movl	L220(,%edx,4), %eax
 3072      180000
 3073 18ab FFE0     		jmp	*%eax
 3074 18ad 8D7600   		.p2align 2
 3075              		.align 4
 3076              	L220:
 3077 18b0 FC180000 		.long	L202
 3078 18b4 881A0000 		.long	L206
 3079 18b8 F7190000 		.long	L205
 3080 18bc 171E0000 		.long	L213
 3081 18c0 411B0000 		.long	L207
 3082 18c4 AC1C0000 		.long	L210
 3083 18c8 311C0000 		.long	L209
 3084 18cc 2F200000 		.long	L217
 3085 18d0 BC1B0000 		.long	L208
 3086 18d4 AA200000 		.long	L218
 3087 18d8 271D0000 		.long	L211
 3088 18dc 9C1D0000 		.long	L212
 3089 18e0 D01E0000 		.long	L214
 3090 18e4 79180000 		.long	L198
 3091 18e8 79180000 		.long	L198
 3092 18ec 79180000 		.long	L198
 3093 18f0 BA1F0000 		.long	L216
 3094 18f4 79180000 		.long	L198
 3095 18f8 451F0000 		.long	L215
 3096              	L202:
 879:../../MMI/Resource/CmidiGen.c ****       case ME_DTIME:
 880:../../MMI/Resource/CmidiGen.c ****          total_time += event.dtime;
 3098              	LM379:
 3099 18fc 8B55EC   		movl	-20(%ebp), %edx
 3100 18ff 8D45E4   		leal	-28(%ebp), %eax
 3101 1902 0110     		addl	%edx, (%eax)
GAS LISTING f:/K7_TOUR/CODE/plutommi/Customer/ResGenerator/gcctmp/ccCOcaaa.s 			page 64


 881:../../MMI/Resource/CmidiGen.c ****          ASSERT( event.dtime != 0 );
 882:../../MMI/Resource/CmidiGen.c ****          if( event.dtime <= 16 ) {
 3103              	LM380:
 3104 1904 837DEC10 		cmpl	$16, -20(%ebp)
 3105 1908 7F61     		jg	L203
 883:../../MMI/Resource/CmidiGen.c ****             addStatistics(ihdl, 4 );
 3107              	LM381:
 3108 190a C7442404 		movl	$4, 4(%esp)
 3108      04000000 
 3109 1912 8B4508   		movl	8(%ebp), %eax
 3110 1915 890424   		movl	%eax, (%esp)
 3111 1918 E8B0FDFF 		call	_addStatistics
 3111      FF
 884:../../MMI/Resource/CmidiGen.c ****             putBits( ihdl, (c_uint8)0x06, 3, &ptr );
 3113              	LM382:
 3114 191d 8D450C   		leal	12(%ebp), %eax
 3115 1920 8944240C 		movl	%eax, 12(%esp)
 3116 1924 C7442408 		movl	$3, 8(%esp)
 3116      03000000 
 3117 192c C7442404 		movl	$6, 4(%esp)
 3117      06000000 
 3118 1934 8B4508   		movl	8(%ebp), %eax
 3119 1937 890424   		movl	%eax, (%esp)
 3120 193a E89DFCFF 		call	_putBits
 3120      FF
 885:../../MMI/Resource/CmidiGen.c ****             putBits( ihdl, (c_uint8)(event.dtime-1), 4, &ptr );
 3122              	LM383:
 3123 193f 8D450C   		leal	12(%ebp), %eax
 3124 1942 8944240C 		movl	%eax, 12(%esp)
 3125 1946 C7442408 		movl	$4, 8(%esp)
 3125      04000000 
 3126 194e 0FB645EC 		movzbl	-20(%ebp), %eax
 3127 1952 FEC8     		decb	%al
 3128 1954 0FB6C0   		movzbl	%al, %eax
 3129 1957 89442404 		movl	%eax, 4(%esp)
 3130 195b 8B4508   		movl	8(%ebp), %eax
 3131 195e 890424   		movl	%eax, (%esp)
 3132 1961 E876FCFF 		call	_putBits
 3132      FF
 3133 1966 E90EFFFF 		jmp	L198
 3133      FF
 3134              	L203:
 886:../../MMI/Resource/CmidiGen.c ****          }
 887:../../MMI/Resource/CmidiGen.c ****          else {
 888:../../MMI/Resource/CmidiGen.c ****             addStatistics( ihdl, 16 );
 3136              	LM384:
 3137 196b C7442404 		movl	$16, 4(%esp)
 3137      10000000 
 3138 1973 8B4508   		movl	8(%ebp), %eax
 3139 1976 890424   		movl	%eax, (%esp)
 3140 1979 E84FFDFF 		call	_addStatistics
 3140      FF
 889:../../MMI/Resource/CmidiGen.c ****             ASSERT( event.dtime <= 1024 );
 890:../../MMI/Resource/CmidiGen.c ****             putBits( ihdl, (c_uint8)0xF9, 8, &ptr );
 3142              	LM385:
 3143 197e 8D450C   		leal	12(%ebp), %eax
 3144 1981 8944240C 		movl	%eax, 12(%esp)
GAS LISTING f:/K7_TOUR/CODE/plutommi/Customer/ResGenerator/gcctmp/ccCOcaaa.s 			page 65


 3145 1985 C7442408 		movl	$8, 8(%esp)
 3145      08000000 
 3146 198d C7442404 		movl	$249, 4(%esp)
 3146      F9000000 
 3147 1995 8B4508   		movl	8(%ebp), %eax
 3148 1998 890424   		movl	%eax, (%esp)
 3149 199b E83CFCFF 		call	_putBits
 3149      FF
 891:../../MMI/Resource/CmidiGen.c ****             putBits( ihdl,  (c_uint8)((event.dtime-1)>>6), 4, &ptr );
 3151              	LM386:
 3152 19a0 8D450C   		leal	12(%ebp), %eax
 3153 19a3 8944240C 		movl	%eax, 12(%esp)
 3154 19a7 C7442408 		movl	$4, 8(%esp)
 3154      04000000 
 3155 19af 8B45EC   		movl	-20(%ebp), %eax
 3156 19b2 48       		decl	%eax
 3157 19b3 C1F806   		sarl	$6, %eax
 3158 19b6 0FB6C0   		movzbl	%al, %eax
 3159 19b9 89442404 		movl	%eax, 4(%esp)
 3160 19bd 8B4508   		movl	8(%ebp), %eax
 3161 19c0 890424   		movl	%eax, (%esp)
 3162 19c3 E814FCFF 		call	_putBits
 3162      FF
 892:../../MMI/Resource/CmidiGen.c ****             putBits( ihdl, (c_uint8)((event.dtime-1)&0x3F), 6, &ptr );
 3164              	LM387:
 3165 19c8 8D450C   		leal	12(%ebp), %eax
 3166 19cb 8944240C 		movl	%eax, 12(%esp)
 3167 19cf C7442408 		movl	$6, 8(%esp)
 3167      06000000 
 3168 19d7 0FB645EC 		movzbl	-20(%ebp), %eax
 3169 19db FEC8     		decb	%al
 3170 19dd 0FB6C0   		movzbl	%al, %eax
 3171 19e0 83E03F   		andl	$63, %eax
 3172 19e3 89442404 		movl	%eax, 4(%esp)
 3173 19e7 8B4508   		movl	8(%ebp), %eax
 3174 19ea 890424   		movl	%eax, (%esp)
 3175 19ed E8EAFBFF 		call	_putBits
 3175      FF
 893:../../MMI/Resource/CmidiGen.c ****          }
 894:../../MMI/Resource/CmidiGen.c **** #ifdef LOCALSIM
 895:../../MMI/Resource/CmidiGen.c ****          TRACE1("time %d\n", total_time );
 896:../../MMI/Resource/CmidiGen.c **** #endif
 897:../../MMI/Resource/CmidiGen.c ****          break;
 3177              	LM388:
 3178 19f2 E982FEFF 		jmp	L198
 3178      FF
 3179              	L205:
 898:../../MMI/Resource/CmidiGen.c ****       case ME_NOTEOFF:
 899:../../MMI/Resource/CmidiGen.c ****          checkChannel(ihdl,  &event, &ptr );
 3181              	LM389:
 3182 19f7 8D450C   		leal	12(%ebp), %eax
 3183 19fa 89442408 		movl	%eax, 8(%esp)
 3184 19fe 8D45E8   		leal	-24(%ebp), %eax
 3185 1a01 89442404 		movl	%eax, 4(%esp)
 3186 1a05 8B4508   		movl	8(%ebp), %eax
 3187 1a08 890424   		movl	%eax, (%esp)
 3188 1a0b E8D8FCFF 		call	_checkChannel
GAS LISTING f:/K7_TOUR/CODE/plutommi/Customer/ResGenerator/gcctmp/ccCOcaaa.s 			page 66


 3188      FF
 900:../../MMI/Resource/CmidiGen.c ****          checkOctave(ihdl,  &event, &ptr );
 3190              	LM390:
 3191 1a10 8D450C   		leal	12(%ebp), %eax
 3192 1a13 89442408 		movl	%eax, 8(%esp)
 3193 1a17 8D45E8   		leal	-24(%ebp), %eax
 3194 1a1a 89442404 		movl	%eax, 4(%esp)
 3195 1a1e 8B4508   		movl	8(%ebp), %eax
 3196 1a21 890424   		movl	%eax, (%esp)
 3197 1a24 E846FDFF 		call	_checkOctave
 3197      FF
 901:../../MMI/Resource/CmidiGen.c ****          addStatistics(ihdl,  1 );
 3199              	LM391:
 3200 1a29 C7442404 		movl	$1, 4(%esp)
 3200      01000000 
 3201 1a31 8B4508   		movl	8(%ebp), %eax
 3202 1a34 890424   		movl	%eax, (%esp)
 3203 1a37 E891FCFF 		call	_addStatistics
 3203      FF
 902:../../MMI/Resource/CmidiGen.c ****          putBits( ihdl, (c_uint8)0x01, 2, &ptr );
 3205              	LM392:
 3206 1a3c 8D450C   		leal	12(%ebp), %eax
 3207 1a3f 8944240C 		movl	%eax, 12(%esp)
 3208 1a43 C7442408 		movl	$2, 8(%esp)
 3208      02000000 
 3209 1a4b C7442404 		movl	$1, 4(%esp)
 3209      01000000 
 3210 1a53 8B4508   		movl	8(%ebp), %eax
 3211 1a56 890424   		movl	%eax, (%esp)
 3212 1a59 E87EFBFF 		call	_putBits
 3212      FF
 903:../../MMI/Resource/CmidiGen.c ****          putBits(ihdl,  (c_uint8)(event.c1&0x0F), 4, &ptr );
 3214              	LM393:
 3215 1a5e 8D450C   		leal	12(%ebp), %eax
 3216 1a61 8944240C 		movl	%eax, 12(%esp)
 3217 1a65 C7442408 		movl	$4, 8(%esp)
 3217      04000000 
 3218 1a6d 0FB645EA 		movzbl	-22(%ebp), %eax
 3219 1a71 83E00F   		andl	$15, %eax
 3220 1a74 89442404 		movl	%eax, 4(%esp)
 3221 1a78 8B4508   		movl	8(%ebp), %eax
 3222 1a7b 890424   		movl	%eax, (%esp)
 3223 1a7e E859FBFF 		call	_putBits
 3223      FF
 904:../../MMI/Resource/CmidiGen.c **** #ifdef LOCALSIM
 905:../../MMI/Resource/CmidiGen.c ****          TRACE3("time %d: Note off, ch=%d, pitch=%d\n", total_time, event.ch+1, event.c1 );
 906:../../MMI/Resource/CmidiGen.c **** #endif
 907:../../MMI/Resource/CmidiGen.c ****          break;
 3225              	LM394:
 3226 1a83 E9F1FDFF 		jmp	L198
 3226      FF
 3227              	L206:
 908:../../MMI/Resource/CmidiGen.c ****       case ME_NOTEON:
 909:../../MMI/Resource/CmidiGen.c ****          checkChannel(ihdl,  &event, &ptr );
 3229              	LM395:
 3230 1a88 8D450C   		leal	12(%ebp), %eax
 3231 1a8b 89442408 		movl	%eax, 8(%esp)
GAS LISTING f:/K7_TOUR/CODE/plutommi/Customer/ResGenerator/gcctmp/ccCOcaaa.s 			page 67


 3232 1a8f 8D45E8   		leal	-24(%ebp), %eax
 3233 1a92 89442404 		movl	%eax, 4(%esp)
 3234 1a96 8B4508   		movl	8(%ebp), %eax
 3235 1a99 890424   		movl	%eax, (%esp)
 3236 1a9c E847FCFF 		call	_checkChannel
 3236      FF
 910:../../MMI/Resource/CmidiGen.c ****          checkOctave( ihdl, &event, &ptr );
 3238              	LM396:
 3239 1aa1 8D450C   		leal	12(%ebp), %eax
 3240 1aa4 89442408 		movl	%eax, 8(%esp)
 3241 1aa8 8D45E8   		leal	-24(%ebp), %eax
 3242 1aab 89442404 		movl	%eax, 4(%esp)
 3243 1aaf 8B4508   		movl	8(%ebp), %eax
 3244 1ab2 890424   		movl	%eax, (%esp)
 3245 1ab5 E8B5FCFF 		call	_checkOctave
 3245      FF
 911:../../MMI/Resource/CmidiGen.c ****          addStatistics( ihdl, 0 );
 3247              	LM397:
 3248 1aba C7442404 		movl	$0, 4(%esp)
 3248      00000000 
 3249 1ac2 8B4508   		movl	8(%ebp), %eax
 3250 1ac5 890424   		movl	%eax, (%esp)
 3251 1ac8 E800FCFF 		call	_addStatistics
 3251      FF
 912:../../MMI/Resource/CmidiGen.c ****          putBits( ihdl, (c_uint8)0x00, 2, &ptr );
 3253              	LM398:
 3254 1acd 8D450C   		leal	12(%ebp), %eax
 3255 1ad0 8944240C 		movl	%eax, 12(%esp)
 3256 1ad4 C7442408 		movl	$2, 8(%esp)
 3256      02000000 
 3257 1adc C7442404 		movl	$0, 4(%esp)
 3257      00000000 
 3258 1ae4 8B4508   		movl	8(%ebp), %eax
 3259 1ae7 890424   		movl	%eax, (%esp)
 3260 1aea E8EDFAFF 		call	_putBits
 3260      FF
 913:../../MMI/Resource/CmidiGen.c ****          putBits(ihdl,  (c_uint8)(event.c1&0x0F), 4, &ptr );
 3262              	LM399:
 3263 1aef 8D450C   		leal	12(%ebp), %eax
 3264 1af2 8944240C 		movl	%eax, 12(%esp)
 3265 1af6 C7442408 		movl	$4, 8(%esp)
 3265      04000000 
 3266 1afe 0FB645EA 		movzbl	-22(%ebp), %eax
 3267 1b02 83E00F   		andl	$15, %eax
 3268 1b05 89442404 		movl	%eax, 4(%esp)
 3269 1b09 8B4508   		movl	8(%ebp), %eax
 3270 1b0c 890424   		movl	%eax, (%esp)
 3271 1b0f E8C8FAFF 		call	_putBits
 3271      FF
 914:../../MMI/Resource/CmidiGen.c ****          putBits(ihdl,  (c_uint8)(event.c2>>2), 5, &ptr );
 3273              	LM400:
 3274 1b14 8D450C   		leal	12(%ebp), %eax
 3275 1b17 8944240C 		movl	%eax, 12(%esp)
 3276 1b1b C7442408 		movl	$5, 8(%esp)
 3276      05000000 
 3277 1b23 0FB645EB 		movzbl	-21(%ebp), %eax
 3278 1b27 C0E802   		shrb	$2, %al
GAS LISTING f:/K7_TOUR/CODE/plutommi/Customer/ResGenerator/gcctmp/ccCOcaaa.s 			page 68


 3279 1b2a 0FB6C0   		movzbl	%al, %eax
 3280 1b2d 89442404 		movl	%eax, 4(%esp)
 3281 1b31 8B4508   		movl	8(%ebp), %eax
 3282 1b34 890424   		movl	%eax, (%esp)
 3283 1b37 E8A0FAFF 		call	_putBits
 3283      FF
 915:../../MMI/Resource/CmidiGen.c **** #ifdef LOCALSIM
 916:../../MMI/Resource/CmidiGen.c ****          TRACE4("time %d: Note on, ch=%d, pitch=%d, vel=%d\n", total_time, event.ch+1, event.c1, ev
 917:../../MMI/Resource/CmidiGen.c **** #endif         
 918:../../MMI/Resource/CmidiGen.c **** 		 break;
 3285              	LM401:
 3286 1b3c E938FDFF 		jmp	L198
 3286      FF
 3287              	L207:
 919:../../MMI/Resource/CmidiGen.c ****       case ME_MAINVOLUME:
 920:../../MMI/Resource/CmidiGen.c ****          checkChannel(ihdl,  &event, &ptr );
 3289              	LM402:
 3290 1b41 8D450C   		leal	12(%ebp), %eax
 3291 1b44 89442408 		movl	%eax, 8(%esp)
 3292 1b48 8D45E8   		leal	-24(%ebp), %eax
 3293 1b4b 89442404 		movl	%eax, 4(%esp)
 3294 1b4f 8B4508   		movl	8(%ebp), %eax
 3295 1b52 890424   		movl	%eax, (%esp)
 3296 1b55 E88EFBFF 		call	_checkChannel
 3296      FF
 921:../../MMI/Resource/CmidiGen.c ****          addStatistics(ihdl,  5 );
 3298              	LM403:
 3299 1b5a C7442404 		movl	$5, 4(%esp)
 3299      05000000 
 3300 1b62 8B4508   		movl	8(%ebp), %eax
 3301 1b65 890424   		movl	%eax, (%esp)
 3302 1b68 E860FBFF 		call	_addStatistics
 3302      FF
 922:../../MMI/Resource/CmidiGen.c ****          putBits(ihdl,  (c_uint8)0x1C, 5, &ptr );
 3304              	LM404:
 3305 1b6d 8D450C   		leal	12(%ebp), %eax
 3306 1b70 8944240C 		movl	%eax, 12(%esp)
 3307 1b74 C7442408 		movl	$5, 8(%esp)
 3307      05000000 
 3308 1b7c C7442404 		movl	$28, 4(%esp)
 3308      1C000000 
 3309 1b84 8B4508   		movl	8(%ebp), %eax
 3310 1b87 890424   		movl	%eax, (%esp)
 3311 1b8a E84DFAFF 		call	_putBits
 3311      FF
 923:../../MMI/Resource/CmidiGen.c ****          putBits(ihdl,  (c_uint8)(event.c1>>2), 5, &ptr );
 3313              	LM405:
 3314 1b8f 8D450C   		leal	12(%ebp), %eax
 3315 1b92 8944240C 		movl	%eax, 12(%esp)
 3316 1b96 C7442408 		movl	$5, 8(%esp)
 3316      05000000 
 3317 1b9e 0FB645EA 		movzbl	-22(%ebp), %eax
 3318 1ba2 C0E802   		shrb	$2, %al
 3319 1ba5 0FB6C0   		movzbl	%al, %eax
 3320 1ba8 89442404 		movl	%eax, 4(%esp)
 3321 1bac 8B4508   		movl	8(%ebp), %eax
 3322 1baf 890424   		movl	%eax, (%esp)
GAS LISTING f:/K7_TOUR/CODE/plutommi/Customer/ResGenerator/gcctmp/ccCOcaaa.s 			page 69


 3323 1bb2 E825FAFF 		call	_putBits
 3323      FF
 924:../../MMI/Resource/CmidiGen.c **** #ifdef LOCALSIM
 925:../../MMI/Resource/CmidiGen.c ****          TRACE3("time %d: Volume, ch=%d, val=%d\n", total_time, event.ch+1, event.c1 );
 926:../../MMI/Resource/CmidiGen.c **** #endif
 927:../../MMI/Resource/CmidiGen.c ****          break;
 3325              	LM406:
 3326 1bb7 E9BDFCFF 		jmp	L198
 3326      FF
 3327              	L208:
 928:../../MMI/Resource/CmidiGen.c ****       case ME_PITCH_WHEEL:
 929:../../MMI/Resource/CmidiGen.c ****          checkChannel( ihdl, &event, &ptr );
 3329              	LM407:
 3330 1bbc 8D450C   		leal	12(%ebp), %eax
 3331 1bbf 89442408 		movl	%eax, 8(%esp)
 3332 1bc3 8D45E8   		leal	-24(%ebp), %eax
 3333 1bc6 89442404 		movl	%eax, 4(%esp)
 3334 1bca 8B4508   		movl	8(%ebp), %eax
 3335 1bcd 890424   		movl	%eax, (%esp)
 3336 1bd0 E813FBFF 		call	_checkChannel
 3336      FF
 930:../../MMI/Resource/CmidiGen.c ****          addStatistics(ihdl,  6 );
 3338              	LM408:
 3339 1bd5 C7442404 		movl	$6, 4(%esp)
 3339      06000000 
 3340 1bdd 8B4508   		movl	8(%ebp), %eax
 3341 1be0 890424   		movl	%eax, (%esp)
 3342 1be3 E8E5FAFF 		call	_addStatistics
 3342      FF
 931:../../MMI/Resource/CmidiGen.c ****          putBits( ihdl, (c_uint8)0x1D, 5, &ptr );
 3344              	LM409:
 3345 1be8 8D450C   		leal	12(%ebp), %eax
 3346 1beb 8944240C 		movl	%eax, 12(%esp)
 3347 1bef C7442408 		movl	$5, 8(%esp)
 3347      05000000 
 3348 1bf7 C7442404 		movl	$29, 4(%esp)
 3348      1D000000 
 3349 1bff 8B4508   		movl	8(%ebp), %eax
 3350 1c02 890424   		movl	%eax, (%esp)
 3351 1c05 E8D2F9FF 		call	_putBits
 3351      FF
 932:../../MMI/Resource/CmidiGen.c ****          putBits( ihdl, (c_uint8)(event.c2), 7, &ptr );
 3353              	LM410:
 3354 1c0a 8D450C   		leal	12(%ebp), %eax
 3355 1c0d 8944240C 		movl	%eax, 12(%esp)
 3356 1c11 C7442408 		movl	$7, 8(%esp)
 3356      07000000 
 3357 1c19 0FB645EB 		movzbl	-21(%ebp), %eax
 3358 1c1d 89442404 		movl	%eax, 4(%esp)
 3359 1c21 8B4508   		movl	8(%ebp), %eax
 3360 1c24 890424   		movl	%eax, (%esp)
 3361 1c27 E8B0F9FF 		call	_putBits
 3361      FF
 933:../../MMI/Resource/CmidiGen.c **** #ifdef LOCALSIM
 934:../../MMI/Resource/CmidiGen.c ****          TRACE4("time %d: Pitch wheel, ch=%d, lsb=%d, msb=%d\n", total_time, event.ch+1, event.c1, 
 935:../../MMI/Resource/CmidiGen.c **** #endif
 936:../../MMI/Resource/CmidiGen.c ****          break;
GAS LISTING f:/K7_TOUR/CODE/plutommi/Customer/ResGenerator/gcctmp/ccCOcaaa.s 			page 70


 3363              	LM411:
 3364 1c2c E948FCFF 		jmp	L198
 3364      FF
 3365              	L209:
 937:../../MMI/Resource/CmidiGen.c ****       case ME_SUSTAIN:
 938:../../MMI/Resource/CmidiGen.c ****          checkChannel(ihdl,  &event, &ptr );
 3367              	LM412:
 3368 1c31 8D450C   		leal	12(%ebp), %eax
 3369 1c34 89442408 		movl	%eax, 8(%esp)
 3370 1c38 8D45E8   		leal	-24(%ebp), %eax
 3371 1c3b 89442404 		movl	%eax, 4(%esp)
 3372 1c3f 8B4508   		movl	8(%ebp), %eax
 3373 1c42 890424   		movl	%eax, (%esp)
 3374 1c45 E89EFAFF 		call	_checkChannel
 3374      FF
 939:../../MMI/Resource/CmidiGen.c ****          addStatistics(ihdl,  7 );
 3376              	LM413:
 3377 1c4a C7442404 		movl	$7, 4(%esp)
 3377      07000000 
 3378 1c52 8B4508   		movl	8(%ebp), %eax
 3379 1c55 890424   		movl	%eax, (%esp)
 3380 1c58 E870FAFF 		call	_addStatistics
 3380      FF
 940:../../MMI/Resource/CmidiGen.c ****          putBits(ihdl,  (c_uint8)0xF0, 8, &ptr );
 3382              	LM414:
 3383 1c5d 8D450C   		leal	12(%ebp), %eax
 3384 1c60 8944240C 		movl	%eax, 12(%esp)
 3385 1c64 C7442408 		movl	$8, 8(%esp)
 3385      08000000 
 3386 1c6c C7442404 		movl	$240, 4(%esp)
 3386      F0000000 
 3387 1c74 8B4508   		movl	8(%ebp), %eax
 3388 1c77 890424   		movl	%eax, (%esp)
 3389 1c7a E85DF9FF 		call	_putBits
 3389      FF
 941:../../MMI/Resource/CmidiGen.c ****          putBits(ihdl,  (c_uint8)(event.c1>>2), 5, &ptr );
 3391              	LM415:
 3392 1c7f 8D450C   		leal	12(%ebp), %eax
 3393 1c82 8944240C 		movl	%eax, 12(%esp)
 3394 1c86 C7442408 		movl	$5, 8(%esp)
 3394      05000000 
 3395 1c8e 0FB645EA 		movzbl	-22(%ebp), %eax
 3396 1c92 C0E802   		shrb	$2, %al
 3397 1c95 0FB6C0   		movzbl	%al, %eax
 3398 1c98 89442404 		movl	%eax, 4(%esp)
 3399 1c9c 8B4508   		movl	8(%ebp), %eax
 3400 1c9f 890424   		movl	%eax, (%esp)
 3401 1ca2 E835F9FF 		call	_putBits
 3401      FF
 942:../../MMI/Resource/CmidiGen.c **** #ifdef LOCALSIM
 943:../../MMI/Resource/CmidiGen.c ****          TRACE3("time %d: Sustain, ch=%d, val=%d\n", total_time, event.ch+1, event.c1 );
 944:../../MMI/Resource/CmidiGen.c **** #endif
 945:../../MMI/Resource/CmidiGen.c ****          break;
 3403              	LM416:
 3404 1ca7 E9CDFBFF 		jmp	L198
 3404      FF
 3405              	L210:
GAS LISTING f:/K7_TOUR/CODE/plutommi/Customer/ResGenerator/gcctmp/ccCOcaaa.s 			page 71


 946:../../MMI/Resource/CmidiGen.c ****       case ME_PAN:
 947:../../MMI/Resource/CmidiGen.c ****          checkChannel(ihdl,  &event, &ptr );
 3407              	LM417:
 3408 1cac 8D450C   		leal	12(%ebp), %eax
 3409 1caf 89442408 		movl	%eax, 8(%esp)
 3410 1cb3 8D45E8   		leal	-24(%ebp), %eax
 3411 1cb6 89442404 		movl	%eax, 4(%esp)
 3412 1cba 8B4508   		movl	8(%ebp), %eax
 3413 1cbd 890424   		movl	%eax, (%esp)
 3414 1cc0 E823FAFF 		call	_checkChannel
 3414      FF
 948:../../MMI/Resource/CmidiGen.c ****          addStatistics( ihdl, 8 );
 3416              	LM418:
 3417 1cc5 C7442404 		movl	$8, 4(%esp)
 3417      08000000 
 3418 1ccd 8B4508   		movl	8(%ebp), %eax
 3419 1cd0 890424   		movl	%eax, (%esp)
 3420 1cd3 E8F5F9FF 		call	_addStatistics
 3420      FF
 949:../../MMI/Resource/CmidiGen.c ****          putBits( ihdl, (c_uint8)0xF1, 8, &ptr );
 3422              	LM419:
 3423 1cd8 8D450C   		leal	12(%ebp), %eax
 3424 1cdb 8944240C 		movl	%eax, 12(%esp)
 3425 1cdf C7442408 		movl	$8, 8(%esp)
 3425      08000000 
 3426 1ce7 C7442404 		movl	$241, 4(%esp)
 3426      F1000000 
 3427 1cef 8B4508   		movl	8(%ebp), %eax
 3428 1cf2 890424   		movl	%eax, (%esp)
 3429 1cf5 E8E2F8FF 		call	_putBits
 3429      FF
 950:../../MMI/Resource/CmidiGen.c ****          putBits( ihdl, (c_uint8)(event.c1>>2), 5, &ptr );
 3431              	LM420:
 3432 1cfa 8D450C   		leal	12(%ebp), %eax
 3433 1cfd 8944240C 		movl	%eax, 12(%esp)
 3434 1d01 C7442408 		movl	$5, 8(%esp)
 3434      05000000 
 3435 1d09 0FB645EA 		movzbl	-22(%ebp), %eax
 3436 1d0d C0E802   		shrb	$2, %al
 3437 1d10 0FB6C0   		movzbl	%al, %eax
 3438 1d13 89442404 		movl	%eax, 4(%esp)
 3439 1d17 8B4508   		movl	8(%ebp), %eax
 3440 1d1a 890424   		movl	%eax, (%esp)
 3441 1d1d E8BAF8FF 		call	_putBits
 3441      FF
 951:../../MMI/Resource/CmidiGen.c **** #ifdef LOCALSIM
 952:../../MMI/Resource/CmidiGen.c ****          TRACE3("time %d: Pan, ch=%d, val=%d\n", total_time, event.ch+1, event.c1 );
 953:../../MMI/Resource/CmidiGen.c **** #endif
 954:../../MMI/Resource/CmidiGen.c ****          break;
 3443              	LM421:
 3444 1d22 E952FBFF 		jmp	L198
 3444      FF
 3445              	L211:
 955:../../MMI/Resource/CmidiGen.c ****       case ME_PROGRAM:
 956:../../MMI/Resource/CmidiGen.c ****          checkChannel(ihdl,  &event, &ptr );
 3447              	LM422:
 3448 1d27 8D450C   		leal	12(%ebp), %eax
GAS LISTING f:/K7_TOUR/CODE/plutommi/Customer/ResGenerator/gcctmp/ccCOcaaa.s 			page 72


 3449 1d2a 89442408 		movl	%eax, 8(%esp)
 3450 1d2e 8D45E8   		leal	-24(%ebp), %eax
 3451 1d31 89442404 		movl	%eax, 4(%esp)
 3452 1d35 8B4508   		movl	8(%ebp), %eax
 3453 1d38 890424   		movl	%eax, (%esp)
 3454 1d3b E8A8F9FF 		call	_checkChannel
 3454      FF
 957:../../MMI/Resource/CmidiGen.c ****          addStatistics( ihdl, 9 );
 3456              	LM423:
 3457 1d40 C7442404 		movl	$9, 4(%esp)
 3457      09000000 
 3458 1d48 8B4508   		movl	8(%ebp), %eax
 3459 1d4b 890424   		movl	%eax, (%esp)
 3460 1d4e E87AF9FF 		call	_addStatistics
 3460      FF
 958:../../MMI/Resource/CmidiGen.c ****          putBits( ihdl, (c_uint8)0xF2, 8, &ptr );
 3462              	LM424:
 3463 1d53 8D450C   		leal	12(%ebp), %eax
 3464 1d56 8944240C 		movl	%eax, 12(%esp)
 3465 1d5a C7442408 		movl	$8, 8(%esp)
 3465      08000000 
 3466 1d62 C7442404 		movl	$242, 4(%esp)
 3466      F2000000 
 3467 1d6a 8B4508   		movl	8(%ebp), %eax
 3468 1d6d 890424   		movl	%eax, (%esp)
 3469 1d70 E867F8FF 		call	_putBits
 3469      FF
 959:../../MMI/Resource/CmidiGen.c ****          putBits(ihdl,  (c_uint8)(event.c1), 7, &ptr );
 3471              	LM425:
 3472 1d75 8D450C   		leal	12(%ebp), %eax
 3473 1d78 8944240C 		movl	%eax, 12(%esp)
 3474 1d7c C7442408 		movl	$7, 8(%esp)
 3474      07000000 
 3475 1d84 0FB645EA 		movzbl	-22(%ebp), %eax
 3476 1d88 89442404 		movl	%eax, 4(%esp)
 3477 1d8c 8B4508   		movl	8(%ebp), %eax
 3478 1d8f 890424   		movl	%eax, (%esp)
 3479 1d92 E845F8FF 		call	_putBits
 3479      FF
 960:../../MMI/Resource/CmidiGen.c **** #ifdef LOCALSIM
 961:../../MMI/Resource/CmidiGen.c ****          TRACE3("time %d: Program, ch=%d, prog=%d\n", total_time, event.ch+1, event.c1 );
 962:../../MMI/Resource/CmidiGen.c **** #endif
 963:../../MMI/Resource/CmidiGen.c ****          break;
 3481              	LM426:
 3482 1d97 E9DDFAFF 		jmp	L198
 3482      FF
 3483              	L212:
 964:../../MMI/Resource/CmidiGen.c ****       case ME_CHANNEL_PRESSURE:
 965:../../MMI/Resource/CmidiGen.c ****          checkChannel( ihdl, &event, &ptr );
 3485              	LM427:
 3486 1d9c 8D450C   		leal	12(%ebp), %eax
 3487 1d9f 89442408 		movl	%eax, 8(%esp)
 3488 1da3 8D45E8   		leal	-24(%ebp), %eax
 3489 1da6 89442404 		movl	%eax, 4(%esp)
 3490 1daa 8B4508   		movl	8(%ebp), %eax
 3491 1dad 890424   		movl	%eax, (%esp)
 3492 1db0 E833F9FF 		call	_checkChannel
GAS LISTING f:/K7_TOUR/CODE/plutommi/Customer/ResGenerator/gcctmp/ccCOcaaa.s 			page 73


 3492      FF
 966:../../MMI/Resource/CmidiGen.c ****          addStatistics( ihdl, 10 );
 3494              	LM428:
 3495 1db5 C7442404 		movl	$10, 4(%esp)
 3495      0A000000 
 3496 1dbd 8B4508   		movl	8(%ebp), %eax
 3497 1dc0 890424   		movl	%eax, (%esp)
 3498 1dc3 E805F9FF 		call	_addStatistics
 3498      FF
 967:../../MMI/Resource/CmidiGen.c ****          putBits(ihdl,  (c_uint8)0xF3, 8, &ptr );
 3500              	LM429:
 3501 1dc8 8D450C   		leal	12(%ebp), %eax
 3502 1dcb 8944240C 		movl	%eax, 12(%esp)
 3503 1dcf C7442408 		movl	$8, 8(%esp)
 3503      08000000 
 3504 1dd7 C7442404 		movl	$243, 4(%esp)
 3504      F3000000 
 3505 1ddf 8B4508   		movl	8(%ebp), %eax
 3506 1de2 890424   		movl	%eax, (%esp)
 3507 1de5 E8F2F7FF 		call	_putBits
 3507      FF
 968:../../MMI/Resource/CmidiGen.c ****          putBits( ihdl, (c_uint8)(event.c1>>2), 5, &ptr );
 3509              	LM430:
 3510 1dea 8D450C   		leal	12(%ebp), %eax
 3511 1ded 8944240C 		movl	%eax, 12(%esp)
 3512 1df1 C7442408 		movl	$5, 8(%esp)
 3512      05000000 
 3513 1df9 0FB645EA 		movzbl	-22(%ebp), %eax
 3514 1dfd C0E802   		shrb	$2, %al
 3515 1e00 0FB6C0   		movzbl	%al, %eax
 3516 1e03 89442404 		movl	%eax, 4(%esp)
 3517 1e07 8B4508   		movl	8(%ebp), %eax
 3518 1e0a 890424   		movl	%eax, (%esp)
 3519 1e0d E8CAF7FF 		call	_putBits
 3519      FF
 969:../../MMI/Resource/CmidiGen.c **** #ifdef LOCALSIM
 970:../../MMI/Resource/CmidiGen.c ****          TRACE3("time %d: Channel pressure, ch=%d, pressure=%d\n", total_time, event.ch+1, event.c1
 971:../../MMI/Resource/CmidiGen.c **** #endif
 972:../../MMI/Resource/CmidiGen.c ****          break;         
 3521              	LM431:
 3522 1e12 E962FAFF 		jmp	L198
 3522      FF
 3523              	L213:
 973:../../MMI/Resource/CmidiGen.c ****       case ME_KEY_PRESSURE:
 974:../../MMI/Resource/CmidiGen.c ****          checkChannel(ihdl,  &event, &ptr );
 3525              	LM432:
 3526 1e17 8D450C   		leal	12(%ebp), %eax
 3527 1e1a 89442408 		movl	%eax, 8(%esp)
 3528 1e1e 8D45E8   		leal	-24(%ebp), %eax
 3529 1e21 89442404 		movl	%eax, 4(%esp)
 3530 1e25 8B4508   		movl	8(%ebp), %eax
 3531 1e28 890424   		movl	%eax, (%esp)
 3532 1e2b E8B8F8FF 		call	_checkChannel
 3532      FF
 975:../../MMI/Resource/CmidiGen.c ****          checkOctave(ihdl,  &event, &ptr );
 3534              	LM433:
 3535 1e30 8D450C   		leal	12(%ebp), %eax
GAS LISTING f:/K7_TOUR/CODE/plutommi/Customer/ResGenerator/gcctmp/ccCOcaaa.s 			page 74


 3536 1e33 89442408 		movl	%eax, 8(%esp)
 3537 1e37 8D45E8   		leal	-24(%ebp), %eax
 3538 1e3a 89442404 		movl	%eax, 4(%esp)
 3539 1e3e 8B4508   		movl	8(%ebp), %eax
 3540 1e41 890424   		movl	%eax, (%esp)
 3541 1e44 E826F9FF 		call	_checkOctave
 3541      FF
 976:../../MMI/Resource/CmidiGen.c ****          addStatistics(ihdl,  11 );
 3543              	LM434:
 3544 1e49 C7442404 		movl	$11, 4(%esp)
 3544      0B000000 
 3545 1e51 8B4508   		movl	8(%ebp), %eax
 3546 1e54 890424   		movl	%eax, (%esp)
 3547 1e57 E871F8FF 		call	_addStatistics
 3547      FF
 977:../../MMI/Resource/CmidiGen.c ****          putBits( ihdl, (c_uint8)0xF4, 8, &ptr );
 3549              	LM435:
 3550 1e5c 8D450C   		leal	12(%ebp), %eax
 3551 1e5f 8944240C 		movl	%eax, 12(%esp)
 3552 1e63 C7442408 		movl	$8, 8(%esp)
 3552      08000000 
 3553 1e6b C7442404 		movl	$244, 4(%esp)
 3553      F4000000 
 3554 1e73 8B4508   		movl	8(%ebp), %eax
 3555 1e76 890424   		movl	%eax, (%esp)
 3556 1e79 E85EF7FF 		call	_putBits
 3556      FF
 978:../../MMI/Resource/CmidiGen.c ****          putBits( ihdl, (c_uint8)(event.c1&0x0F), 4, &ptr );
 3558              	LM436:
 3559 1e7e 8D450C   		leal	12(%ebp), %eax
 3560 1e81 8944240C 		movl	%eax, 12(%esp)
 3561 1e85 C7442408 		movl	$4, 8(%esp)
 3561      04000000 
 3562 1e8d 0FB645EA 		movzbl	-22(%ebp), %eax
 3563 1e91 83E00F   		andl	$15, %eax
 3564 1e94 89442404 		movl	%eax, 4(%esp)
 3565 1e98 8B4508   		movl	8(%ebp), %eax
 3566 1e9b 890424   		movl	%eax, (%esp)
 3567 1e9e E839F7FF 		call	_putBits
 3567      FF
 979:../../MMI/Resource/CmidiGen.c ****          putBits( ihdl, (c_uint8)(event.c2>>2), 5, &ptr );
 3569              	LM437:
 3570 1ea3 8D450C   		leal	12(%ebp), %eax
 3571 1ea6 8944240C 		movl	%eax, 12(%esp)
 3572 1eaa C7442408 		movl	$5, 8(%esp)
 3572      05000000 
 3573 1eb2 0FB645EB 		movzbl	-21(%ebp), %eax
 3574 1eb6 C0E802   		shrb	$2, %al
 3575 1eb9 0FB6C0   		movzbl	%al, %eax
 3576 1ebc 89442404 		movl	%eax, 4(%esp)
 3577 1ec0 8B4508   		movl	8(%ebp), %eax
 3578 1ec3 890424   		movl	%eax, (%esp)
 3579 1ec6 E811F7FF 		call	_putBits
 3579      FF
 980:../../MMI/Resource/CmidiGen.c **** #ifdef LOCALSIM
 981:../../MMI/Resource/CmidiGen.c ****          TRACE4("time %d: Key pressure, ch=%d, pitch=%d, pressure=%d\n", total_time, event.ch+1, ev
 982:../../MMI/Resource/CmidiGen.c **** #endif
GAS LISTING f:/K7_TOUR/CODE/plutommi/Customer/ResGenerator/gcctmp/ccCOcaaa.s 			page 75


 983:../../MMI/Resource/CmidiGen.c ****          break;
 3581              	LM438:
 3582 1ecb E9A9F9FF 		jmp	L198
 3582      FF
 3583              	L214:
 984:../../MMI/Resource/CmidiGen.c ****       case ME_TONE_BANK_HI:
 985:../../MMI/Resource/CmidiGen.c ****          checkChannel(ihdl,  &event, &ptr );
 3585              	LM439:
 3586 1ed0 8D450C   		leal	12(%ebp), %eax
 3587 1ed3 89442408 		movl	%eax, 8(%esp)
 3588 1ed7 8D45E8   		leal	-24(%ebp), %eax
 3589 1eda 89442404 		movl	%eax, 4(%esp)
 3590 1ede 8B4508   		movl	8(%ebp), %eax
 3591 1ee1 890424   		movl	%eax, (%esp)
 3592 1ee4 E8FFF7FF 		call	_checkChannel
 3592      FF
 986:../../MMI/Resource/CmidiGen.c ****          addStatistics(ihdl,  12 );
 3594              	LM440:
 3595 1ee9 C7442404 		movl	$12, 4(%esp)
 3595      0C000000 
 3596 1ef1 8B4508   		movl	8(%ebp), %eax
 3597 1ef4 890424   		movl	%eax, (%esp)
 3598 1ef7 E8D1F7FF 		call	_addStatistics
 3598      FF
 987:../../MMI/Resource/CmidiGen.c ****          putBits(ihdl,  (c_uint8)0xF5, 8, &ptr );
 3600              	LM441:
 3601 1efc 8D450C   		leal	12(%ebp), %eax
 3602 1eff 8944240C 		movl	%eax, 12(%esp)
 3603 1f03 C7442408 		movl	$8, 8(%esp)
 3603      08000000 
 3604 1f0b C7442404 		movl	$245, 4(%esp)
 3604      F5000000 
 3605 1f13 8B4508   		movl	8(%ebp), %eax
 3606 1f16 890424   		movl	%eax, (%esp)
 3607 1f19 E8BEF6FF 		call	_putBits
 3607      FF
 988:../../MMI/Resource/CmidiGen.c ****          putBits( ihdl, (c_uint8)(event.c1), 7, &ptr );
 3609              	LM442:
 3610 1f1e 8D450C   		leal	12(%ebp), %eax
 3611 1f21 8944240C 		movl	%eax, 12(%esp)
 3612 1f25 C7442408 		movl	$7, 8(%esp)
 3612      07000000 
 3613 1f2d 0FB645EA 		movzbl	-22(%ebp), %eax
 3614 1f31 89442404 		movl	%eax, 4(%esp)
 3615 1f35 8B4508   		movl	8(%ebp), %eax
 3616 1f38 890424   		movl	%eax, (%esp)
 3617 1f3b E89CF6FF 		call	_putBits
 3617      FF
 989:../../MMI/Resource/CmidiGen.c **** #ifdef LOCALSIM
 990:../../MMI/Resource/CmidiGen.c ****          TRACE3("time %d: Tone bank_hi, ch=%d, bank_hi=%d\n", total_time, event.ch+1, event.c1 );
 991:../../MMI/Resource/CmidiGen.c **** #endif
 992:../../MMI/Resource/CmidiGen.c ****          break;
 3619              	LM443:
 3620 1f40 E934F9FF 		jmp	L198
 3620      FF
 3621              	L215:
 993:../../MMI/Resource/CmidiGen.c ****       case ME_TONE_BANK_LO:
GAS LISTING f:/K7_TOUR/CODE/plutommi/Customer/ResGenerator/gcctmp/ccCOcaaa.s 			page 76


 994:../../MMI/Resource/CmidiGen.c ****          checkChannel( ihdl, &event, &ptr );
 3623              	LM444:
 3624 1f45 8D450C   		leal	12(%ebp), %eax
 3625 1f48 89442408 		movl	%eax, 8(%esp)
 3626 1f4c 8D45E8   		leal	-24(%ebp), %eax
 3627 1f4f 89442404 		movl	%eax, 4(%esp)
 3628 1f53 8B4508   		movl	8(%ebp), %eax
 3629 1f56 890424   		movl	%eax, (%esp)
 3630 1f59 E88AF7FF 		call	_checkChannel
 3630      FF
 995:../../MMI/Resource/CmidiGen.c ****          addStatistics(ihdl,  17 );
 3632              	LM445:
 3633 1f5e C7442404 		movl	$17, 4(%esp)
 3633      11000000 
 3634 1f66 8B4508   		movl	8(%ebp), %eax
 3635 1f69 890424   		movl	%eax, (%esp)
 3636 1f6c E85CF7FF 		call	_addStatistics
 3636      FF
 996:../../MMI/Resource/CmidiGen.c ****          putBits( ihdl, (c_uint8)0xFA, 8, &ptr );
 3638              	LM446:
 3639 1f71 8D450C   		leal	12(%ebp), %eax
 3640 1f74 8944240C 		movl	%eax, 12(%esp)
 3641 1f78 C7442408 		movl	$8, 8(%esp)
 3641      08000000 
 3642 1f80 C7442404 		movl	$250, 4(%esp)
 3642      FA000000 
 3643 1f88 8B4508   		movl	8(%ebp), %eax
 3644 1f8b 890424   		movl	%eax, (%esp)
 3645 1f8e E849F6FF 		call	_putBits
 3645      FF
 997:../../MMI/Resource/CmidiGen.c ****          putBits( ihdl, (c_uint8)(event.c1), 7, &ptr );
 3647              	LM447:
 3648 1f93 8D450C   		leal	12(%ebp), %eax
 3649 1f96 8944240C 		movl	%eax, 12(%esp)
 3650 1f9a C7442408 		movl	$7, 8(%esp)
 3650      07000000 
 3651 1fa2 0FB645EA 		movzbl	-22(%ebp), %eax
 3652 1fa6 89442404 		movl	%eax, 4(%esp)
 3653 1faa 8B4508   		movl	8(%ebp), %eax
 3654 1fad 890424   		movl	%eax, (%esp)
 3655 1fb0 E827F6FF 		call	_putBits
 3655      FF
 998:../../MMI/Resource/CmidiGen.c **** #ifdef LOCALSIM
 999:../../MMI/Resource/CmidiGen.c ****          TRACE3("time %d: Tone bank_lo, ch=%d, bank_lo=%d\n", total_time, event.ch+1, event.c1 );
1000:../../MMI/Resource/CmidiGen.c **** #endif
1001:../../MMI/Resource/CmidiGen.c ****          break;
 3657              	LM448:
 3658 1fb5 E9BFF8FF 		jmp	L198
 3658      FF
 3659              	L216:
1002:../../MMI/Resource/CmidiGen.c ****       case ME_MODULATION_WHEEL:
1003:../../MMI/Resource/CmidiGen.c ****          checkChannel( ihdl, &event, &ptr );
 3661              	LM449:
 3662 1fba 8D450C   		leal	12(%ebp), %eax
 3663 1fbd 89442408 		movl	%eax, 8(%esp)
 3664 1fc1 8D45E8   		leal	-24(%ebp), %eax
 3665 1fc4 89442404 		movl	%eax, 4(%esp)
GAS LISTING f:/K7_TOUR/CODE/plutommi/Customer/ResGenerator/gcctmp/ccCOcaaa.s 			page 77


 3666 1fc8 8B4508   		movl	8(%ebp), %eax
 3667 1fcb 890424   		movl	%eax, (%esp)
 3668 1fce E815F7FF 		call	_checkChannel
 3668      FF
1004:../../MMI/Resource/CmidiGen.c ****          addStatistics( ihdl, 13 );
 3670              	LM450:
 3671 1fd3 C7442404 		movl	$13, 4(%esp)
 3671      0D000000 
 3672 1fdb 8B4508   		movl	8(%ebp), %eax
 3673 1fde 890424   		movl	%eax, (%esp)
 3674 1fe1 E8E7F6FF 		call	_addStatistics
 3674      FF
1005:../../MMI/Resource/CmidiGen.c ****          putBits( ihdl, (c_uint8)0xF6, 8, &ptr );
 3676              	LM451:
 3677 1fe6 8D450C   		leal	12(%ebp), %eax
 3678 1fe9 8944240C 		movl	%eax, 12(%esp)
 3679 1fed C7442408 		movl	$8, 8(%esp)
 3679      08000000 
 3680 1ff5 C7442404 		movl	$246, 4(%esp)
 3680      F6000000 
 3681 1ffd 8B4508   		movl	8(%ebp), %eax
 3682 2000 890424   		movl	%eax, (%esp)
 3683 2003 E8D4F5FF 		call	_putBits
 3683      FF
1006:../../MMI/Resource/CmidiGen.c ****          putBits( ihdl, (c_uint8)(event.c1), 7, &ptr );
 3685              	LM452:
 3686 2008 8D450C   		leal	12(%ebp), %eax
 3687 200b 8944240C 		movl	%eax, 12(%esp)
 3688 200f C7442408 		movl	$7, 8(%esp)
 3688      07000000 
 3689 2017 0FB645EA 		movzbl	-22(%ebp), %eax
 3690 201b 89442404 		movl	%eax, 4(%esp)
 3691 201f 8B4508   		movl	8(%ebp), %eax
 3692 2022 890424   		movl	%eax, (%esp)
 3693 2025 E8B2F5FF 		call	_putBits
 3693      FF
1007:../../MMI/Resource/CmidiGen.c **** #ifdef LOCALSIM
1008:../../MMI/Resource/CmidiGen.c ****          TRACE3("time %d: Modulation wheel, ch=%d, val=%d\n", total_time, event.ch+1, event.c1 );
1009:../../MMI/Resource/CmidiGen.c **** #endif
1010:../../MMI/Resource/CmidiGen.c ****          break;
 3695              	LM453:
 3696 202a E94AF8FF 		jmp	L198
 3696      FF
 3697              	L217:
1011:../../MMI/Resource/CmidiGen.c ****       case ME_EXPRESSION:
1012:../../MMI/Resource/CmidiGen.c ****          checkChannel( ihdl, &event, &ptr );
 3699              	LM454:
 3700 202f 8D450C   		leal	12(%ebp), %eax
 3701 2032 89442408 		movl	%eax, 8(%esp)
 3702 2036 8D45E8   		leal	-24(%ebp), %eax
 3703 2039 89442404 		movl	%eax, 4(%esp)
 3704 203d 8B4508   		movl	8(%ebp), %eax
 3705 2040 890424   		movl	%eax, (%esp)
 3706 2043 E8A0F6FF 		call	_checkChannel
 3706      FF
1013:../../MMI/Resource/CmidiGen.c ****          addStatistics(ihdl,  14 );
 3708              	LM455:
GAS LISTING f:/K7_TOUR/CODE/plutommi/Customer/ResGenerator/gcctmp/ccCOcaaa.s 			page 78


 3709 2048 C7442404 		movl	$14, 4(%esp)
 3709      0E000000 
 3710 2050 8B4508   		movl	8(%ebp), %eax
 3711 2053 890424   		movl	%eax, (%esp)
 3712 2056 E872F6FF 		call	_addStatistics
 3712      FF
1014:../../MMI/Resource/CmidiGen.c ****          putBits( ihdl, (c_uint8)0xF7, 8, &ptr );
 3714              	LM456:
 3715 205b 8D450C   		leal	12(%ebp), %eax
 3716 205e 8944240C 		movl	%eax, 12(%esp)
 3717 2062 C7442408 		movl	$8, 8(%esp)
 3717      08000000 
 3718 206a C7442404 		movl	$247, 4(%esp)
 3718      F7000000 
 3719 2072 8B4508   		movl	8(%ebp), %eax
 3720 2075 890424   		movl	%eax, (%esp)
 3721 2078 E85FF5FF 		call	_putBits
 3721      FF
1015:../../MMI/Resource/CmidiGen.c ****          putBits( ihdl, (c_uint8)(event.c1>>2), 5, &ptr );
 3723              	LM457:
 3724 207d 8D450C   		leal	12(%ebp), %eax
 3725 2080 8944240C 		movl	%eax, 12(%esp)
 3726 2084 C7442408 		movl	$5, 8(%esp)
 3726      05000000 
 3727 208c 0FB645EA 		movzbl	-22(%ebp), %eax
 3728 2090 C0E802   		shrb	$2, %al
 3729 2093 0FB6C0   		movzbl	%al, %eax
 3730 2096 89442404 		movl	%eax, 4(%esp)
 3731 209a 8B4508   		movl	8(%ebp), %eax
 3732 209d 890424   		movl	%eax, (%esp)
 3733 20a0 E837F5FF 		call	_putBits
 3733      FF
1016:../../MMI/Resource/CmidiGen.c **** #ifdef LOCALSIM
1017:../../MMI/Resource/CmidiGen.c ****          TRACE3("time %d: Expression, ch=%d, val=%d\n", total_time, event.ch+1, event.c1 );
1018:../../MMI/Resource/CmidiGen.c **** #endif
1019:../../MMI/Resource/CmidiGen.c ****          break;
 3735              	LM458:
 3736 20a5 E9CFF7FF 		jmp	L198
 3736      FF
 3737              	L218:
1020:../../MMI/Resource/CmidiGen.c ****       case ME_PITCH_SENS:
1021:../../MMI/Resource/CmidiGen.c ****          checkChannel(ihdl,  &event, &ptr );
 3739              	LM459:
 3740 20aa 8D450C   		leal	12(%ebp), %eax
 3741 20ad 89442408 		movl	%eax, 8(%esp)
 3742 20b1 8D45E8   		leal	-24(%ebp), %eax
 3743 20b4 89442404 		movl	%eax, 4(%esp)
 3744 20b8 8B4508   		movl	8(%ebp), %eax
 3745 20bb 890424   		movl	%eax, (%esp)
 3746 20be E825F6FF 		call	_checkChannel
 3746      FF
1022:../../MMI/Resource/CmidiGen.c ****          addStatistics( ihdl, 15 );
 3748              	LM460:
 3749 20c3 C7442404 		movl	$15, 4(%esp)
 3749      0F000000 
 3750 20cb 8B4508   		movl	8(%ebp), %eax
 3751 20ce 890424   		movl	%eax, (%esp)
GAS LISTING f:/K7_TOUR/CODE/plutommi/Customer/ResGenerator/gcctmp/ccCOcaaa.s 			page 79


 3752 20d1 E8F7F5FF 		call	_addStatistics
 3752      FF
1023:../../MMI/Resource/CmidiGen.c ****          putBits(ihdl,  (c_uint8)0xF8, 8, &ptr );
 3754              	LM461:
 3755 20d6 8D450C   		leal	12(%ebp), %eax
 3756 20d9 8944240C 		movl	%eax, 12(%esp)
 3757 20dd C7442408 		movl	$8, 8(%esp)
 3757      08000000 
 3758 20e5 C7442404 		movl	$248, 4(%esp)
 3758      F8000000 
 3759 20ed 8B4508   		movl	8(%ebp), %eax
 3760 20f0 890424   		movl	%eax, (%esp)
 3761 20f3 E8E4F4FF 		call	_putBits
 3761      FF
1024:../../MMI/Resource/CmidiGen.c ****          putBits(ihdl,  (c_uint8)(event.c1), 7, &ptr );
 3763              	LM462:
 3764 20f8 8D450C   		leal	12(%ebp), %eax
 3765 20fb 8944240C 		movl	%eax, 12(%esp)
 3766 20ff C7442408 		movl	$7, 8(%esp)
 3766      07000000 
 3767 2107 0FB645EA 		movzbl	-22(%ebp), %eax
 3768 210b 89442404 		movl	%eax, 4(%esp)
 3769 210f 8B4508   		movl	8(%ebp), %eax
 3770 2112 890424   		movl	%eax, (%esp)
 3771 2115 E8C2F4FF 		call	_putBits
 3771      FF
1025:../../MMI/Resource/CmidiGen.c **** #ifdef LOCALSIM
1026:../../MMI/Resource/CmidiGen.c ****          TRACE3("time %d: Pitch sense, ch=%d, val=%d\n", total_time, event.ch+1, event.c1 );
1027:../../MMI/Resource/CmidiGen.c **** #endif
1028:../../MMI/Resource/CmidiGen.c ****          break;
 3773              	LM463:
 3774 211a E95AF7FF 		jmp	L198
 3774      FF
 3775              	L199:
1029:../../MMI/Resource/CmidiGen.c ****       default:
1030:../../MMI/Resource/CmidiGen.c ****          ASSERT(0);
1031:../../MMI/Resource/CmidiGen.c ****          break;
1032:../../MMI/Resource/CmidiGen.c ****       }
1033:../../MMI/Resource/CmidiGen.c ****    }
1034:../../MMI/Resource/CmidiGen.c ****    if( ihdl->bits > 0 ) {       /* flush the data inside the cache buffer */
 3777              	LM464:
 3778 211f 8B4508   		movl	8(%ebp), %eax
 3779 2122 6683B8D0 		cmpw	$0, 720(%eax)
 3779      02000000 
 3780 212a 742F     		je	L193
1035:../../MMI/Resource/CmidiGen.c ****       ASSERT( ihdl->bits < 8 );
1036:../../MMI/Resource/CmidiGen.c ****       putBits( ihdl, (c_uint8)0, 8-ihdl->bits, &ptr );
 3782              	LM465:
 3783 212c 8D450C   		leal	12(%ebp), %eax
 3784 212f 8944240C 		movl	%eax, 12(%esp)
 3785 2133 8B4508   		movl	8(%ebp), %eax
 3786 2136 0FB790D0 		movzwl	720(%eax), %edx
 3786      020000
 3787 213d B8080000 		movl	$8, %eax
 3787      00
 3788 2142 29D0     		subl	%edx, %eax
 3789 2144 89442408 		movl	%eax, 8(%esp)
GAS LISTING f:/K7_TOUR/CODE/plutommi/Customer/ResGenerator/gcctmp/ccCOcaaa.s 			page 80


 3790 2148 C7442404 		movl	$0, 4(%esp)
 3790      00000000 
 3791 2150 8B4508   		movl	8(%ebp), %eax
 3792 2153 890424   		movl	%eax, (%esp)
 3793 2156 E881F4FF 		call	_putBits
 3793      FF
1037:../../MMI/Resource/CmidiGen.c ****    }
1038:../../MMI/Resource/CmidiGen.c **** }
 3795              	LM466:
 3796              	L193:
 3797 215b C9       		leave
 3798 215c C3       		ret
 3799              	LBE12:
 3805              	Lscope16:
 3807              	LC4:
 3808 215d 434D4944 		.ascii "CMIDI_Convert: start\0"
 3808      495F436F 
 3808      6E766572 
 3808      743A2073 
 3808      74617274 
 3809 2172 8DB42600 		.align 32
 3809      0000008D 
 3809      BC270000 
 3809      0000
 3810              	LC5:
 3811 2180 434D4944 		.ascii "CMIDI_Convert: hdlsize = %d, len = %d\0"
 3811      495F436F 
 3811      6E766572 
 3811      743A2068 
 3811      646C7369 
 3812              	LC6:
 3813 21a6 434D4944 		.ascii "CMIDI_Convert InitSMF\0"
 3813      495F436F 
 3813      6E766572 
 3813      7420496E 
 3813      6974534D 
 3814              	LC7:
 3815 21bc 434D4944 		.ascii "CMIDI_Convert MIDI_Parse\0"
 3815      495F436F 
 3815      6E766572 
 3815      74204D49 
 3815      44495F50 
 3816 21d5 8D742600 		.align 32
 3816      8DBC2700 
 3816      000000
 3817              	LC8:
 3818 21e0 434D4944 		.ascii "CMIDI_Convert MidiEvent_Optimize\0"
 3818      495F436F 
 3818      6E766572 
 3818      74204D69 
 3818      64694576 
 3819 2201 90909090 		.align 32
 3819      90909090 
 3819      90909090 
 3819      90909090 
 3819      90909090 
 3820              	LC9:
GAS LISTING f:/K7_TOUR/CODE/plutommi/Customer/ResGenerator/gcctmp/ccCOcaaa.s 			page 81


 3821 2220 434D4944 		.ascii "CMIDI_Convert MidiEvent_Output\0"
 3821      495F436F 
 3821      6E766572 
 3821      74204D69 
 3821      64694576 
 3822              	LC10:
 3823 223f 434D4944 		.ascii "CMIDI_Convert: End, len = %d\0"
 3823      495F436F 
 3823      6E766572 
 3823      743A2045 
 3823      6E642C20 
 3828              	.globl _CMIDI_Convert
 3830              	_CMIDI_Convert:
1039:../../MMI/Resource/CmidiGen.c **** 
1040:../../MMI/Resource/CmidiGen.c **** /* -------------------------------------------------------------------------------------- */
1041:../../MMI/Resource/CmidiGen.c **** int CMIDI_Convert( CMIDI_Handle *hdl, unsigned char *wrkbuf, int *len)
1042:../../MMI/Resource/CmidiGen.c **** {
 3832              	LM467:
 3833 225c 55       		pushl	%ebp
 3834 225d 89E5     		movl	%esp, %ebp
 3835 225f 83EC28   		subl	$40, %esp
1043:../../MMI/Resource/CmidiGen.c ****    c_int32 hdlsize;
1044:../../MMI/Resource/CmidiGen.c ****    CMIDI_Handle_Int *ihdl;
1045:../../MMI/Resource/CmidiGen.c ****    c_uint8 *ptr8;
1046:../../MMI/Resource/CmidiGen.c **** 
1047:../../MMI/Resource/CmidiGen.c ****    CMIDIGEN_LOG_V("CMIDI_Convert: start");
 3837              	LM468:
 3838              	LBB13:
 3839 2262 C7442408 		movl	$LC4, 8(%esp)
 3839      5D210000 
 3840 226a C7442404 		movl	$LC1, 4(%esp)
 3840      AA000000 
 3841 2272 C7042401 		movl	$1, (%esp)
 3841      000000
 3842 2279 E8000000 		call	_reslog_adaptor_log
 3842      00
1048:../../MMI/Resource/CmidiGen.c ****    hdl->ihdl = (CMIDI_Handle_Int*)wrkbuf;
 3844              	LM469:
 3845 227e 8B5508   		movl	8(%ebp), %edx
 3846 2281 8B450C   		movl	12(%ebp), %eax
 3847 2284 89420C   		movl	%eax, 12(%edx)
1049:../../MMI/Resource/CmidiGen.c ****    hdlsize = sizeof(CMIDI_Handle_Int);
 3849              	LM470:
 3850 2287 C745FC28 		movl	$808, -4(%ebp)
 3850      030000
1050:../../MMI/Resource/CmidiGen.c ****    ptr8 = (c_int8*)wrkbuf+hdlsize;
 3852              	LM471:
 3853 228e 8B45FC   		movl	-4(%ebp), %eax
 3854 2291 03450C   		addl	12(%ebp), %eax
 3855 2294 8945F4   		movl	%eax, -12(%ebp)
1051:../../MMI/Resource/CmidiGen.c ****    ihdl = hdl->ihdl;
 3857              	LM472:
 3858 2297 8B4508   		movl	8(%ebp), %eax
 3859 229a 8B400C   		movl	12(%eax), %eax
 3860 229d 8945F8   		movl	%eax, -8(%ebp)
1052:../../MMI/Resource/CmidiGen.c ****    
1053:../../MMI/Resource/CmidiGen.c ****    CMIDIGEN_LOG_V("CMIDI_Convert: hdlsize = %d, len = %d", hdlsize, *len);
GAS LISTING f:/K7_TOUR/CODE/plutommi/Customer/ResGenerator/gcctmp/ccCOcaaa.s 			page 82


 3862              	LM473:
 3863 22a0 8B4510   		movl	16(%ebp), %eax
 3864 22a3 8B00     		movl	(%eax), %eax
 3865 22a5 89442410 		movl	%eax, 16(%esp)
 3866 22a9 8B45FC   		movl	-4(%ebp), %eax
 3867 22ac 8944240C 		movl	%eax, 12(%esp)
 3868 22b0 C7442408 		movl	$LC5, 8(%esp)
 3868      80210000 
 3869 22b8 C7442404 		movl	$LC1, 4(%esp)
 3869      AA000000 
 3870 22c0 C7042401 		movl	$1, (%esp)
 3870      000000
 3871 22c7 E8000000 		call	_reslog_adaptor_log
 3871      00
1054:../../MMI/Resource/CmidiGen.c ****    CMIDIGEN_LOG_V("CMIDI_Convert InitSMF");
 3873              	LM474:
 3874 22cc C7442408 		movl	$LC6, 8(%esp)
 3874      A6210000 
 3875 22d4 C7442404 		movl	$LC1, 4(%esp)
 3875      AA000000 
 3876 22dc C7042401 		movl	$1, (%esp)
 3876      000000
 3877 22e3 E8000000 		call	_reslog_adaptor_log
 3877      00
1055:../../MMI/Resource/CmidiGen.c ****    InitSMF(wrkbuf, hdlsize);
 3879              	LM475:
 3880 22e8 8B45FC   		movl	-4(%ebp), %eax
 3881 22eb 89442404 		movl	%eax, 4(%esp)
 3882 22ef 8B450C   		movl	12(%ebp), %eax
 3883 22f2 890424   		movl	%eax, (%esp)
 3884 22f5 E8BEDFFF 		call	_InitSMF
 3884      FF
1056:../../MMI/Resource/CmidiGen.c **** #ifdef LOCALSIM
1057:../../MMI/Resource/CmidiGen.c ****    ihdl->debug = TRUE;
1058:../../MMI/Resource/CmidiGen.c **** #endif
1059:../../MMI/Resource/CmidiGen.c ****    ihdl->event_index = (MidiEvent*)ptr8;
 3886              	LM476:
 3887 22fa 8B55F8   		movl	-8(%ebp), %edx
 3888 22fd 8B45F4   		movl	-12(%ebp), %eax
 3889 2300 8982C802 		movl	%eax, 712(%edx)
 3889      0000
1060:../../MMI/Resource/CmidiGen.c **** 
1061:../../MMI/Resource/CmidiGen.c ****    ihdl->time_div = hdl->blockperiod;
 3891              	LM477:
 3892 2306 8B55F8   		movl	-8(%ebp), %edx
 3893 2309 8B4508   		movl	8(%ebp), %eax
 3894 230c 8B4008   		movl	8(%eax), %eax
 3895 230f 894214   		movl	%eax, 20(%edx)
1062:../../MMI/Resource/CmidiGen.c **** 
1063:../../MMI/Resource/CmidiGen.c ****    CMIDIGEN_LOG_V("CMIDI_Convert MIDI_Parse");
 3897              	LM478:
 3898 2312 C7442408 		movl	$LC7, 8(%esp)
 3898      BC210000 
 3899 231a C7442404 		movl	$LC1, 4(%esp)
 3899      AA000000 
 3900 2322 C7042401 		movl	$1, (%esp)
 3900      000000
GAS LISTING f:/K7_TOUR/CODE/plutommi/Customer/ResGenerator/gcctmp/ccCOcaaa.s 			page 83


 3901 2329 E8000000 		call	_reslog_adaptor_log
 3901      00
1064:../../MMI/Resource/CmidiGen.c ****    if( MIDI_Parse( ihdl, hdl->midifile ) < 0 )
 3903              	LM479:
 3904 232e 8B4508   		movl	8(%ebp), %eax
 3905 2331 8B00     		movl	(%eax), %eax
 3906 2333 89442404 		movl	%eax, 4(%esp)
 3907 2337 8B45F8   		movl	-8(%ebp), %eax
 3908 233a 890424   		movl	%eax, (%esp)
 3909 233d E8CDE0FF 		call	_MIDI_Parse
 3909      FF
 3910 2342 85C0     		testl	%eax, %eax
 3911 2344 790C     		jns	L223
1065:../../MMI/Resource/CmidiGen.c ****       return 0;
 3913              	LM480:
 3914 2346 C745F000 		movl	$0, -16(%ebp)
 3914      000000
 3915 234d E9440100 		jmp	L222
 3915      00
 3916              	L223:
1066:../../MMI/Resource/CmidiGen.c ****    
1067:../../MMI/Resource/CmidiGen.c ****    CMIDIGEN_LOG_V("CMIDI_Convert MidiEvent_Optimize");
 3918              	LM481:
 3919 2352 C7442408 		movl	$LC8, 8(%esp)
 3919      E0210000 
 3920 235a C7442404 		movl	$LC1, 4(%esp)
 3920      AA000000 
 3921 2362 C7042401 		movl	$1, (%esp)
 3921      000000
 3922 2369 E8000000 		call	_reslog_adaptor_log
 3922      00
1068:../../MMI/Resource/CmidiGen.c ****    MidiEvent_Optimize(ihdl);
 3924              	LM482:
 3925 236e 8B45F8   		movl	-8(%ebp), %eax
 3926 2371 890424   		movl	%eax, (%esp)
 3927 2374 E86FF1FF 		call	_MidiEvent_Optimize
 3927      FF
1069:../../MMI/Resource/CmidiGen.c **** 
1070:../../MMI/Resource/CmidiGen.c ****    CMIDIGEN_LOG_V("CMIDI_Convert MidiEvent_Output");
 3929              	LM483:
 3930 2379 C7442408 		movl	$LC9, 8(%esp)
 3930      20220000 
 3931 2381 C7442404 		movl	$LC1, 4(%esp)
 3931      AA000000 
 3932 2389 C7042401 		movl	$1, (%esp)
 3932      000000
 3933 2390 E8000000 		call	_reslog_adaptor_log
 3933      00
1071:../../MMI/Resource/CmidiGen.c ****    MidiEvent_Output( ihdl, (c_uint8*)hdl->midifile+8 );
 3935              	LM484:
 3936 2395 8B4508   		movl	8(%ebp), %eax
 3937 2398 8B00     		movl	(%eax), %eax
 3938 239a 83C008   		addl	$8, %eax
 3939 239d 89442404 		movl	%eax, 4(%esp)
 3940 23a1 8B45F8   		movl	-8(%ebp), %eax
 3941 23a4 890424   		movl	%eax, (%esp)
 3942 23a7 E852F4FF 		call	_MidiEvent_Output
GAS LISTING f:/K7_TOUR/CODE/plutommi/Customer/ResGenerator/gcctmp/ccCOcaaa.s 			page 84


 3942      FF
1072:../../MMI/Resource/CmidiGen.c ****    ptr8 = (c_uint8*)&hdl->midifile[0];
 3944              	LM485:
 3945 23ac 8B4508   		movl	8(%ebp), %eax
 3946 23af 8B00     		movl	(%eax), %eax
 3947 23b1 8945F4   		movl	%eax, -12(%ebp)
1073:../../MMI/Resource/CmidiGen.c ****    *ptr8++ = 'M';
 3949              	LM486:
 3950 23b4 8B45F4   		movl	-12(%ebp), %eax
 3951 23b7 C6004D   		movb	$77, (%eax)
 3952 23ba 8D45F4   		leal	-12(%ebp), %eax
 3953 23bd FF00     		incl	(%eax)
1074:../../MMI/Resource/CmidiGen.c ****    *ptr8++ = 'T';
 3955              	LM487:
 3956 23bf 8B45F4   		movl	-12(%ebp), %eax
 3957 23c2 C60054   		movb	$84, (%eax)
 3958 23c5 8D45F4   		leal	-12(%ebp), %eax
 3959 23c8 FF00     		incl	(%eax)
1075:../../MMI/Resource/CmidiGen.c ****    *ptr8++ = 'K';
 3961              	LM488:
 3962 23ca 8B45F4   		movl	-12(%ebp), %eax
 3963 23cd C6004B   		movb	$75, (%eax)
 3964 23d0 8D45F4   		leal	-12(%ebp), %eax
 3965 23d3 FF00     		incl	(%eax)
1076:../../MMI/Resource/CmidiGen.c ****    *ptr8++ = ihdl->time_div;
 3967              	LM489:
 3968 23d5 8B45F4   		movl	-12(%ebp), %eax
 3969 23d8 89C2     		movl	%eax, %edx
 3970 23da 8B45F8   		movl	-8(%ebp), %eax
 3971 23dd 0FB64014 		movzbl	20(%eax), %eax
 3972 23e1 8802     		movb	%al, (%edx)
 3973 23e3 8D45F4   		leal	-12(%ebp), %eax
 3974 23e6 FF00     		incl	(%eax)
1077:../../MMI/Resource/CmidiGen.c ****    *ptr8++ = (ihdl->output_bytes>>24) & 0xFF;
 3976              	LM490:
 3977 23e8 8B45F4   		movl	-12(%ebp), %eax
 3978 23eb 89C1     		movl	%eax, %ecx
 3979 23ed 8B45F8   		movl	-8(%ebp), %eax
 3980 23f0 8B80D802 		movl	728(%eax), %eax
 3980      0000
 3981 23f6 89C2     		movl	%eax, %edx
 3982 23f8 C1FA18   		sarl	$24, %edx
 3983 23fb B0FF     		movb	$-1, %al
 3984 23fd 20D0     		andb	%dl, %al
 3985 23ff 8801     		movb	%al, (%ecx)
 3986 2401 8D45F4   		leal	-12(%ebp), %eax
 3987 2404 FF00     		incl	(%eax)
1078:../../MMI/Resource/CmidiGen.c ****    *ptr8++ = (ihdl->output_bytes>>16) & 0xFF;
 3989              	LM491:
 3990 2406 8B45F4   		movl	-12(%ebp), %eax
 3991 2409 89C1     		movl	%eax, %ecx
 3992 240b 8B45F8   		movl	-8(%ebp), %eax
 3993 240e 8B80D802 		movl	728(%eax), %eax
 3993      0000
 3994 2414 89C2     		movl	%eax, %edx
 3995 2416 C1FA10   		sarl	$16, %edx
 3996 2419 B0FF     		movb	$-1, %al
GAS LISTING f:/K7_TOUR/CODE/plutommi/Customer/ResGenerator/gcctmp/ccCOcaaa.s 			page 85


 3997 241b 20D0     		andb	%dl, %al
 3998 241d 8801     		movb	%al, (%ecx)
 3999 241f 8D45F4   		leal	-12(%ebp), %eax
 4000 2422 FF00     		incl	(%eax)
1079:../../MMI/Resource/CmidiGen.c ****    *ptr8++ = (ihdl->output_bytes>>8) & 0xFF;
 4002              	LM492:
 4003 2424 8B45F4   		movl	-12(%ebp), %eax
 4004 2427 89C1     		movl	%eax, %ecx
 4005 2429 8B45F8   		movl	-8(%ebp), %eax
 4006 242c 8B80D802 		movl	728(%eax), %eax
 4006      0000
 4007 2432 89C2     		movl	%eax, %edx
 4008 2434 C1FA08   		sarl	$8, %edx
 4009 2437 B0FF     		movb	$-1, %al
 4010 2439 20D0     		andb	%dl, %al
 4011 243b 8801     		movb	%al, (%ecx)
 4012 243d 8D45F4   		leal	-12(%ebp), %eax
 4013 2440 FF00     		incl	(%eax)
1080:../../MMI/Resource/CmidiGen.c ****    *ptr8++ = ihdl->output_bytes & 0xFF;
 4015              	LM493:
 4016 2442 8B45F4   		movl	-12(%ebp), %eax
 4017 2445 89C1     		movl	%eax, %ecx
 4018 2447 8B55F8   		movl	-8(%ebp), %edx
 4019 244a B0FF     		movb	$-1, %al
 4020 244c 2282D802 		andb	728(%edx), %al
 4020      0000
 4021 2452 8801     		movb	%al, (%ecx)
 4022 2454 8D45F4   		leal	-12(%ebp), %eax
 4023 2457 FF00     		incl	(%eax)
1081:../../MMI/Resource/CmidiGen.c ****    *len = ihdl->output_bytes + 8;
 4025              	LM494:
 4026 2459 8B5510   		movl	16(%ebp), %edx
 4027 245c 8B45F8   		movl	-8(%ebp), %eax
 4028 245f 8B80D802 		movl	728(%eax), %eax
 4028      0000
 4029 2465 83C008   		addl	$8, %eax
 4030 2468 8902     		movl	%eax, (%edx)
1082:../../MMI/Resource/CmidiGen.c ****    CMIDIGEN_LOG_V("CMIDI_Convert: End, len = %d", *len);
 4032              	LM495:
 4033 246a 8B4510   		movl	16(%ebp), %eax
 4034 246d 8B00     		movl	(%eax), %eax
 4035 246f 8944240C 		movl	%eax, 12(%esp)
 4036 2473 C7442408 		movl	$LC10, 8(%esp)
 4036      3F220000 
 4037 247b C7442404 		movl	$LC1, 4(%esp)
 4037      AA000000 
 4038 2483 C7042401 		movl	$1, (%esp)
 4038      000000
 4039 248a E8000000 		call	_reslog_adaptor_log
 4039      00
1083:../../MMI/Resource/CmidiGen.c ****    return 1;
 4041              	LM496:
 4042 248f C745F001 		movl	$1, -16(%ebp)
 4042      000000
1084:../../MMI/Resource/CmidiGen.c **** }
 4044              	LM497:
 4045              	L222:
GAS LISTING f:/K7_TOUR/CODE/plutommi/Customer/ResGenerator/gcctmp/ccCOcaaa.s 			page 86


 4046              	LBE13:
 4047 2496 8B45F0   		movl	-16(%ebp), %eax
 4048 2499 C9       		leave
 4049 249a C3       		ret
 4055              	Lscope17:
 4060              	.globl _CMIDI_GetBufSize
 4062              	_CMIDI_GetBufSize:
1085:../../MMI/Resource/CmidiGen.c **** 
1086:../../MMI/Resource/CmidiGen.c **** /* -------------------------------------------------------------------------------------- */
1087:../../MMI/Resource/CmidiGen.c **** void CMIDI_GetBufSize( CMIDI_Handle *hdl, c_uint32 *wrksize)
1088:../../MMI/Resource/CmidiGen.c **** {
 4064              	LM498:
 4065 249b 55       		pushl	%ebp
 4066 249c 89E5     		movl	%esp, %ebp
 4067 249e 83EC04   		subl	$4, %esp
1089:../../MMI/Resource/CmidiGen.c ****    int ihdlsize;
1090:../../MMI/Resource/CmidiGen.c ****    ihdlsize = sizeof(CMIDI_Handle_Int);
 4069              	LM499:
 4070              	LBB14:
 4071 24a1 C745FC28 		movl	$808, -4(%ebp)
 4071      030000
1091:../../MMI/Resource/CmidiGen.c ****    *wrksize = ihdlsize+((hdl->file_len - 22)*9);
 4073              	LM500:
 4074 24a8 8B4D0C   		movl	12(%ebp), %ecx
 4075 24ab 8B4508   		movl	8(%ebp), %eax
 4076 24ae 8B5004   		movl	4(%eax), %edx
 4077 24b1 89D0     		movl	%edx, %eax
 4078 24b3 C1E003   		sall	$3, %eax
 4079 24b6 01D0     		addl	%edx, %eax
 4080 24b8 0345FC   		addl	-4(%ebp), %eax
 4081 24bb 2DC60000 		subl	$198, %eax
 4081      00
 4082 24c0 8901     		movl	%eax, (%ecx)
1092:../../MMI/Resource/CmidiGen.c **** }
 4084              	LM501:
 4085 24c2 C9       		leave
 4086 24c3 C3       		ret
 4087              	LBE14:
 4091              	Lscope18:
 4094              		.text
 4096              	Letext:
GAS LISTING f:/K7_TOUR/CODE/plutommi/Customer/ResGenerator/gcctmp/ccCOcaaa.s 			page 87


DEFINED SYMBOLS
                            *ABS*:00000000 CmidiGen.c
f:/K7_TOUR/CODE/plutommi/Customer/ResGenerator/gcctmp/ccCOcaaa.s:158    .text:00000000 _chantype
f:/K7_TOUR/CODE/plutommi/Customer/ResGenerator/gcctmp/ccCOcaaa.s:178    .text:00000010 _get32bit
f:/K7_TOUR/CODE/plutommi/Customer/ResGenerator/gcctmp/ccCOcaaa.s:211    .text:00000043 _get16bit
f:/K7_TOUR/CODE/plutommi/Customer/ResGenerator/gcctmp/ccCOcaaa.s:237    .text:00000063 _egetc
f:/K7_TOUR/CODE/plutommi/Customer/ResGenerator/gcctmp/ccCOcaaa.s:285    .text:00000132 _getVarNum
f:/K7_TOUR/CODE/plutommi/Customer/ResGenerator/gcctmp/ccCOcaaa.s:461    .text:000002b8 _InitSMF
f:/K7_TOUR/CODE/plutommi/Customer/ResGenerator/gcctmp/ccCOcaaa.s:511    .text:000002e9 _MidiEvent_Put
f:/K7_TOUR/CODE/plutommi/Customer/ResGenerator/gcctmp/ccCOcaaa.s:606    .text:00000393 _MidiEvent_Get
f:/K7_TOUR/CODE/plutommi/Customer/ResGenerator/gcctmp/ccCOcaaa.s:676    .text:0000040f _MIDI_Parse
f:/K7_TOUR/CODE/plutommi/Customer/ResGenerator/gcctmp/ccCOcaaa.s:1934   .text:00001062 _MidiEvent_GroupC1
f:/K7_TOUR/CODE/plutommi/Customer/ResGenerator/gcctmp/ccCOcaaa.s:2066   .text:0000112f _MidiEvent_GroupChannel
f:/K7_TOUR/CODE/plutommi/Customer/ResGenerator/gcctmp/ccCOcaaa.s:2439   .text:000013c6 _MidiEvent_RemoveDupEvents
f:/K7_TOUR/CODE/plutommi/Customer/ResGenerator/gcctmp/ccCOcaaa.s:2605   .text:000014e8 _MidiEvent_Optimize
f:/K7_TOUR/CODE/plutommi/Customer/ResGenerator/gcctmp/ccCOcaaa.s:2749   .text:000015dc _putBits
f:/K7_TOUR/CODE/plutommi/Customer/ResGenerator/gcctmp/ccCOcaaa.s:2858   .text:000016cd _addStatistics
f:/K7_TOUR/CODE/plutommi/Customer/ResGenerator/gcctmp/ccCOcaaa.s:2883   .text:000016e8 _checkChannel
f:/K7_TOUR/CODE/plutommi/Customer/ResGenerator/gcctmp/ccCOcaaa.s:2940   .text:0000176f _checkOctave
f:/K7_TOUR/CODE/plutommi/Customer/ResGenerator/gcctmp/ccCOcaaa.s:2999   .text:000017fe _MidiEvent_Output
f:/K7_TOUR/CODE/plutommi/Customer/ResGenerator/gcctmp/ccCOcaaa.s:3830   .text:0000225c _CMIDI_Convert
f:/K7_TOUR/CODE/plutommi/Customer/ResGenerator/gcctmp/ccCOcaaa.s:4062   .text:0000249b _CMIDI_GetBufSize

UNDEFINED SYMBOLS
_reslog_adaptor_log
