GAS LISTING f:/K7_TOUR/CODE/plutommi/Customer/ResGenerator/gcctmp/ccmebaaa.s 			page 1


   1              		.file	"GIFLoader.c"
   4              		.text
   5              	Ltext0:
 210              	_GIF_get_byte:
   1:../../MMI/Resource/GIFLoader.c **** /*****************************************************************************
   2:../../MMI/Resource/GIFLoader.c **** *  Copyright Statement:
   3:../../MMI/Resource/GIFLoader.c **** *  --------------------
   4:../../MMI/Resource/GIFLoader.c **** *  This software is protected by Copyright and the information contained
   5:../../MMI/Resource/GIFLoader.c **** *  herein is confidential. The software may not be copied and the information
   6:../../MMI/Resource/GIFLoader.c **** *  contained herein may not be used or disclosed except with the written
   7:../../MMI/Resource/GIFLoader.c **** *  permission of MediaTek Inc. (C) 2005
   8:../../MMI/Resource/GIFLoader.c **** *
   9:../../MMI/Resource/GIFLoader.c **** *  BY OPENING THIS FILE, BUYER HEREBY UNEQUIVOCALLY ACKNOWLEDGES AND AGREES
  10:../../MMI/Resource/GIFLoader.c **** *  THAT THE SOFTWARE/FIRMWARE AND ITS DOCUMENTATIONS ("MEDIATEK SOFTWARE")
  11:../../MMI/Resource/GIFLoader.c **** *  RECEIVED FROM MEDIATEK AND/OR ITS REPRESENTATIVES ARE PROVIDED TO BUYER ON
  12:../../MMI/Resource/GIFLoader.c **** *  AN "AS-IS" BASIS ONLY. MEDIATEK EXPRESSLY DISCLAIMS ANY AND ALL WARRANTIES,
  13:../../MMI/Resource/GIFLoader.c **** *  EXPRESS OR IMPLIED, INCLUDING BUT NOT LIMITED TO THE IMPLIED WARRANTIES OF
  14:../../MMI/Resource/GIFLoader.c **** *  MERCHANTABILITY, FITNESS FOR A PARTICULAR PURPOSE OR NONINFRINGEMENT.
  15:../../MMI/Resource/GIFLoader.c **** *  NEITHER DOES MEDIATEK PROVIDE ANY WARRANTY WHATSOEVER WITH RESPECT TO THE
  16:../../MMI/Resource/GIFLoader.c **** *  SOFTWARE OF ANY THIRD PARTY WHICH MAY BE USED BY, INCORPORATED IN, OR
  17:../../MMI/Resource/GIFLoader.c **** *  SUPPLIED WITH THE MEDIATEK SOFTWARE, AND BUYER AGREES TO LOOK ONLY TO SUCH
  18:../../MMI/Resource/GIFLoader.c **** *  THIRD PARTY FOR ANY WARRANTY CLAIM RELATING THERETO. MEDIATEK SHALL ALSO
  19:../../MMI/Resource/GIFLoader.c **** *  NOT BE RESPONSIBLE FOR ANY MEDIATEK SOFTWARE RELEASES MADE TO BUYER'S
  20:../../MMI/Resource/GIFLoader.c **** *  SPECIFICATION OR TO CONFORM TO A PARTICULAR STANDARD OR OPEN FORUM.
  21:../../MMI/Resource/GIFLoader.c **** *
  22:../../MMI/Resource/GIFLoader.c **** *  BUYER'S SOLE AND EXCLUSIVE REMEDY AND MEDIATEK'S ENTIRE AND CUMULATIVE
  23:../../MMI/Resource/GIFLoader.c **** *  LIABILITY WITH RESPECT TO THE MEDIATEK SOFTWARE RELEASED HEREUNDER WILL BE,
  24:../../MMI/Resource/GIFLoader.c **** *  AT MEDIATEK'S OPTION, TO REVISE OR REPLACE THE MEDIATEK SOFTWARE AT ISSUE,
  25:../../MMI/Resource/GIFLoader.c **** *  OR REFUND ANY SOFTWARE LICENSE FEES OR SERVICE CHARGE PAID BY BUYER TO
  26:../../MMI/Resource/GIFLoader.c **** *  MEDIATEK FOR SUCH MEDIATEK SOFTWARE AT ISSUE. 
  27:../../MMI/Resource/GIFLoader.c **** *
  28:../../MMI/Resource/GIFLoader.c **** *  THE TRANSACTION CONTEMPLATED HEREUNDER SHALL BE CONSTRUED IN ACCORDANCE
  29:../../MMI/Resource/GIFLoader.c **** *  WITH THE LAWS OF THE STATE OF CALIFORNIA, USA, EXCLUDING ITS CONFLICT OF
  30:../../MMI/Resource/GIFLoader.c **** *  LAWS PRINCIPLES.  ANY DISPUTES, CONTROVERSIES OR CLAIMS ARISING THEREOF AND
  31:../../MMI/Resource/GIFLoader.c **** *  RELATED THERETO SHALL BE SETTLED BY ARBITRATION IN SAN FRANCISCO, CA, UNDER
  32:../../MMI/Resource/GIFLoader.c **** *  THE RULES OF THE INTERNATIONAL CHAMBER OF COMMERCE (ICC).
  33:../../MMI/Resource/GIFLoader.c **** *
  34:../../MMI/Resource/GIFLoader.c **** *****************************************************************************/
  35:../../MMI/Resource/GIFLoader.c **** 
  36:../../MMI/Resource/GIFLoader.c **** /*******************************************************************************
  37:../../MMI/Resource/GIFLoader.c ****  * Filename:
  38:../../MMI/Resource/GIFLoader.c ****  * ---------
  39:../../MMI/Resource/GIFLoader.c ****  *  GIFLoader.c
  40:../../MMI/Resource/GIFLoader.c ****  *
  41:../../MMI/Resource/GIFLoader.c ****  * Project:
  42:../../MMI/Resource/GIFLoader.c ****  * --------
  43:../../MMI/Resource/GIFLoader.c ****  *  MAUI
  44:../../MMI/Resource/GIFLoader.c ****  *
  45:../../MMI/Resource/GIFLoader.c ****  * Description:
  46:../../MMI/Resource/GIFLoader.c ****  * ------------
  47:../../MMI/Resource/GIFLoader.c ****  *  
  48:../../MMI/Resource/GIFLoader.c ****  *
  49:../../MMI/Resource/GIFLoader.c ****  * Author:
  50:../../MMI/Resource/GIFLoader.c ****  * -------
  51:../../MMI/Resource/GIFLoader.c ****  *  
  52:../../MMI/Resource/GIFLoader.c ****  *
  53:../../MMI/Resource/GIFLoader.c ****  *==============================================================================
GAS LISTING f:/K7_TOUR/CODE/plutommi/Customer/ResGenerator/gcctmp/ccmebaaa.s 			page 2


  54:../../MMI/Resource/GIFLoader.c ****  *             HISTORY
  55:../../MMI/Resource/GIFLoader.c ****  * Below this line, this part is controlled by PVCS VM. DO NOT MODIFY!! 
  56:../../MMI/Resource/GIFLoader.c ****  *------------------------------------------------------------------------------
  57:../../MMI/Resource/GIFLoader.c ****  * removed!
  58:../../MMI/Resource/GIFLoader.c ****  *
  59:../../MMI/Resource/GIFLoader.c ****  * removed!
  60:../../MMI/Resource/GIFLoader.c ****  * removed!
  61:../../MMI/Resource/GIFLoader.c ****  * removed!
  62:../../MMI/Resource/GIFLoader.c ****  *
  63:../../MMI/Resource/GIFLoader.c ****  * removed!
  64:../../MMI/Resource/GIFLoader.c ****  * removed!
  65:../../MMI/Resource/GIFLoader.c ****  * removed!
  66:../../MMI/Resource/GIFLoader.c ****  *
  67:../../MMI/Resource/GIFLoader.c ****  * removed!
  68:../../MMI/Resource/GIFLoader.c ****  * removed!
  69:../../MMI/Resource/GIFLoader.c ****  * removed!
  70:../../MMI/Resource/GIFLoader.c ****  *
  71:../../MMI/Resource/GIFLoader.c ****  * removed!
  72:../../MMI/Resource/GIFLoader.c ****  * removed!
  73:../../MMI/Resource/GIFLoader.c ****  * removed!
  74:../../MMI/Resource/GIFLoader.c ****  *
  75:../../MMI/Resource/GIFLoader.c ****  *------------------------------------------------------------------------------
  76:../../MMI/Resource/GIFLoader.c ****  * Upper this line, this part is controlled by PVCS VM. DO NOT MODIFY!! 
  77:../../MMI/Resource/GIFLoader.c ****  *==============================================================================
  78:../../MMI/Resource/GIFLoader.c ****  *******************************************************************************/
  79:../../MMI/Resource/GIFLoader.c **** 
  80:../../MMI/Resource/GIFLoader.c **** #include <stdio.h>
  81:../../MMI/Resource/GIFLoader.c **** #include <stdlib.h>
  82:../../MMI/Resource/GIFLoader.c **** #include <string.h>
  83:../../MMI/Resource/GIFLoader.c **** 
  84:../../MMI/Resource/GIFLoader.c **** #include "ResDevice.h"
  85:../../MMI/Resource/GIFLoader.c **** #include "ResBytestream.h"
  86:../../MMI/Resource/GIFLoader.c **** #include "ImgDecoderDef.h"
  87:../../MMI/Resource/GIFLoader.c **** 
  88:../../MMI/Resource/GIFLoader.c **** 
  89:../../MMI/Resource/GIFLoader.c **** /* GIF code from WINGUI.C  */
  90:../../MMI/Resource/GIFLoader.c **** 
  91:../../MMI/Resource/GIFLoader.c **** 
  92:../../MMI/Resource/GIFLoader.c **** /*****************************************************************************
  93:../../MMI/Resource/GIFLoader.c ****  * FUNCTION
  94:../../MMI/Resource/GIFLoader.c ****  *  GIF_get_byte
  95:../../MMI/Resource/GIFLoader.c ****  * DESCRIPTION
  96:../../MMI/Resource/GIFLoader.c ****  *  
  97:../../MMI/Resource/GIFLoader.c ****  * PARAMETERS
  98:../../MMI/Resource/GIFLoader.c ****  *  file        [?]     
  99:../../MMI/Resource/GIFLoader.c ****  * RETURNS
 100:../../MMI/Resource/GIFLoader.c ****  *  
 101:../../MMI/Resource/GIFLoader.c ****  *****************************************************************************/
 102:../../MMI/Resource/GIFLoader.c **** static U8 GIF_get_byte(bytestream *file)
 103:../../MMI/Resource/GIFLoader.c **** {
 212              	LM1:
 213 0000 55       		pushl	%ebp
 214 0001 89E5     		movl	%esp, %ebp
 215 0003 83EC08   		subl	$8, %esp
 104:../../MMI/Resource/GIFLoader.c ****     /*----------------------------------------------------------------*/
 105:../../MMI/Resource/GIFLoader.c ****     /* Local Variables                                                */
 106:../../MMI/Resource/GIFLoader.c ****     /*----------------------------------------------------------------*/
GAS LISTING f:/K7_TOUR/CODE/plutommi/Customer/ResGenerator/gcctmp/ccmebaaa.s 			page 3


 107:../../MMI/Resource/GIFLoader.c **** 
 108:../../MMI/Resource/GIFLoader.c ****     /*----------------------------------------------------------------*/
 109:../../MMI/Resource/GIFLoader.c ****     /* Code Body                                                      */
 110:../../MMI/Resource/GIFLoader.c ****     /*----------------------------------------------------------------*/
 111:../../MMI/Resource/GIFLoader.c ****     return (bytestream_fgetbyte(file));
 217              	LM2:
 218 0006 8B4508   		movl	8(%ebp), %eax
 219 0009 890424   		movl	%eax, (%esp)
 220 000c E8000000 		call	_bytestream_fgetbyte
 220      00
 221 0011 0FB6C0   		movzbl	%al, %eax
 112:../../MMI/Resource/GIFLoader.c **** }
 223              	LM3:
 224 0014 C9       		leave
 225 0015 C3       		ret
 226              	Lscope0:
 239              	_GIF_write_line:
 113:../../MMI/Resource/GIFLoader.c **** 
 114:../../MMI/Resource/GIFLoader.c **** #if(!WINGUI_DIRECT_IMAGE_DISPLAY)
 115:../../MMI/Resource/GIFLoader.c **** 
 116:../../MMI/Resource/GIFLoader.c **** 
 117:../../MMI/Resource/GIFLoader.c **** /*****************************************************************************
 118:../../MMI/Resource/GIFLoader.c ****  * FUNCTION
 119:../../MMI/Resource/GIFLoader.c ****  *  GIF_write_line
 120:../../MMI/Resource/GIFLoader.c ****  * DESCRIPTION
 121:../../MMI/Resource/GIFLoader.c ****  *  
 122:../../MMI/Resource/GIFLoader.c ****  * PARAMETERS
 123:../../MMI/Resource/GIFLoader.c ****  *  ix                          [IN]        
 124:../../MMI/Resource/GIFLoader.c ****  *  iy                          [IN]        
 125:../../MMI/Resource/GIFLoader.c ****  *  b                           [?]         
 126:../../MMI/Resource/GIFLoader.c ****  *  buffer                      [?]         
 127:../../MMI/Resource/GIFLoader.c ****  *  length                      [IN]        
 128:../../MMI/Resource/GIFLoader.c ****  *  y                           [IN]        
 129:../../MMI/Resource/GIFLoader.c ****  *  palette                     [?]         
 130:../../MMI/Resource/GIFLoader.c ****  *  transparent_GIF             [IN]        
 131:../../MMI/Resource/GIFLoader.c ****  *  transparent_color_index     [IN]        
 132:../../MMI/Resource/GIFLoader.c ****  * RETURNS
 133:../../MMI/Resource/GIFLoader.c ****  *  void
 134:../../MMI/Resource/GIFLoader.c ****  *****************************************************************************/
 135:../../MMI/Resource/GIFLoader.c **** static void GIF_write_line(
 136:../../MMI/Resource/GIFLoader.c ****         S32 ix,
 137:../../MMI/Resource/GIFLoader.c ****         S32 iy,
 138:../../MMI/Resource/GIFLoader.c ****         bitmap *b,
 139:../../MMI/Resource/GIFLoader.c ****         U8 *buffer,
 140:../../MMI/Resource/GIFLoader.c ****         S16 length,
 141:../../MMI/Resource/GIFLoader.c ****         S16 y,
 142:../../MMI/Resource/GIFLoader.c ****         U8 palette[][3],
 143:../../MMI/Resource/GIFLoader.c ****         U8 transparent_GIF,
 144:../../MMI/Resource/GIFLoader.c ****         U8 transparent_color_index)
 145:../../MMI/Resource/GIFLoader.c **** {
 241              	LM4:
 242 0016 55       		pushl	%ebp
 243 0017 89E5     		movl	%esp, %ebp
 244 0019 53       		pushl	%ebx
 245 001a 83EC1C   		subl	$28, %esp
 246 001d 8B4518   		movl	24(%ebp), %eax
 247 0020 8B551C   		movl	28(%ebp), %edx
GAS LISTING f:/K7_TOUR/CODE/plutommi/Customer/ResGenerator/gcctmp/ccmebaaa.s 			page 4


 248 0023 8B4D24   		movl	36(%ebp), %ecx
 249 0026 8B5D28   		movl	40(%ebp), %ebx
 250 0029 668945FA 		movw	%ax, -6(%ebp)
 251 002d 668955F8 		movw	%dx, -8(%ebp)
 252 0031 884DF7   		movb	%cl, -9(%ebp)
 253 0034 885DF6   		movb	%bl, -10(%ebp)
 146:../../MMI/Resource/GIFLoader.c ****     /*----------------------------------------------------------------*/
 147:../../MMI/Resource/GIFLoader.c ****     /* Local Variables                                                */
 148:../../MMI/Resource/GIFLoader.c ****     /*----------------------------------------------------------------*/
 149:../../MMI/Resource/GIFLoader.c **** 
 150:../../MMI/Resource/GIFLoader.c ****     /*----------------------------------------------------------------*/
 151:../../MMI/Resource/GIFLoader.c ****     /* Code Body                                                      */
 152:../../MMI/Resource/GIFLoader.c ****     /*----------------------------------------------------------------*/
 153:../../MMI/Resource/GIFLoader.c ****     if (b == NULL)
 255              	LM5:
 256              	LBB2:
 257 0037 837D1000 		cmpl	$0, 16(%ebp)
 258 003b 7505     		jne	L19
 154:../../MMI/Resource/GIFLoader.c ****     {
 155:../../MMI/Resource/GIFLoader.c ****         return;
 260              	LM6:
 261 003d E9950100 		jmp	L18
 261      00
 262              	L19:
 156:../../MMI/Resource/GIFLoader.c ****     }
 157:../../MMI/Resource/GIFLoader.c ****     if (transparent_GIF)
 264              	LM7:
 265 0042 807DF700 		cmpb	$0, -9(%ebp)
 266 0046 0F84CD00 		je	L20
 266      0000
 158:../../MMI/Resource/GIFLoader.c ****     {
 159:../../MMI/Resource/GIFLoader.c ****         {
 160:../../MMI/Resource/GIFLoader.c ****             S32 i;
 161:../../MMI/Resource/GIFLoader.c ****             U8 color_index;
 162:../../MMI/Resource/GIFLoader.c ****             U32 offset = (y + iy) * b->xsize + ix;
 268              	LM8:
 269              	LBB3:
 270 004c 0FBF45F8 		movswl	-8(%ebp),%eax
 271 0050 89C2     		movl	%eax, %edx
 272 0052 03550C   		addl	12(%ebp), %edx
 273 0055 8B4510   		movl	16(%ebp), %eax
 274 0058 0FAF10   		imull	(%eax), %edx
 275 005b 89D0     		movl	%edx, %eax
 276 005d 034508   		addl	8(%ebp), %eax
 277 0060 8945E8   		movl	%eax, -24(%ebp)
 163:../../MMI/Resource/GIFLoader.c ****             U16 *bitmap_data = (U16*) b->data;
 279              	LM9:
 280 0063 8B4510   		movl	16(%ebp), %eax
 281 0066 8B4014   		movl	20(%eax), %eax
 282 0069 8945E4   		movl	%eax, -28(%ebp)
 164:../../MMI/Resource/GIFLoader.c ****             U16 d;
 165:../../MMI/Resource/GIFLoader.c **** 
 166:../../MMI/Resource/GIFLoader.c ****             for (i = 0; i < length; i++)
 284              	LM10:
 285 006c C745F000 		movl	$0, -16(%ebp)
 285      000000
 286              	L21:
GAS LISTING f:/K7_TOUR/CODE/plutommi/Customer/ResGenerator/gcctmp/ccmebaaa.s 			page 5


 287 0073 0FBF45FA 		movswl	-6(%ebp),%eax
 288 0077 3945F0   		cmpl	%eax, -16(%ebp)
 289 007a 7C05     		jl	L24
 290 007c E9560100 		jmp	L18
 290      00
 291              	L24:
 167:../../MMI/Resource/GIFLoader.c ****             {
 168:../../MMI/Resource/GIFLoader.c ****                 color_index = (U8) buffer[i];
 293              	LM11:
 294 0081 8B45F0   		movl	-16(%ebp), %eax
 295 0084 034514   		addl	20(%ebp), %eax
 296 0087 0FB600   		movzbl	(%eax), %eax
 297 008a 8845EF   		movb	%al, -17(%ebp)
 169:../../MMI/Resource/GIFLoader.c ****                 d = MMI_RGB_TO_HW_FORMAT(palette[color_index][0], palette[color_index][1], palette[
 299              	LM12:
 300 008d 0FB655EF 		movzbl	-17(%ebp), %edx
 301 0091 89D0     		movl	%edx, %eax
 302 0093 01C0     		addl	%eax, %eax
 303 0095 01D0     		addl	%edx, %eax
 304 0097 034520   		addl	32(%ebp), %eax
 305 009a 83C002   		addl	$2, %eax
 306 009d 0FB600   		movzbl	(%eax), %eax
 307 00a0 25F80000 		andl	$248, %eax
 307      00
 308 00a5 89C1     		movl	%eax, %ecx
 309 00a7 C1F903   		sarl	$3, %ecx
 310 00aa 0FB655EF 		movzbl	-17(%ebp), %edx
 311 00ae 89D0     		movl	%edx, %eax
 312 00b0 01C0     		addl	%eax, %eax
 313 00b2 01D0     		addl	%edx, %eax
 314 00b4 034520   		addl	32(%ebp), %eax
 315 00b7 40       		incl	%eax
 316 00b8 0FB600   		movzbl	(%eax), %eax
 317 00bb 25FC0000 		andl	$252, %eax
 317      00
 318 00c0 C1E003   		sall	$3, %eax
 319 00c3 89CA     		movl	%ecx, %edx
 320 00c5 89D1     		movl	%edx, %ecx
 321 00c7 09C1     		orl	%eax, %ecx
 322 00c9 0FB655EF 		movzbl	-17(%ebp), %edx
 323 00cd 89D0     		movl	%edx, %eax
 324 00cf 01C0     		addl	%eax, %eax
 325 00d1 01D0     		addl	%edx, %eax
 326 00d3 8B5520   		movl	32(%ebp), %edx
 327 00d6 0FB60402 		movzbl	(%edx,%eax), %eax
 328 00da 25F80000 		andl	$248, %eax
 328      00
 329 00df C1E008   		sall	$8, %eax
 330 00e2 89CA     		movl	%ecx, %edx
 331 00e4 09D0     		orl	%edx, %eax
 332 00e6 668945E2 		movw	%ax, -30(%ebp)
 170:../../MMI/Resource/GIFLoader.c ****                 if (color_index == transparent_color_index)
 334              	LM13:
 335 00ea 0FB645EF 		movzbl	-17(%ebp), %eax
 336 00ee 3A45F6   		cmpb	-10(%ebp), %al
 337 00f1 7506     		jne	L25
 171:../../MMI/Resource/GIFLoader.c ****                 {
GAS LISTING f:/K7_TOUR/CODE/plutommi/Customer/ResGenerator/gcctmp/ccmebaaa.s 			page 6


 172:../../MMI/Resource/GIFLoader.c ****                     SET_RGB_TRANSPARENT_COLOR_16(d);
 339              	LM14:
 340 00f3 66C745E2 		movw	$4660, -30(%ebp)
 340      3412
 341              	L25:
 173:../../MMI/Resource/GIFLoader.c ****                 }
 174:../../MMI/Resource/GIFLoader.c ****                 bitmap_data[offset++] = d;
 343              	LM15:
 344 00f9 8B45E8   		movl	-24(%ebp), %eax
 345 00fc 8D0C00   		leal	(%eax,%eax), %ecx
 346 00ff 8B55E4   		movl	-28(%ebp), %edx
 347 0102 0FB745E2 		movzwl	-30(%ebp), %eax
 348 0106 6689040A 		movw	%ax, (%edx,%ecx)
 349 010a 8D45E8   		leal	-24(%ebp), %eax
 350 010d FF00     		incl	(%eax)
 352              	LM16:
 353 010f 8D45F0   		leal	-16(%ebp), %eax
 354 0112 FF00     		incl	(%eax)
 355 0114 E95AFFFF 		jmp	L21
 355      FF
 356              	L20:
 175:../../MMI/Resource/GIFLoader.c ****             }
 176:../../MMI/Resource/GIFLoader.c ****         }
 177:../../MMI/Resource/GIFLoader.c ****     }
 178:../../MMI/Resource/GIFLoader.c ****     else
 179:../../MMI/Resource/GIFLoader.c ****     {
 180:../../MMI/Resource/GIFLoader.c ****         {
 181:../../MMI/Resource/GIFLoader.c ****             S32 i;
 182:../../MMI/Resource/GIFLoader.c ****             U8 color_index;
 183:../../MMI/Resource/GIFLoader.c ****             U32 offset = (y + iy) * b->xsize + ix;
 358              	LM17:
 359              	LBE3:
 360              	LBB4:
 361 0119 0FBF45F8 		movswl	-8(%ebp),%eax
 362 011d 89C2     		movl	%eax, %edx
 363 011f 03550C   		addl	12(%ebp), %edx
 364 0122 8B4510   		movl	16(%ebp), %eax
 365 0125 0FAF10   		imull	(%eax), %edx
 366 0128 89D0     		movl	%edx, %eax
 367 012a 034508   		addl	8(%ebp), %eax
 368 012d 8945F0   		movl	%eax, -16(%ebp)
 184:../../MMI/Resource/GIFLoader.c ****             U16 *bitmap_data = (U16*) b->data;
 370              	LM18:
 371 0130 8B4510   		movl	16(%ebp), %eax
 372 0133 8B4014   		movl	20(%eax), %eax
 373 0136 8945E8   		movl	%eax, -24(%ebp)
 185:../../MMI/Resource/GIFLoader.c ****             U16 d;
 186:../../MMI/Resource/GIFLoader.c **** 
 187:../../MMI/Resource/GIFLoader.c ****             for (i = 0; i < length; i++)
 375              	LM19:
 376 0139 C745E400 		movl	$0, -28(%ebp)
 376      000000
 377              	L27:
 378 0140 0FBF45FA 		movswl	-6(%ebp),%eax
 379 0144 3945E4   		cmpl	%eax, -28(%ebp)
 380 0147 7C05     		jl	L30
 381 0149 E9890000 		jmp	L18
GAS LISTING f:/K7_TOUR/CODE/plutommi/Customer/ResGenerator/gcctmp/ccmebaaa.s 			page 7


 381      00
 382              	L30:
 188:../../MMI/Resource/GIFLoader.c ****             {
 189:../../MMI/Resource/GIFLoader.c ****                 color_index = (U8) buffer[i];
 384              	LM20:
 385 014e 8B45E4   		movl	-28(%ebp), %eax
 386 0151 034514   		addl	20(%ebp), %eax
 387 0154 0FB600   		movzbl	(%eax), %eax
 388 0157 8845EF   		movb	%al, -17(%ebp)
 190:../../MMI/Resource/GIFLoader.c ****                 d = MMI_RGB_TO_HW_FORMAT(palette[color_index][0], palette[color_index][1], palette[
 390              	LM21:
 391 015a 0FB655EF 		movzbl	-17(%ebp), %edx
 392 015e 89D0     		movl	%edx, %eax
 393 0160 01C0     		addl	%eax, %eax
 394 0162 01D0     		addl	%edx, %eax
 395 0164 034520   		addl	32(%ebp), %eax
 396 0167 83C002   		addl	$2, %eax
 397 016a 0FB600   		movzbl	(%eax), %eax
 398 016d 25F80000 		andl	$248, %eax
 398      00
 399 0172 89C1     		movl	%eax, %ecx
 400 0174 C1F903   		sarl	$3, %ecx
 401 0177 0FB655EF 		movzbl	-17(%ebp), %edx
 402 017b 89D0     		movl	%edx, %eax
 403 017d 01C0     		addl	%eax, %eax
 404 017f 01D0     		addl	%edx, %eax
 405 0181 034520   		addl	32(%ebp), %eax
 406 0184 40       		incl	%eax
 407 0185 0FB600   		movzbl	(%eax), %eax
 408 0188 25FC0000 		andl	$252, %eax
 408      00
 409 018d C1E003   		sall	$3, %eax
 410 0190 89CA     		movl	%ecx, %edx
 411 0192 89D1     		movl	%edx, %ecx
 412 0194 09C1     		orl	%eax, %ecx
 413 0196 0FB655EF 		movzbl	-17(%ebp), %edx
 414 019a 89D0     		movl	%edx, %eax
 415 019c 01C0     		addl	%eax, %eax
 416 019e 01D0     		addl	%edx, %eax
 417 01a0 8B5520   		movl	32(%ebp), %edx
 418 01a3 0FB60402 		movzbl	(%edx,%eax), %eax
 419 01a7 25F80000 		andl	$248, %eax
 419      00
 420 01ac C1E008   		sall	$8, %eax
 421 01af 89CA     		movl	%ecx, %edx
 422 01b1 09D0     		orl	%edx, %eax
 423 01b3 668945E2 		movw	%ax, -30(%ebp)
 191:../../MMI/Resource/GIFLoader.c ****                 bitmap_data[offset++] = d;
 425              	LM22:
 426 01b7 8B45F0   		movl	-16(%ebp), %eax
 427 01ba 8D0C00   		leal	(%eax,%eax), %ecx
 428 01bd 8B55E8   		movl	-24(%ebp), %edx
 429 01c0 0FB745E2 		movzwl	-30(%ebp), %eax
 430 01c4 6689040A 		movw	%ax, (%edx,%ecx)
 431 01c8 8D45F0   		leal	-16(%ebp), %eax
 432 01cb FF00     		incl	(%eax)
 434              	LM23:
GAS LISTING f:/K7_TOUR/CODE/plutommi/Customer/ResGenerator/gcctmp/ccmebaaa.s 			page 8


 435 01cd 8D45E4   		leal	-28(%ebp), %eax
 436 01d0 FF00     		incl	(%eax)
 437 01d2 E969FFFF 		jmp	L27
 437      FF
 192:../../MMI/Resource/GIFLoader.c ****             }
 193:../../MMI/Resource/GIFLoader.c ****         }
 194:../../MMI/Resource/GIFLoader.c ****     }
 195:../../MMI/Resource/GIFLoader.c **** }
 439              	LM24:
 440              	L18:
 441 01d7 83C41C   		addl	$28, %esp
 442 01da 5B       		popl	%ebx
 443 01db 5D       		popl	%ebp
 444 01dc C3       		ret
 445              	LBE4:
 446              	LBE2:
 465              	Lscope1:
 467              	.globl _GIF_code_mask
 468              		.data
 469              		.align 2
 470              	_GIF_code_mask:
 471 0000 0000     		.word	0
 472 0002 0100     		.word	1
 473 0004 0300     		.word	3
 474 0006 0700     		.word	7
 475 0008 0F00     		.word	15
 476 000a 1F00     		.word	31
 477 000c 3F00     		.word	63
 478 000e 7F00     		.word	127
 479 0010 FF00     		.word	255
 480 0012 FF01     		.word	511
 481 0014 FF03     		.word	1023
 482 0016 FF07     		.word	2047
 483 0018 FF0F     		.word	4095
 484 001a 00000000 		.text
 484      0000
 488              	_GIF_initialize_decoder:
 196:../../MMI/Resource/GIFLoader.c **** 
 197:../../MMI/Resource/GIFLoader.c **** #endif /* (!WINGUI_DIRECT_IMAGE_DISPLAY) */ 
 198:../../MMI/Resource/GIFLoader.c **** 
 199:../../MMI/Resource/GIFLoader.c **** #define GIF_MAX_CODES   4095
 200:../../MMI/Resource/GIFLoader.c **** 
 201:../../MMI/Resource/GIFLoader.c **** S16 GIF_current_code_size, GIF_clear_code, GIF_end_code, GIF_new_codes, GIF_top_slot, GIF_slot;
 202:../../MMI/Resource/GIFLoader.c **** S16 GIF_navailable_bytes, GIF_nbits_left, GIF_b1;
 203:../../MMI/Resource/GIFLoader.c **** U8 GIF_byte_buffer[257], *GIF_pbytes;
 204:../../MMI/Resource/GIFLoader.c **** 
 205:../../MMI/Resource/GIFLoader.c **** U16 GIF_code_mask[13] = {0x0000,
 206:../../MMI/Resource/GIFLoader.c ****     0x0001, 0x0003,
 207:../../MMI/Resource/GIFLoader.c ****     0x0007, 0x000f,
 208:../../MMI/Resource/GIFLoader.c ****     0x001f, 0x003f,
 209:../../MMI/Resource/GIFLoader.c ****     0x007f, 0x00ff,
 210:../../MMI/Resource/GIFLoader.c ****     0x01ff, 0x03ff,
 211:../../MMI/Resource/GIFLoader.c ****     0x07ff, 0x0fff
 212:../../MMI/Resource/GIFLoader.c **** };
 213:../../MMI/Resource/GIFLoader.c **** 
 214:../../MMI/Resource/GIFLoader.c **** 
 215:../../MMI/Resource/GIFLoader.c **** /*****************************************************************************
GAS LISTING f:/K7_TOUR/CODE/plutommi/Customer/ResGenerator/gcctmp/ccmebaaa.s 			page 9


 216:../../MMI/Resource/GIFLoader.c ****  * FUNCTION
 217:../../MMI/Resource/GIFLoader.c ****  *  GIF_initialize_decoder
 218:../../MMI/Resource/GIFLoader.c ****  * DESCRIPTION
 219:../../MMI/Resource/GIFLoader.c ****  *  
 220:../../MMI/Resource/GIFLoader.c ****  * PARAMETERS
 221:../../MMI/Resource/GIFLoader.c ****  *  size        [IN]        
 222:../../MMI/Resource/GIFLoader.c ****  * RETURNS
 223:../../MMI/Resource/GIFLoader.c ****  *  void
 224:../../MMI/Resource/GIFLoader.c ****  *****************************************************************************/
 225:../../MMI/Resource/GIFLoader.c **** static void GIF_initialize_decoder(S16 size)
 226:../../MMI/Resource/GIFLoader.c **** {
 490              	LM25:
 491 01dd 55       		pushl	%ebp
 492 01de 89E5     		movl	%esp, %ebp
 493 01e0 83EC04   		subl	$4, %esp
 494 01e3 8B4508   		movl	8(%ebp), %eax
 495 01e6 668945FE 		movw	%ax, -2(%ebp)
 227:../../MMI/Resource/GIFLoader.c ****     /*----------------------------------------------------------------*/
 228:../../MMI/Resource/GIFLoader.c ****     /* Local Variables                                                */
 229:../../MMI/Resource/GIFLoader.c ****     /*----------------------------------------------------------------*/
 230:../../MMI/Resource/GIFLoader.c **** 
 231:../../MMI/Resource/GIFLoader.c ****     /*----------------------------------------------------------------*/
 232:../../MMI/Resource/GIFLoader.c ****     /* Code Body                                                      */
 233:../../MMI/Resource/GIFLoader.c ****     /*----------------------------------------------------------------*/
 234:../../MMI/Resource/GIFLoader.c ****     GIF_current_code_size = (S16) (size + 1);
 497              	LM26:
 498 01ea 0FB745FE 		movzwl	-2(%ebp), %eax
 499 01ee 40       		incl	%eax
 500 01ef 66A30000 		movw	%ax, _GIF_current_code_size
 500      0000
 235:../../MMI/Resource/GIFLoader.c ****     GIF_top_slot = (S16) (1 << GIF_current_code_size);
 502              	LM27:
 503 01f5 0FBF0D00 		movswl	_GIF_current_code_size,%ecx
 503      000000
 504 01fc B8010000 		movl	$1, %eax
 504      00
 505 0201 D3E0     		sall	%cl, %eax
 506 0203 66A30000 		movw	%ax, _GIF_top_slot
 506      0000
 236:../../MMI/Resource/GIFLoader.c ****     GIF_clear_code = (S16) (1 << size);
 508              	LM28:
 509 0209 0FBF4DFE 		movswl	-2(%ebp),%ecx
 510 020d B8010000 		movl	$1, %eax
 510      00
 511 0212 D3E0     		sall	%cl, %eax
 512 0214 66A30000 		movw	%ax, _GIF_clear_code
 512      0000
 237:../../MMI/Resource/GIFLoader.c ****     GIF_end_code = (S16) (GIF_clear_code + 1);
 514              	LM29:
 515 021a 0FB70500 		movzwl	_GIF_clear_code, %eax
 515      000000
 516 0221 40       		incl	%eax
 517 0222 66A30000 		movw	%ax, _GIF_end_code
 517      0000
 238:../../MMI/Resource/GIFLoader.c ****     GIF_slot = (GIF_new_codes) = (S16) (GIF_end_code + 1);
 519              	LM30:
 520 0228 0FB70500 		movzwl	_GIF_end_code, %eax
GAS LISTING f:/K7_TOUR/CODE/plutommi/Customer/ResGenerator/gcctmp/ccmebaaa.s 			page 10


 520      000000
 521 022f 40       		incl	%eax
 522 0230 66A30000 		movw	%ax, _GIF_new_codes
 522      0000
 523 0236 66A30000 		movw	%ax, _GIF_slot
 523      0000
 239:../../MMI/Resource/GIFLoader.c ****     GIF_navailable_bytes = GIF_nbits_left = (S16) 0;
 525              	LM31:
 526 023c 66C70500 		movw	$0, _GIF_nbits_left
 526      00000000 
 526      00
 527 0245 66C70500 		movw	$0, _GIF_navailable_bytes
 527      00000000 
 527      00
 240:../../MMI/Resource/GIFLoader.c **** }
 529              	LM32:
 530 024e C9       		leave
 531 024f C3       		ret
 533              	Lscope2:
 538              	_GIF_get_next_code:
 241:../../MMI/Resource/GIFLoader.c **** 
 242:../../MMI/Resource/GIFLoader.c **** 
 243:../../MMI/Resource/GIFLoader.c **** /*****************************************************************************
 244:../../MMI/Resource/GIFLoader.c ****  * FUNCTION
 245:../../MMI/Resource/GIFLoader.c ****  *  GIF_get_next_code
 246:../../MMI/Resource/GIFLoader.c ****  * DESCRIPTION
 247:../../MMI/Resource/GIFLoader.c ****  *  
 248:../../MMI/Resource/GIFLoader.c ****  * PARAMETERS
 249:../../MMI/Resource/GIFLoader.c ****  *  file        [?]     
 250:../../MMI/Resource/GIFLoader.c ****  * RETURNS
 251:../../MMI/Resource/GIFLoader.c ****  *  
 252:../../MMI/Resource/GIFLoader.c ****  *****************************************************************************/
 253:../../MMI/Resource/GIFLoader.c **** static S16 GIF_get_next_code(bytestream *file)
 254:../../MMI/Resource/GIFLoader.c **** {
 540              	LM33:
 541 0250 55       		pushl	%ebp
 542 0251 89E5     		movl	%esp, %ebp
 543 0253 53       		pushl	%ebx
 544 0254 83EC14   		subl	$20, %esp
 255:../../MMI/Resource/GIFLoader.c ****     /*----------------------------------------------------------------*/
 256:../../MMI/Resource/GIFLoader.c ****     /* Local Variables                                                */
 257:../../MMI/Resource/GIFLoader.c ****     /*----------------------------------------------------------------*/
 258:../../MMI/Resource/GIFLoader.c ****     S16 i, x, ret;
 259:../../MMI/Resource/GIFLoader.c **** 
 260:../../MMI/Resource/GIFLoader.c ****     /*----------------------------------------------------------------*/
 261:../../MMI/Resource/GIFLoader.c ****     /* Code Body                                                      */
 262:../../MMI/Resource/GIFLoader.c ****     /*----------------------------------------------------------------*/
 263:../../MMI/Resource/GIFLoader.c ****     if (GIF_nbits_left == 0)
 546              	LM34:
 547              	LBB5:
 548 0257 66833D00 		cmpw	$0, _GIF_nbits_left
 548      00000000 
 549 025f 0F85D000 		jne	L33
 549      0000
 264:../../MMI/Resource/GIFLoader.c ****     {
 265:../../MMI/Resource/GIFLoader.c ****         if (GIF_navailable_bytes <= 0)
 551              	LM35:
GAS LISTING f:/K7_TOUR/CODE/plutommi/Customer/ResGenerator/gcctmp/ccmebaaa.s 			page 11


 552 0265 66833D00 		cmpw	$0, _GIF_navailable_bytes
 552      00000000 
 553 026d 0F8F9600 		jg	L34
 553      0000
 266:../../MMI/Resource/GIFLoader.c ****         {
 267:../../MMI/Resource/GIFLoader.c ****             GIF_pbytes = GIF_byte_buffer;
 555              	LM36:
 556 0273 C7050000 		movl	$_GIF_byte_buffer, _GIF_pbytes
 556      00000000 
 556      0000
 268:../../MMI/Resource/GIFLoader.c ****             GIF_navailable_bytes = GIF_get_byte(file);
 558              	LM37:
 559 027d 8B4508   		movl	8(%ebp), %eax
 560 0280 890424   		movl	%eax, (%esp)
 561 0283 E878FDFF 		call	_GIF_get_byte
 561      FF
 562 0288 660FB6C0 		movzbw	%al, %ax
 563 028c 66A30000 		movw	%ax, _GIF_navailable_bytes
 563      0000
 269:../../MMI/Resource/GIFLoader.c ****             if (GIF_navailable_bytes < 0)
 565              	LM38:
 566 0292 66833D00 		cmpw	$0, _GIF_navailable_bytes
 566      00000000 
 567 029a 790F     		jns	L35
 270:../../MMI/Resource/GIFLoader.c ****             {
 271:../../MMI/Resource/GIFLoader.c ****                 return (GIF_navailable_bytes);
 569              	LM39:
 570 029c 0FBF0500 		movswl	_GIF_navailable_bytes,%eax
 570      000000
 571 02a3 8945F0   		movl	%eax, -16(%ebp)
 572 02a6 E9EE0100 		jmp	L32
 572      00
 573              	L35:
 272:../../MMI/Resource/GIFLoader.c ****             }
 273:../../MMI/Resource/GIFLoader.c ****             else if (GIF_navailable_bytes > 0)
 575              	LM40:
 576 02ab 66833D00 		cmpw	$0, _GIF_navailable_bytes
 576      00000000 
 577 02b3 7E54     		jle	L34
 274:../../MMI/Resource/GIFLoader.c ****             {
 275:../../MMI/Resource/GIFLoader.c ****                 for (i = 0; i < GIF_navailable_bytes; i++)
 579              	LM41:
 580 02b5 66C745FA 		movw	$0, -6(%ebp)
 580      0000
 581              	L38:
 582 02bb 0FB745FA 		movzwl	-6(%ebp), %eax
 583 02bf 663B0500 		cmpw	_GIF_navailable_bytes, %ax
 583      000000
 584 02c6 7C02     		jl	L41
 585 02c8 EB3F     		jmp	L34
 586              	L41:
 276:../../MMI/Resource/GIFLoader.c ****                 {
 277:../../MMI/Resource/GIFLoader.c ****                     x = GIF_get_byte(file);
 588              	LM42:
 589 02ca 8B4508   		movl	8(%ebp), %eax
 590 02cd 890424   		movl	%eax, (%esp)
 591 02d0 E82BFDFF 		call	_GIF_get_byte
GAS LISTING f:/K7_TOUR/CODE/plutommi/Customer/ResGenerator/gcctmp/ccmebaaa.s 			page 12


 591      FF
 592 02d5 660FB6C0 		movzbw	%al, %ax
 593 02d9 668945F8 		movw	%ax, -8(%ebp)
 278:../../MMI/Resource/GIFLoader.c ****                     if (x < 0)
 595              	LM43:
 596 02dd 66837DF8 		cmpw	$0, -8(%ebp)
 596      00
 597 02e2 790C     		jns	L42
 279:../../MMI/Resource/GIFLoader.c ****                     {
 280:../../MMI/Resource/GIFLoader.c ****                         return (x);
 599              	LM44:
 600 02e4 0FBF45F8 		movswl	-8(%ebp),%eax
 601 02e8 8945F0   		movl	%eax, -16(%ebp)
 602 02eb E9A90100 		jmp	L32
 602      00
 603              	L42:
 281:../../MMI/Resource/GIFLoader.c ****                     }
 282:../../MMI/Resource/GIFLoader.c ****                     GIF_byte_buffer[i] = (U8) x;
 605              	LM45:
 606 02f0 0FBF55FA 		movswl	-6(%ebp),%edx
 607 02f4 0FB645F8 		movzbl	-8(%ebp), %eax
 608 02f8 88820000 		movb	%al, _GIF_byte_buffer(%edx)
 608      0000
 610              	LM46:
 611 02fe 0FB745FA 		movzwl	-6(%ebp), %eax
 612 0302 40       		incl	%eax
 613 0303 668945FA 		movw	%ax, -6(%ebp)
 614 0307 EBB2     		jmp	L38
 615              	L34:
 283:../../MMI/Resource/GIFLoader.c ****                 }
 284:../../MMI/Resource/GIFLoader.c ****             }
 285:../../MMI/Resource/GIFLoader.c ****         }
 286:../../MMI/Resource/GIFLoader.c ****         GIF_b1 = *GIF_pbytes++;
 617              	LM47:
 618 0309 A1000000 		movl	_GIF_pbytes, %eax
 618      00
 619 030e 660FB600 		movzbw	(%eax), %ax
 620 0312 66A30000 		movw	%ax, _GIF_b1
 620      0000
 621 0318 FF050000 		incl	_GIF_pbytes
 621      0000
 287:../../MMI/Resource/GIFLoader.c ****         GIF_nbits_left = 8;
 623              	LM48:
 624 031e 66C70500 		movw	$8, _GIF_nbits_left
 624      00000008 
 624      00
 288:../../MMI/Resource/GIFLoader.c ****         GIF_navailable_bytes--;
 626              	LM49:
 627 0327 0FB70500 		movzwl	_GIF_navailable_bytes, %eax
 627      000000
 628 032e 48       		decl	%eax
 629 032f 66A30000 		movw	%ax, _GIF_navailable_bytes
 629      0000
 630              	L33:
 289:../../MMI/Resource/GIFLoader.c ****     }
 290:../../MMI/Resource/GIFLoader.c ****     ret = (S16) (GIF_b1 >> (8 - GIF_nbits_left));
 632              	LM50:
GAS LISTING f:/K7_TOUR/CODE/plutommi/Customer/ResGenerator/gcctmp/ccmebaaa.s 			page 13


 633 0335 0FBF1D00 		movswl	_GIF_b1,%ebx
 633      000000
 634 033c 0FBF1500 		movswl	_GIF_nbits_left,%edx
 634      000000
 635 0343 B8080000 		movl	$8, %eax
 635      00
 636 0348 89C1     		movl	%eax, %ecx
 637 034a 29D1     		subl	%edx, %ecx
 638 034c 89D8     		movl	%ebx, %eax
 639 034e D3F8     		sarl	%cl, %eax
 640 0350 668945F6 		movw	%ax, -10(%ebp)
 291:../../MMI/Resource/GIFLoader.c ****     while (GIF_current_code_size > GIF_nbits_left)
 642              	LM51:
 643              	L43:
 644 0354 0FB70500 		movzwl	_GIF_current_code_size, %eax
 644      000000
 645 035b 663B0500 		cmpw	_GIF_nbits_left, %ax
 645      000000
 646 0362 7F05     		jg	L45
 647 0364 E9F60000 		jmp	L44
 647      00
 648              	L45:
 292:../../MMI/Resource/GIFLoader.c ****     {
 293:../../MMI/Resource/GIFLoader.c ****         if (GIF_navailable_bytes <= 0)
 650              	LM52:
 651 0369 66833D00 		cmpw	$0, _GIF_navailable_bytes
 651      00000000 
 652 0371 0F8F9600 		jg	L46
 652      0000
 294:../../MMI/Resource/GIFLoader.c ****         {
 295:../../MMI/Resource/GIFLoader.c ****             GIF_pbytes = GIF_byte_buffer;
 654              	LM53:
 655 0377 C7050000 		movl	$_GIF_byte_buffer, _GIF_pbytes
 655      00000000 
 655      0000
 296:../../MMI/Resource/GIFLoader.c ****             GIF_navailable_bytes = GIF_get_byte(file);
 657              	LM54:
 658 0381 8B4508   		movl	8(%ebp), %eax
 659 0384 890424   		movl	%eax, (%esp)
 660 0387 E874FCFF 		call	_GIF_get_byte
 660      FF
 661 038c 660FB6C0 		movzbw	%al, %ax
 662 0390 66A30000 		movw	%ax, _GIF_navailable_bytes
 662      0000
 297:../../MMI/Resource/GIFLoader.c ****             if (GIF_navailable_bytes < 0)
 664              	LM55:
 665 0396 66833D00 		cmpw	$0, _GIF_navailable_bytes
 665      00000000 
 666 039e 790F     		jns	L47
 298:../../MMI/Resource/GIFLoader.c ****             {
 299:../../MMI/Resource/GIFLoader.c ****                 return (GIF_navailable_bytes);
 668              	LM56:
 669 03a0 0FBF0500 		movswl	_GIF_navailable_bytes,%eax
 669      000000
 670 03a7 8945F0   		movl	%eax, -16(%ebp)
 671 03aa E9EA0000 		jmp	L32
 671      00
GAS LISTING f:/K7_TOUR/CODE/plutommi/Customer/ResGenerator/gcctmp/ccmebaaa.s 			page 14


 672              	L47:
 300:../../MMI/Resource/GIFLoader.c ****             }
 301:../../MMI/Resource/GIFLoader.c ****             else if (GIF_navailable_bytes > 0)
 674              	LM57:
 675 03af 66833D00 		cmpw	$0, _GIF_navailable_bytes
 675      00000000 
 676 03b7 7E54     		jle	L46
 302:../../MMI/Resource/GIFLoader.c ****             {
 303:../../MMI/Resource/GIFLoader.c ****                 for (i = 0; i < GIF_navailable_bytes; i++)
 678              	LM58:
 679 03b9 66C745FA 		movw	$0, -6(%ebp)
 679      0000
 680              	L50:
 681 03bf 0FB745FA 		movzwl	-6(%ebp), %eax
 682 03c3 663B0500 		cmpw	_GIF_navailable_bytes, %ax
 682      000000
 683 03ca 7C02     		jl	L53
 684 03cc EB3F     		jmp	L46
 685              	L53:
 304:../../MMI/Resource/GIFLoader.c ****                 {
 305:../../MMI/Resource/GIFLoader.c ****                     x = GIF_get_byte(file);
 687              	LM59:
 688 03ce 8B4508   		movl	8(%ebp), %eax
 689 03d1 890424   		movl	%eax, (%esp)
 690 03d4 E827FCFF 		call	_GIF_get_byte
 690      FF
 691 03d9 660FB6C0 		movzbw	%al, %ax
 692 03dd 668945F8 		movw	%ax, -8(%ebp)
 306:../../MMI/Resource/GIFLoader.c ****                     if (x < 0)
 694              	LM60:
 695 03e1 66837DF8 		cmpw	$0, -8(%ebp)
 695      00
 696 03e6 790C     		jns	L54
 307:../../MMI/Resource/GIFLoader.c ****                     {
 308:../../MMI/Resource/GIFLoader.c ****                         return (x);
 698              	LM61:
 699 03e8 0FBF45F8 		movswl	-8(%ebp),%eax
 700 03ec 8945F0   		movl	%eax, -16(%ebp)
 701 03ef E9A50000 		jmp	L32
 701      00
 702              	L54:
 309:../../MMI/Resource/GIFLoader.c ****                     }
 310:../../MMI/Resource/GIFLoader.c ****                     GIF_byte_buffer[i] = (U8) x;
 704              	LM62:
 705 03f4 0FBF55FA 		movswl	-6(%ebp),%edx
 706 03f8 0FB645F8 		movzbl	-8(%ebp), %eax
 707 03fc 88820000 		movb	%al, _GIF_byte_buffer(%edx)
 707      0000
 709              	LM63:
 710 0402 0FB745FA 		movzwl	-6(%ebp), %eax
 711 0406 40       		incl	%eax
 712 0407 668945FA 		movw	%ax, -6(%ebp)
 713 040b EBB2     		jmp	L50
 714              	L46:
 311:../../MMI/Resource/GIFLoader.c ****                 }
 312:../../MMI/Resource/GIFLoader.c ****             }
 313:../../MMI/Resource/GIFLoader.c ****         }
GAS LISTING f:/K7_TOUR/CODE/plutommi/Customer/ResGenerator/gcctmp/ccmebaaa.s 			page 15


 314:../../MMI/Resource/GIFLoader.c ****         GIF_b1 = *GIF_pbytes++;
 716              	LM64:
 717 040d A1000000 		movl	_GIF_pbytes, %eax
 717      00
 718 0412 660FB600 		movzbw	(%eax), %ax
 719 0416 66A30000 		movw	%ax, _GIF_b1
 719      0000
 720 041c FF050000 		incl	_GIF_pbytes
 720      0000
 315:../../MMI/Resource/GIFLoader.c ****         ret |= GIF_b1 << GIF_nbits_left;
 722              	LM65:
 723 0422 0FBF0500 		movswl	_GIF_b1,%eax
 723      000000
 724 0429 0FBF0D00 		movswl	_GIF_nbits_left,%ecx
 724      000000
 725 0430 D3E0     		sall	%cl, %eax
 726 0432 0FB755F6 		movzwl	-10(%ebp), %edx
 727 0436 09D0     		orl	%edx, %eax
 728 0438 668945F6 		movw	%ax, -10(%ebp)
 316:../../MMI/Resource/GIFLoader.c ****         GIF_nbits_left += 8;
 730              	LM66:
 731 043c 0FB70500 		movzwl	_GIF_nbits_left, %eax
 731      000000
 732 0443 83C008   		addl	$8, %eax
 733 0446 66A30000 		movw	%ax, _GIF_nbits_left
 733      0000
 317:../../MMI/Resource/GIFLoader.c ****         GIF_navailable_bytes--;
 735              	LM67:
 736 044c 0FB70500 		movzwl	_GIF_navailable_bytes, %eax
 736      000000
 737 0453 48       		decl	%eax
 738 0454 66A30000 		movw	%ax, _GIF_navailable_bytes
 738      0000
 739 045a E9F5FEFF 		jmp	L43
 739      FF
 740              	L44:
 318:../../MMI/Resource/GIFLoader.c ****     }
 319:../../MMI/Resource/GIFLoader.c ****     GIF_nbits_left = (S16) (GIF_nbits_left - GIF_current_code_size);
 742              	LM68:
 743 045f 0FB71500 		movzwl	_GIF_nbits_left, %edx
 743      000000
 744 0466 0FB70500 		movzwl	_GIF_current_code_size, %eax
 744      000000
 745 046d 89D1     		movl	%edx, %ecx
 746 046f 29C1     		subl	%eax, %ecx
 747 0471 89C8     		movl	%ecx, %eax
 748 0473 66A30000 		movw	%ax, _GIF_nbits_left
 748      0000
 320:../../MMI/Resource/GIFLoader.c ****     ret &= GIF_code_mask[GIF_current_code_size];
 750              	LM69:
 751 0479 0FBF0500 		movswl	_GIF_current_code_size,%eax
 751      000000
 752 0480 0FB755F6 		movzwl	-10(%ebp), %edx
 753 0484 0FB78400 		movzwl	_GIF_code_mask(%eax,%eax), %eax
 753      00000000 
 754 048c 21D0     		andl	%edx, %eax
 755 048e 668945F6 		movw	%ax, -10(%ebp)
GAS LISTING f:/K7_TOUR/CODE/plutommi/Customer/ResGenerator/gcctmp/ccmebaaa.s 			page 16


 321:../../MMI/Resource/GIFLoader.c ****     return (ret);
 757              	LM70:
 758 0492 0FBF45F6 		movswl	-10(%ebp),%eax
 759 0496 8945F0   		movl	%eax, -16(%ebp)
 322:../../MMI/Resource/GIFLoader.c **** }
 761              	LM71:
 762              	L32:
 763              	LBE5:
 764 0499 8B45F0   		movl	-16(%ebp), %eax
 765 049c 83C414   		addl	$20, %esp
 766 049f 5B       		popl	%ebx
 767 04a0 5D       		popl	%ebp
 768 04a1 C3       		ret
 774              	Lscope3:
 781              	_GIF_interlace_pass:
 323:../../MMI/Resource/GIFLoader.c **** 
 324:../../MMI/Resource/GIFLoader.c **** S16 GIF_stack[GIF_MAX_CODES + 1];
 325:../../MMI/Resource/GIFLoader.c **** S16 GIF_suffix[GIF_MAX_CODES + 1];
 326:../../MMI/Resource/GIFLoader.c **** S16 GIF_prefix[GIF_MAX_CODES + 1];
 327:../../MMI/Resource/GIFLoader.c **** 
 328:../../MMI/Resource/GIFLoader.c **** 
 329:../../MMI/Resource/GIFLoader.c **** /*****************************************************************************
 330:../../MMI/Resource/GIFLoader.c ****  * FUNCTION
 331:../../MMI/Resource/GIFLoader.c ****  *  GIF_interlace_pass
 332:../../MMI/Resource/GIFLoader.c ****  * DESCRIPTION
 333:../../MMI/Resource/GIFLoader.c ****  *  
 334:../../MMI/Resource/GIFLoader.c ****  * PARAMETERS
 335:../../MMI/Resource/GIFLoader.c ****  *  y           [?]         
 336:../../MMI/Resource/GIFLoader.c ****  *  pass        [?]         
 337:../../MMI/Resource/GIFLoader.c ****  *  ysize       [IN]        
 338:../../MMI/Resource/GIFLoader.c ****  * RETURNS
 339:../../MMI/Resource/GIFLoader.c ****  *  void
 340:../../MMI/Resource/GIFLoader.c ****  *****************************************************************************/
 341:../../MMI/Resource/GIFLoader.c **** static void GIF_interlace_pass(S16 *y, S16 *pass, S16 ysize)
 342:../../MMI/Resource/GIFLoader.c **** {
 783              	LM72:
 784 04a2 55       		pushl	%ebp
 785 04a3 89E5     		movl	%esp, %ebp
 786 04a5 83EC08   		subl	$8, %esp
 787 04a8 8B4510   		movl	16(%ebp), %eax
 788 04ab 668945FE 		movw	%ax, -2(%ebp)
 343:../../MMI/Resource/GIFLoader.c ****     /*----------------------------------------------------------------*/
 344:../../MMI/Resource/GIFLoader.c ****     /* Local Variables                                                */
 345:../../MMI/Resource/GIFLoader.c ****     /*----------------------------------------------------------------*/
 346:../../MMI/Resource/GIFLoader.c **** 
 347:../../MMI/Resource/GIFLoader.c ****     /*----------------------------------------------------------------*/
 348:../../MMI/Resource/GIFLoader.c ****     /* Code Body                                                      */
 349:../../MMI/Resource/GIFLoader.c ****     /*----------------------------------------------------------------*/
 350:../../MMI/Resource/GIFLoader.c ****     switch (*pass)
 790              	LM73:
 791 04af 8B450C   		movl	12(%ebp), %eax
 792 04b2 0FBF00   		movswl	(%eax),%eax
 793 04b5 8945F8   		movl	%eax, -8(%ebp)
 794 04b8 837DF801 		cmpl	$1, -8(%ebp)
 795 04bc 745C     		je	L59
 796 04be 837DF801 		cmpl	$1, -8(%ebp)
 797 04c2 7F0B     		jg	L66
GAS LISTING f:/K7_TOUR/CODE/plutommi/Customer/ResGenerator/gcctmp/ccmebaaa.s 			page 17


 798 04c4 837DF800 		cmpl	$0, -8(%ebp)
 799 04c8 741A     		je	L57
 800 04ca E9BE0000 		jmp	L55
 800      00
 801              	L66:
 802 04cf 837DF802 		cmpl	$2, -8(%ebp)
 803 04d3 7477     		je	L61
 804 04d5 837DF803 		cmpl	$3, -8(%ebp)
 805 04d9 0F849F00 		je	L63
 805      0000
 806 04df E9A90000 		jmp	L55
 806      00
 807              	L57:
 351:../../MMI/Resource/GIFLoader.c ****     {
 352:../../MMI/Resource/GIFLoader.c ****         case 0:
 353:../../MMI/Resource/GIFLoader.c ****             (*y) += 8;
 809              	LM74:
 810 04e4 8B5508   		movl	8(%ebp), %edx
 811 04e7 8B4508   		movl	8(%ebp), %eax
 812 04ea 0FB700   		movzwl	(%eax), %eax
 813 04ed 83C008   		addl	$8, %eax
 814 04f0 668902   		movw	%ax, (%edx)
 354:../../MMI/Resource/GIFLoader.c ****             if (*y >= ysize)
 816              	LM75:
 817 04f3 8B4508   		movl	8(%ebp), %eax
 818 04f6 0FB700   		movzwl	(%eax), %eax
 819 04f9 663B45FE 		cmpw	-2(%ebp), %ax
 820 04fd 0F8C8A00 		jl	L55
 820      0000
 355:../../MMI/Resource/GIFLoader.c ****             {
 356:../../MMI/Resource/GIFLoader.c ****                 *y = 4;
 822              	LM76:
 823 0503 8B4508   		movl	8(%ebp), %eax
 824 0506 66C70004 		movw	$4, (%eax)
 824      00
 357:../../MMI/Resource/GIFLoader.c ****                 (*pass)++;
 826              	LM77:
 827 050b 8B550C   		movl	12(%ebp), %edx
 828 050e 8B450C   		movl	12(%ebp), %eax
 829 0511 0FB700   		movzwl	(%eax), %eax
 830 0514 40       		incl	%eax
 831 0515 668902   		movw	%ax, (%edx)
 358:../../MMI/Resource/GIFLoader.c ****             }
 359:../../MMI/Resource/GIFLoader.c ****             break;
 833              	LM78:
 834 0518 EB73     		jmp	L55
 835              	L59:
 360:../../MMI/Resource/GIFLoader.c ****         case 1:
 361:../../MMI/Resource/GIFLoader.c ****             (*y) += 8;
 837              	LM79:
 838 051a 8B5508   		movl	8(%ebp), %edx
 839 051d 8B4508   		movl	8(%ebp), %eax
 840 0520 0FB700   		movzwl	(%eax), %eax
 841 0523 83C008   		addl	$8, %eax
 842 0526 668902   		movw	%ax, (%edx)
 362:../../MMI/Resource/GIFLoader.c ****             if (*y >= ysize)
 844              	LM80:
GAS LISTING f:/K7_TOUR/CODE/plutommi/Customer/ResGenerator/gcctmp/ccmebaaa.s 			page 18


 845 0529 8B4508   		movl	8(%ebp), %eax
 846 052c 0FB700   		movzwl	(%eax), %eax
 847 052f 663B45FE 		cmpw	-2(%ebp), %ax
 848 0533 7C58     		jl	L55
 363:../../MMI/Resource/GIFLoader.c ****             {
 364:../../MMI/Resource/GIFLoader.c ****                 *y = 2;
 850              	LM81:
 851 0535 8B4508   		movl	8(%ebp), %eax
 852 0538 66C70002 		movw	$2, (%eax)
 852      00
 365:../../MMI/Resource/GIFLoader.c ****                 (*pass)++;
 854              	LM82:
 855 053d 8B550C   		movl	12(%ebp), %edx
 856 0540 8B450C   		movl	12(%ebp), %eax
 857 0543 0FB700   		movzwl	(%eax), %eax
 858 0546 40       		incl	%eax
 859 0547 668902   		movw	%ax, (%edx)
 366:../../MMI/Resource/GIFLoader.c ****             }
 367:../../MMI/Resource/GIFLoader.c ****             break;
 861              	LM83:
 862 054a EB41     		jmp	L55
 863              	L61:
 368:../../MMI/Resource/GIFLoader.c ****         case 2:
 369:../../MMI/Resource/GIFLoader.c ****             (*y) += 4;
 865              	LM84:
 866 054c 8B5508   		movl	8(%ebp), %edx
 867 054f 8B4508   		movl	8(%ebp), %eax
 868 0552 0FB700   		movzwl	(%eax), %eax
 869 0555 83C004   		addl	$4, %eax
 870 0558 668902   		movw	%ax, (%edx)
 370:../../MMI/Resource/GIFLoader.c ****             if (*y >= ysize)
 872              	LM85:
 873 055b 8B4508   		movl	8(%ebp), %eax
 874 055e 0FB700   		movzwl	(%eax), %eax
 875 0561 663B45FE 		cmpw	-2(%ebp), %ax
 876 0565 7C26     		jl	L55
 371:../../MMI/Resource/GIFLoader.c ****             {
 372:../../MMI/Resource/GIFLoader.c ****                 *y = 1;
 878              	LM86:
 879 0567 8B4508   		movl	8(%ebp), %eax
 880 056a 66C70001 		movw	$1, (%eax)
 880      00
 373:../../MMI/Resource/GIFLoader.c ****                 (*pass)++;
 882              	LM87:
 883 056f 8B550C   		movl	12(%ebp), %edx
 884 0572 8B450C   		movl	12(%ebp), %eax
 885 0575 0FB700   		movzwl	(%eax), %eax
 886 0578 40       		incl	%eax
 887 0579 668902   		movw	%ax, (%edx)
 374:../../MMI/Resource/GIFLoader.c ****             }
 375:../../MMI/Resource/GIFLoader.c ****             break;
 889              	LM88:
 890 057c EB0F     		jmp	L55
 891              	L63:
 376:../../MMI/Resource/GIFLoader.c ****         case 3:
 377:../../MMI/Resource/GIFLoader.c ****             (*y) += 2;
 893              	LM89:
GAS LISTING f:/K7_TOUR/CODE/plutommi/Customer/ResGenerator/gcctmp/ccmebaaa.s 			page 19


 894 057e 8B5508   		movl	8(%ebp), %edx
 895 0581 8B4508   		movl	8(%ebp), %eax
 896 0584 0FB700   		movzwl	(%eax), %eax
 897 0587 83C002   		addl	$2, %eax
 898 058a 668902   		movw	%ax, (%edx)
 378:../../MMI/Resource/GIFLoader.c ****             break;
 379:../../MMI/Resource/GIFLoader.c ****     }
 380:../../MMI/Resource/GIFLoader.c **** }
 900              	LM90:
 901              	L55:
 902 058d C9       		leave
 903 058e C3       		ret
 905              	Lscope4:
 919              	_GIF_decoder:
 381:../../MMI/Resource/GIFLoader.c **** 
 382:../../MMI/Resource/GIFLoader.c **** // #if(!WINGUI_DIRECT_IMAGE_DISPLAY)
 383:../../MMI/Resource/GIFLoader.c **** 
 384:../../MMI/Resource/GIFLoader.c **** 
 385:../../MMI/Resource/GIFLoader.c **** /*****************************************************************************
 386:../../MMI/Resource/GIFLoader.c ****  * FUNCTION
 387:../../MMI/Resource/GIFLoader.c ****  *  GIF_decoder
 388:../../MMI/Resource/GIFLoader.c ****  * DESCRIPTION
 389:../../MMI/Resource/GIFLoader.c ****  *  
 390:../../MMI/Resource/GIFLoader.c ****  * PARAMETERS
 391:../../MMI/Resource/GIFLoader.c ****  *  ix                          [IN]        
 392:../../MMI/Resource/GIFLoader.c ****  *  iy                          [IN]        
 393:../../MMI/Resource/GIFLoader.c ****  *  file                        [?]         
 394:../../MMI/Resource/GIFLoader.c ****  *  b                           [?]         
 395:../../MMI/Resource/GIFLoader.c ****  *  xsize                       [IN]        
 396:../../MMI/Resource/GIFLoader.c ****  *  ysize                       [IN]        
 397:../../MMI/Resource/GIFLoader.c ****  *  interlaced                  [IN]        
 398:../../MMI/Resource/GIFLoader.c ****  *  palette                     [?]         
 399:../../MMI/Resource/GIFLoader.c ****  *  transparent_GIF             [IN]        
 400:../../MMI/Resource/GIFLoader.c ****  *  transparent_color_index     [IN]        
 401:../../MMI/Resource/GIFLoader.c ****  * RETURNS
 402:../../MMI/Resource/GIFLoader.c ****  *  void
 403:../../MMI/Resource/GIFLoader.c ****  *****************************************************************************/
 404:../../MMI/Resource/GIFLoader.c **** static void GIF_decoder(
 405:../../MMI/Resource/GIFLoader.c ****         S32 ix,
 406:../../MMI/Resource/GIFLoader.c ****         S32 iy,
 407:../../MMI/Resource/GIFLoader.c ****         bytestream *file,
 408:../../MMI/Resource/GIFLoader.c ****         bitmap *b,
 409:../../MMI/Resource/GIFLoader.c ****         S16 xsize,
 410:../../MMI/Resource/GIFLoader.c ****         S16 ysize,
 411:../../MMI/Resource/GIFLoader.c ****         U8 interlaced,
 412:../../MMI/Resource/GIFLoader.c ****         U8 palette[][3],
 413:../../MMI/Resource/GIFLoader.c ****         U8 transparent_GIF,
 414:../../MMI/Resource/GIFLoader.c ****         U8 transparent_color_index)
 415:../../MMI/Resource/GIFLoader.c **** {
 921              	LM91:
 922 058f 55       		pushl	%ebp
 923 0590 89E5     		movl	%esp, %ebp
 924 0592 56       		pushl	%esi
 925 0593 53       		pushl	%ebx
 926 0594 81EC6004 		subl	$1120, %esp
 926      0000
 927 059a 8B4518   		movl	24(%ebp), %eax
GAS LISTING f:/K7_TOUR/CODE/plutommi/Customer/ResGenerator/gcctmp/ccmebaaa.s 			page 20


 928 059d 8B551C   		movl	28(%ebp), %edx
 929 05a0 8B4D20   		movl	32(%ebp), %ecx
 930 05a3 8B5D28   		movl	40(%ebp), %ebx
 931 05a6 8B752C   		movl	44(%ebp), %esi
 932 05a9 668945F6 		movw	%ax, -10(%ebp)
 933 05ad 668955F4 		movw	%dx, -12(%ebp)
 934 05b1 884DF3   		movb	%cl, -13(%ebp)
 935 05b4 885DF2   		movb	%bl, -14(%ebp)
 936 05b7 89F0     		movl	%esi, %eax
 937 05b9 8845F1   		movb	%al, -15(%ebp)
 416:../../MMI/Resource/GIFLoader.c ****     /*----------------------------------------------------------------*/
 417:../../MMI/Resource/GIFLoader.c ****     /* Local Variables                                                */
 418:../../MMI/Resource/GIFLoader.c ****     /*----------------------------------------------------------------*/
 419:../../MMI/Resource/GIFLoader.c ****     S16 *stack_pointer;
 420:../../MMI/Resource/GIFLoader.c ****     U8 *buffer_pointer;
 421:../../MMI/Resource/GIFLoader.c ****     U8 *buffer;
 422:../../MMI/Resource/GIFLoader.c ****     S16 code, fc, oc, buffer_count, c, size, y = 0, pass = 0;
 939              	LM92:
 940              	LBB6:
 941 05bc 66C745D6 		movw	$0, -42(%ebp)
 941      0000
 942 05c2 66C745D4 		movw	$0, -44(%ebp)
 942      0000
 423:../../MMI/Resource/GIFLoader.c ****     U32 image_static_row_data[(IMAGE_STATIC_ROW_DATA_SIZE + 3) / 4];
 424:../../MMI/Resource/GIFLoader.c **** 
 425:../../MMI/Resource/GIFLoader.c ****     /*----------------------------------------------------------------*/
 426:../../MMI/Resource/GIFLoader.c ****     /* Code Body                                                      */
 427:../../MMI/Resource/GIFLoader.c ****     /*----------------------------------------------------------------*/
 428:../../MMI/Resource/GIFLoader.c ****     size = GIF_get_byte(file);
 944              	LM93:
 945 05c8 8B4510   		movl	16(%ebp), %eax
 946 05cb 890424   		movl	%eax, (%esp)
 947 05ce E82DFAFF 		call	_GIF_get_byte
 947      FF
 948 05d3 660FB6C0 		movzbw	%al, %ax
 949 05d7 668945D8 		movw	%ax, -40(%ebp)
 429:../../MMI/Resource/GIFLoader.c ****     if (size < 0)
 951              	LM94:
 952 05db 66837DD8 		cmpw	$0, -40(%ebp)
 952      00
 953 05e0 7905     		jns	L68
 430:../../MMI/Resource/GIFLoader.c ****     {
 431:../../MMI/Resource/GIFLoader.c ****         return;
 955              	LM95:
 956 05e2 E9C70300 		jmp	L67
 956      00
 957              	L68:
 432:../../MMI/Resource/GIFLoader.c ****     }
 433:../../MMI/Resource/GIFLoader.c ****     GIF_initialize_decoder(size);
 959              	LM96:
 960 05e7 0FBF45D8 		movswl	-40(%ebp),%eax
 961 05eb 890424   		movl	%eax, (%esp)
 962 05ee E8EAFBFF 		call	_GIF_initialize_decoder
 962      FF
 434:../../MMI/Resource/GIFLoader.c ****     oc = fc = 0;
 964              	LM97:
 965 05f3 66C745E0 		movw	$0, -32(%ebp)
GAS LISTING f:/K7_TOUR/CODE/plutommi/Customer/ResGenerator/gcctmp/ccmebaaa.s 			page 21


 965      0000
 966 05f9 66C745DE 		movw	$0, -34(%ebp)
 966      0000
 435:../../MMI/Resource/GIFLoader.c ****     buffer = (U8*) image_static_row_data;
 968              	LM98:
 969 05ff 8D85C8FB 		leal	-1080(%ebp), %eax
 969      FFFF
 970 0605 8945E4   		movl	%eax, -28(%ebp)
 436:../../MMI/Resource/GIFLoader.c ****     stack_pointer = GIF_stack;
 972              	LM99:
 973 0608 C745EC00 		movl	$_GIF_stack, -20(%ebp)
 973      000000
 437:../../MMI/Resource/GIFLoader.c ****     buffer_pointer = buffer;
 975              	LM100:
 976 060f 8B45E4   		movl	-28(%ebp), %eax
 977 0612 8945E8   		movl	%eax, -24(%ebp)
 438:../../MMI/Resource/GIFLoader.c ****     buffer_count = xsize;
 979              	LM101:
 980 0615 0FB745F6 		movzwl	-10(%ebp), %eax
 981 0619 668945DC 		movw	%ax, -36(%ebp)
 439:../../MMI/Resource/GIFLoader.c ****     while ((c = GIF_get_next_code(file)) != GIF_end_code)
 983              	LM102:
 984              	L69:
 985 061d 8B4510   		movl	16(%ebp), %eax
 986 0620 890424   		movl	%eax, (%esp)
 987 0623 E828FCFF 		call	_GIF_get_next_code
 987      FF
 988 0628 668945DA 		movw	%ax, -38(%ebp)
 989 062c 0FB745DA 		movzwl	-38(%ebp), %eax
 990 0630 663B0500 		cmpw	_GIF_end_code, %ax
 990      000000
 991 0637 7505     		jne	L71
 992 0639 E9F50200 		jmp	L70
 992      00
 993              	L71:
 440:../../MMI/Resource/GIFLoader.c ****     {
 441:../../MMI/Resource/GIFLoader.c ****         if (c < 0)
 995              	LM103:
 996 063e 66837DDA 		cmpw	$0, -38(%ebp)
 996      00
 997 0643 7905     		jns	L72
 442:../../MMI/Resource/GIFLoader.c ****         {
 443:../../MMI/Resource/GIFLoader.c ****             return;
 999              	LM104:
 1000 0645 E9640300 		jmp	L67
 1000      00
 1001              	L72:
 444:../../MMI/Resource/GIFLoader.c ****         }
 445:../../MMI/Resource/GIFLoader.c ****         if (c == GIF_clear_code)
 1003              	LM105:
 1004 064a 0FB745DA 		movzwl	-38(%ebp), %eax
 1005 064e 663B0500 		cmpw	_GIF_clear_code, %ax
 1005      000000
 1006 0655 0F851E01 		jne	L73
 1006      0000
 446:../../MMI/Resource/GIFLoader.c ****         {
 447:../../MMI/Resource/GIFLoader.c ****             GIF_current_code_size = (S16) (size + 1);
GAS LISTING f:/K7_TOUR/CODE/plutommi/Customer/ResGenerator/gcctmp/ccmebaaa.s 			page 22


 1008              	LM106:
 1009 065b 8B45D8   		movl	-40(%ebp), %eax
 1010 065e 40       		incl	%eax
 1011 065f 66A30000 		movw	%ax, _GIF_current_code_size
 1011      0000
 448:../../MMI/Resource/GIFLoader.c ****             GIF_slot = GIF_new_codes;
 1013              	LM107:
 1014 0665 0FB70500 		movzwl	_GIF_new_codes, %eax
 1014      000000
 1015 066c 66A30000 		movw	%ax, _GIF_slot
 1015      0000
 449:../../MMI/Resource/GIFLoader.c ****             GIF_top_slot = (S16) (1 << GIF_current_code_size);
 1017              	LM108:
 1018 0672 0FBF0D00 		movswl	_GIF_current_code_size,%ecx
 1018      000000
 1019 0679 B8010000 		movl	$1, %eax
 1019      00
 1020 067e D3E0     		sall	%cl, %eax
 1021 0680 66A30000 		movw	%ax, _GIF_top_slot
 1021      0000
 450:../../MMI/Resource/GIFLoader.c ****             while ((c = GIF_get_next_code(file)) == GIF_clear_code);
 1023              	LM109:
 1024              	L74:
 1025 0686 8B4510   		movl	16(%ebp), %eax
 1026 0689 890424   		movl	%eax, (%esp)
 1027 068c E8BFFBFF 		call	_GIF_get_next_code
 1027      FF
 1028 0691 668945DA 		movw	%ax, -38(%ebp)
 1029 0695 0FB745DA 		movzwl	-38(%ebp), %eax
 1030 0699 663B0500 		cmpw	_GIF_clear_code, %ax
 1030      000000
 1031 06a0 74E4     		je	L74
 451:../../MMI/Resource/GIFLoader.c ****             if (c == GIF_end_code)
 1033              	LM110:
 1034 06a2 0FB745DA 		movzwl	-38(%ebp), %eax
 1035 06a6 663B0500 		cmpw	_GIF_end_code, %ax
 1035      000000
 1036 06ad 7505     		jne	L77
 452:../../MMI/Resource/GIFLoader.c ****             {
 453:../../MMI/Resource/GIFLoader.c ****                 break;
 1038              	LM111:
 1039 06af E97F0200 		jmp	L70
 1039      00
 1040              	L77:
 454:../../MMI/Resource/GIFLoader.c ****             }
 455:../../MMI/Resource/GIFLoader.c ****             if (c >= GIF_slot)
 1042              	LM112:
 1043 06b4 0FB745DA 		movzwl	-38(%ebp), %eax
 1044 06b8 663B0500 		cmpw	_GIF_slot, %ax
 1044      000000
 1045 06bf 7C06     		jl	L78
 456:../../MMI/Resource/GIFLoader.c ****             {
 457:../../MMI/Resource/GIFLoader.c ****                 c = 0;
 1047              	LM113:
 1048 06c1 66C745DA 		movw	$0, -38(%ebp)
 1048      0000
 1049              	L78:
GAS LISTING f:/K7_TOUR/CODE/plutommi/Customer/ResGenerator/gcctmp/ccmebaaa.s 			page 23


 458:../../MMI/Resource/GIFLoader.c ****             }
 459:../../MMI/Resource/GIFLoader.c ****             oc = fc = c;
 1051              	LM114:
 1052 06c7 0FB745DA 		movzwl	-38(%ebp), %eax
 1053 06cb 668945E0 		movw	%ax, -32(%ebp)
 1054 06cf 668945DE 		movw	%ax, -34(%ebp)
 460:../../MMI/Resource/GIFLoader.c ****             *buffer_pointer++ = (U8) c;
 1056              	LM115:
 1057 06d3 8B45E8   		movl	-24(%ebp), %eax
 1058 06d6 89C2     		movl	%eax, %edx
 1059 06d8 0FB645DA 		movzbl	-38(%ebp), %eax
 1060 06dc 8802     		movb	%al, (%edx)
 1061 06de 8D45E8   		leal	-24(%ebp), %eax
 1062 06e1 FF00     		incl	(%eax)
 461:../../MMI/Resource/GIFLoader.c ****             if (--buffer_count == 0)
 1064              	LM116:
 1065 06e3 8B45DC   		movl	-36(%ebp), %eax
 1066 06e6 48       		decl	%eax
 1067 06e7 668945DC 		movw	%ax, -36(%ebp)
 1068 06eb 6685C0   		testw	%ax, %ax
 1069 06ee 0F8529FF 		jne	L69
 1069      FFFF
 462:../../MMI/Resource/GIFLoader.c ****             {
 463:../../MMI/Resource/GIFLoader.c ****                 GIF_write_line(ix, iy, b, buffer, xsize, y, palette, transparent_GIF, transparent_c
 1071              	LM117:
 1072 06f4 0FB645F1 		movzbl	-15(%ebp), %eax
 1073 06f8 89442420 		movl	%eax, 32(%esp)
 1074 06fc 0FB645F2 		movzbl	-14(%ebp), %eax
 1075 0700 8944241C 		movl	%eax, 28(%esp)
 1076 0704 8B4524   		movl	36(%ebp), %eax
 1077 0707 89442418 		movl	%eax, 24(%esp)
 1078 070b 0FBF45D6 		movswl	-42(%ebp),%eax
 1079 070f 89442414 		movl	%eax, 20(%esp)
 1080 0713 0FBF45F6 		movswl	-10(%ebp),%eax
 1081 0717 89442410 		movl	%eax, 16(%esp)
 1082 071b 8B45E4   		movl	-28(%ebp), %eax
 1083 071e 8944240C 		movl	%eax, 12(%esp)
 1084 0722 8B4514   		movl	20(%ebp), %eax
 1085 0725 89442408 		movl	%eax, 8(%esp)
 1086 0729 8B450C   		movl	12(%ebp), %eax
 1087 072c 89442404 		movl	%eax, 4(%esp)
 1088 0730 8B4508   		movl	8(%ebp), %eax
 1089 0733 890424   		movl	%eax, (%esp)
 1090 0736 E8DBF8FF 		call	_GIF_write_line
 1090      FF
 464:../../MMI/Resource/GIFLoader.c ****                 if (interlaced)
 1092              	LM118:
 1093 073b 807DF300 		cmpb	$0, -13(%ebp)
 1094 073f 741C     		je	L80
 465:../../MMI/Resource/GIFLoader.c ****                 {
 466:../../MMI/Resource/GIFLoader.c ****                     GIF_interlace_pass(&y, &pass, ysize);
 1096              	LM119:
 1097 0741 0FBF45F4 		movswl	-12(%ebp),%eax
 1098 0745 89442408 		movl	%eax, 8(%esp)
 1099 0749 8D45D4   		leal	-44(%ebp), %eax
 1100 074c 89442404 		movl	%eax, 4(%esp)
 1101 0750 8D45D6   		leal	-42(%ebp), %eax
GAS LISTING f:/K7_TOUR/CODE/plutommi/Customer/ResGenerator/gcctmp/ccmebaaa.s 			page 24


 1102 0753 890424   		movl	%eax, (%esp)
 1103 0756 E847FDFF 		call	_GIF_interlace_pass
 1103      FF
 1104 075b EB09     		jmp	L81
 1105              	L80:
 467:../../MMI/Resource/GIFLoader.c ****                 }
 468:../../MMI/Resource/GIFLoader.c ****                 else
 469:../../MMI/Resource/GIFLoader.c ****                 {
 470:../../MMI/Resource/GIFLoader.c ****                     y++;
 1107              	LM120:
 1108 075d 0FB745D6 		movzwl	-42(%ebp), %eax
 1109 0761 40       		incl	%eax
 1110 0762 668945D6 		movw	%ax, -42(%ebp)
 1111              	L81:
 471:../../MMI/Resource/GIFLoader.c ****                 }
 472:../../MMI/Resource/GIFLoader.c ****                 buffer_pointer = buffer;
 1113              	LM121:
 1114 0766 8B45E4   		movl	-28(%ebp), %eax
 1115 0769 8945E8   		movl	%eax, -24(%ebp)
 473:../../MMI/Resource/GIFLoader.c ****                 buffer_count = xsize;
 1117              	LM122:
 1118 076c 0FB745F6 		movzwl	-10(%ebp), %eax
 1119 0770 668945DC 		movw	%ax, -36(%ebp)
 1120 0774 E9A4FEFF 		jmp	L69
 1120      FF
 1121              	L73:
 474:../../MMI/Resource/GIFLoader.c ****             }
 475:../../MMI/Resource/GIFLoader.c ****         }
 476:../../MMI/Resource/GIFLoader.c ****         else
 477:../../MMI/Resource/GIFLoader.c ****         {
 478:../../MMI/Resource/GIFLoader.c ****             code = c;
 1123              	LM123:
 1124 0779 0FB745DA 		movzwl	-38(%ebp), %eax
 1125 077d 668945E2 		movw	%ax, -30(%ebp)
 479:../../MMI/Resource/GIFLoader.c ****             if (code >= GIF_slot)
 1127              	LM124:
 1128 0781 0FB745E2 		movzwl	-30(%ebp), %eax
 1129 0785 663B0500 		cmpw	_GIF_slot, %ax
 1129      000000
 1130 078c 7C19     		jl	L83
 480:../../MMI/Resource/GIFLoader.c ****             {
 481:../../MMI/Resource/GIFLoader.c ****                 code = oc;
 1132              	LM125:
 1133 078e 0FB745DE 		movzwl	-34(%ebp), %eax
 1134 0792 668945E2 		movw	%ax, -30(%ebp)
 482:../../MMI/Resource/GIFLoader.c ****                 *stack_pointer++ = fc;
 1136              	LM126:
 1137 0796 8B45EC   		movl	-20(%ebp), %eax
 1138 0799 89C2     		movl	%eax, %edx
 1139 079b 8B45E0   		movl	-32(%ebp), %eax
 1140 079e 668902   		movw	%ax, (%edx)
 1141 07a1 8D45EC   		leal	-20(%ebp), %eax
 1142 07a4 830002   		addl	$2, (%eax)
 1143              	L83:
 1144 07a7 90       		nop
 483:../../MMI/Resource/GIFLoader.c ****             }
 484:../../MMI/Resource/GIFLoader.c ****             while (code >= GIF_new_codes)
GAS LISTING f:/K7_TOUR/CODE/plutommi/Customer/ResGenerator/gcctmp/ccmebaaa.s 			page 25


 1146              	LM127:
 1147              	L84:
 1148 07a8 0FB745E2 		movzwl	-30(%ebp), %eax
 1149 07ac 663B0500 		cmpw	_GIF_new_codes, %ax
 1149      000000
 1150 07b3 7D02     		jge	L86
 1151 07b5 EB2C     		jmp	L85
 1152              	L86:
 485:../../MMI/Resource/GIFLoader.c ****             {
 486:../../MMI/Resource/GIFLoader.c ****                 *stack_pointer++ = GIF_suffix[code];
 1154              	LM128:
 1155 07b7 8B45EC   		movl	-20(%ebp), %eax
 1156 07ba 89C2     		movl	%eax, %edx
 1157 07bc 0FBF45E2 		movswl	-30(%ebp),%eax
 1158 07c0 0FB78400 		movzwl	_GIF_suffix(%eax,%eax), %eax
 1158      00000000 
 1159 07c8 668902   		movw	%ax, (%edx)
 1160 07cb 8D45EC   		leal	-20(%ebp), %eax
 1161 07ce 830002   		addl	$2, (%eax)
 487:../../MMI/Resource/GIFLoader.c ****                 code = GIF_prefix[code];
 1163              	LM129:
 1164 07d1 0FBF45E2 		movswl	-30(%ebp),%eax
 1165 07d5 0FB78400 		movzwl	_GIF_prefix(%eax,%eax), %eax
 1165      00000000 
 1166 07dd 668945E2 		movw	%ax, -30(%ebp)
 1167 07e1 EBC5     		jmp	L84
 1168              	L85:
 488:../../MMI/Resource/GIFLoader.c ****             }
 489:../../MMI/Resource/GIFLoader.c ****             *stack_pointer++ = code;
 1170              	LM130:
 1171 07e3 8B45EC   		movl	-20(%ebp), %eax
 1172 07e6 89C2     		movl	%eax, %edx
 1173 07e8 0FB745E2 		movzwl	-30(%ebp), %eax
 1174 07ec 668902   		movw	%ax, (%edx)
 1175 07ef 8D45EC   		leal	-20(%ebp), %eax
 1176 07f2 830002   		addl	$2, (%eax)
 490:../../MMI/Resource/GIFLoader.c ****             if (GIF_slot < GIF_top_slot)
 1178              	LM131:
 1179 07f5 0FB70500 		movzwl	_GIF_slot, %eax
 1179      000000
 1180 07fc 663B0500 		cmpw	_GIF_top_slot, %ax
 1180      000000
 1181 0803 7D3E     		jge	L87
 491:../../MMI/Resource/GIFLoader.c ****             {
 492:../../MMI/Resource/GIFLoader.c ****                 GIF_suffix[GIF_slot] = fc = code;
 1183              	LM132:
 1184 0805 0FBF1500 		movswl	_GIF_slot,%edx
 1184      000000
 1185 080c 0FB745E2 		movzwl	-30(%ebp), %eax
 1186 0810 668945E0 		movw	%ax, -32(%ebp)
 1187 0814 66898412 		movw	%ax, _GIF_suffix(%edx,%edx)
 1187      00000000 
 493:../../MMI/Resource/GIFLoader.c ****                 GIF_prefix[GIF_slot++] = oc;
 1189              	LM133:
 1190 081c 0FB71500 		movzwl	_GIF_slot, %edx
 1190      000000
 1191 0823 8D4201   		leal	1(%edx), %eax
GAS LISTING f:/K7_TOUR/CODE/plutommi/Customer/ResGenerator/gcctmp/ccmebaaa.s 			page 26


 1192 0826 66A30000 		movw	%ax, _GIF_slot
 1192      0000
 1193 082c 0FBFD2   		movswl	%dx,%edx
 1194 082f 0FB745DE 		movzwl	-34(%ebp), %eax
 1195 0833 66898412 		movw	%ax, _GIF_prefix(%edx,%edx)
 1195      00000000 
 494:../../MMI/Resource/GIFLoader.c ****                 oc = c;
 1197              	LM134:
 1198 083b 0FB745DA 		movzwl	-38(%ebp), %eax
 1199 083f 668945DE 		movw	%ax, -34(%ebp)
 1200              	L87:
 495:../../MMI/Resource/GIFLoader.c ****             }
 496:../../MMI/Resource/GIFLoader.c ****             if (GIF_slot >= GIF_top_slot)
 1202              	LM135:
 1203 0843 0FB70500 		movzwl	_GIF_slot, %eax
 1203      000000
 1204 084a 663B0500 		cmpw	_GIF_top_slot, %ax
 1204      000000
 1205 0851 7C27     		jl	L88
 497:../../MMI/Resource/GIFLoader.c ****             {
 498:../../MMI/Resource/GIFLoader.c ****                 if (GIF_current_code_size < 12)
 1207              	LM136:
 1208 0853 66833D00 		cmpw	$11, _GIF_current_code_size
 1208      0000000B 
 1209 085b 7F1D     		jg	L88
 499:../../MMI/Resource/GIFLoader.c ****                 {
 500:../../MMI/Resource/GIFLoader.c ****                     GIF_top_slot <<= 1;
 1211              	LM137:
 1212 085d 0FBF0500 		movswl	_GIF_top_slot,%eax
 1212      000000
 1213 0864 01C0     		addl	%eax, %eax
 1214 0866 66A30000 		movw	%ax, _GIF_top_slot
 1214      0000
 501:../../MMI/Resource/GIFLoader.c ****                     GIF_current_code_size++;
 1216              	LM138:
 1217 086c 0FB70500 		movzwl	_GIF_current_code_size, %eax
 1217      000000
 1218 0873 40       		incl	%eax
 1219 0874 66A30000 		movw	%ax, _GIF_current_code_size
 1219      0000
 1220              	L88:
 1221 087a 90       		nop
 502:../../MMI/Resource/GIFLoader.c ****                 }
 503:../../MMI/Resource/GIFLoader.c ****             }
 504:../../MMI/Resource/GIFLoader.c ****             while (stack_pointer > GIF_stack)
 1223              	LM139:
 1224              	L90:
 1225 087b 817DEC00 		cmpl	$_GIF_stack, -20(%ebp)
 1225      000000
 1226 0882 7705     		ja	L92
 1227 0884 E994FDFF 		jmp	L69
 1227      FF
 1228              	L92:
 505:../../MMI/Resource/GIFLoader.c ****             {
 506:../../MMI/Resource/GIFLoader.c ****                 *buffer_pointer++ = (U8) * (--stack_pointer);
 1230              	LM140:
 1231 0889 8B45E8   		movl	-24(%ebp), %eax
GAS LISTING f:/K7_TOUR/CODE/plutommi/Customer/ResGenerator/gcctmp/ccmebaaa.s 			page 27


 1232 088c 89C2     		movl	%eax, %edx
 1233 088e 8D45EC   		leal	-20(%ebp), %eax
 1234 0891 832802   		subl	$2, (%eax)
 1235 0894 8B45EC   		movl	-20(%ebp), %eax
 1236 0897 0FB600   		movzbl	(%eax), %eax
 1237 089a 8802     		movb	%al, (%edx)
 1238 089c 8D45E8   		leal	-24(%ebp), %eax
 1239 089f FF00     		incl	(%eax)
 507:../../MMI/Resource/GIFLoader.c ****                 if (--buffer_count == 0)
 1241              	LM141:
 1242 08a1 8B45DC   		movl	-36(%ebp), %eax
 1243 08a4 48       		decl	%eax
 1244 08a5 668945DC 		movw	%ax, -36(%ebp)
 1245 08a9 6685C0   		testw	%ax, %ax
 1246 08ac 75CD     		jne	L90
 508:../../MMI/Resource/GIFLoader.c ****                 {
 509:../../MMI/Resource/GIFLoader.c ****                     GIF_write_line(ix, iy, b, buffer, xsize, y, palette, transparent_GIF, transpare
 1248              	LM142:
 1249 08ae 0FB645F1 		movzbl	-15(%ebp), %eax
 1250 08b2 89442420 		movl	%eax, 32(%esp)
 1251 08b6 0FB645F2 		movzbl	-14(%ebp), %eax
 1252 08ba 8944241C 		movl	%eax, 28(%esp)
 1253 08be 8B4524   		movl	36(%ebp), %eax
 1254 08c1 89442418 		movl	%eax, 24(%esp)
 1255 08c5 0FBF45D6 		movswl	-42(%ebp),%eax
 1256 08c9 89442414 		movl	%eax, 20(%esp)
 1257 08cd 0FBF45F6 		movswl	-10(%ebp),%eax
 1258 08d1 89442410 		movl	%eax, 16(%esp)
 1259 08d5 8B45E4   		movl	-28(%ebp), %eax
 1260 08d8 8944240C 		movl	%eax, 12(%esp)
 1261 08dc 8B4514   		movl	20(%ebp), %eax
 1262 08df 89442408 		movl	%eax, 8(%esp)
 1263 08e3 8B450C   		movl	12(%ebp), %eax
 1264 08e6 89442404 		movl	%eax, 4(%esp)
 1265 08ea 8B4508   		movl	8(%ebp), %eax
 1266 08ed 890424   		movl	%eax, (%esp)
 1267 08f0 E821F7FF 		call	_GIF_write_line
 1267      FF
 510:../../MMI/Resource/GIFLoader.c ****                     if (interlaced)
 1269              	LM143:
 1270 08f5 807DF300 		cmpb	$0, -13(%ebp)
 1271 08f9 741C     		je	L94
 511:../../MMI/Resource/GIFLoader.c ****                     {
 512:../../MMI/Resource/GIFLoader.c ****                         GIF_interlace_pass(&y, &pass, ysize);
 1273              	LM144:
 1274 08fb 0FBF45F4 		movswl	-12(%ebp),%eax
 1275 08ff 89442408 		movl	%eax, 8(%esp)
 1276 0903 8D45D4   		leal	-44(%ebp), %eax
 1277 0906 89442404 		movl	%eax, 4(%esp)
 1278 090a 8D45D6   		leal	-42(%ebp), %eax
 1279 090d 890424   		movl	%eax, (%esp)
 1280 0910 E88DFBFF 		call	_GIF_interlace_pass
 1280      FF
 1281 0915 EB09     		jmp	L95
 1282              	L94:
 513:../../MMI/Resource/GIFLoader.c ****                     }
 514:../../MMI/Resource/GIFLoader.c ****                     else
GAS LISTING f:/K7_TOUR/CODE/plutommi/Customer/ResGenerator/gcctmp/ccmebaaa.s 			page 28


 515:../../MMI/Resource/GIFLoader.c ****                     {
 516:../../MMI/Resource/GIFLoader.c ****                         y++;
 1284              	LM145:
 1285 0917 0FB745D6 		movzwl	-42(%ebp), %eax
 1286 091b 40       		incl	%eax
 1287 091c 668945D6 		movw	%ax, -42(%ebp)
 1288              	L95:
 517:../../MMI/Resource/GIFLoader.c ****                     }
 518:../../MMI/Resource/GIFLoader.c ****                     buffer_pointer = buffer;
 1290              	LM146:
 1291 0920 8B45E4   		movl	-28(%ebp), %eax
 1292 0923 8945E8   		movl	%eax, -24(%ebp)
 519:../../MMI/Resource/GIFLoader.c ****                     buffer_count = xsize;
 1294              	LM147:
 1295 0926 0FB745F6 		movzwl	-10(%ebp), %eax
 1296 092a 668945DC 		movw	%ax, -36(%ebp)
 1297 092e E948FFFF 		jmp	L90
 1297      FF
 1298              	L70:
 520:../../MMI/Resource/GIFLoader.c ****                 }
 521:../../MMI/Resource/GIFLoader.c ****             }
 522:../../MMI/Resource/GIFLoader.c ****         }
 523:../../MMI/Resource/GIFLoader.c ****     }
 524:../../MMI/Resource/GIFLoader.c ****     if (buffer_count != xsize)
 1300              	LM148:
 1301 0933 8B45DC   		movl	-36(%ebp), %eax
 1302 0936 663B45F6 		cmpw	-10(%ebp), %ax
 1303 093a 7447     		je	L96
 525:../../MMI/Resource/GIFLoader.c ****     {
 526:../../MMI/Resource/GIFLoader.c ****         GIF_write_line(ix, iy, b, buffer, xsize, y, palette, transparent_GIF, transparent_color_ind
 1305              	LM149:
 1306 093c 0FB645F1 		movzbl	-15(%ebp), %eax
 1307 0940 89442420 		movl	%eax, 32(%esp)
 1308 0944 0FB645F2 		movzbl	-14(%ebp), %eax
 1309 0948 8944241C 		movl	%eax, 28(%esp)
 1310 094c 8B4524   		movl	36(%ebp), %eax
 1311 094f 89442418 		movl	%eax, 24(%esp)
 1312 0953 0FBF45D6 		movswl	-42(%ebp),%eax
 1313 0957 89442414 		movl	%eax, 20(%esp)
 1314 095b 0FBF45F6 		movswl	-10(%ebp),%eax
 1315 095f 89442410 		movl	%eax, 16(%esp)
 1316 0963 8B45E4   		movl	-28(%ebp), %eax
 1317 0966 8944240C 		movl	%eax, 12(%esp)
 1318 096a 8B4514   		movl	20(%ebp), %eax
 1319 096d 89442408 		movl	%eax, 8(%esp)
 1320 0971 8B450C   		movl	12(%ebp), %eax
 1321 0974 89442404 		movl	%eax, 4(%esp)
 1322 0978 8B4508   		movl	8(%ebp), %eax
 1323 097b 890424   		movl	%eax, (%esp)
 1324 097e E893F6FF 		call	_GIF_write_line
 1324      FF
 1325              	L96:
 527:../../MMI/Resource/GIFLoader.c ****     }
 528:../../MMI/Resource/GIFLoader.c ****     if (interlaced)
 1327              	LM150:
 1328 0983 807DF300 		cmpb	$0, -13(%ebp)
 1329 0987 741C     		je	L97
GAS LISTING f:/K7_TOUR/CODE/plutommi/Customer/ResGenerator/gcctmp/ccmebaaa.s 			page 29


 529:../../MMI/Resource/GIFLoader.c ****     {
 530:../../MMI/Resource/GIFLoader.c ****         GIF_interlace_pass(&y, &pass, ysize);
 1331              	LM151:
 1332 0989 0FBF45F4 		movswl	-12(%ebp),%eax
 1333 098d 89442408 		movl	%eax, 8(%esp)
 1334 0991 8D45D4   		leal	-44(%ebp), %eax
 1335 0994 89442404 		movl	%eax, 4(%esp)
 1336 0998 8D45D6   		leal	-42(%ebp), %eax
 1337 099b 890424   		movl	%eax, (%esp)
 1338 099e E8FFFAFF 		call	_GIF_interlace_pass
 1338      FF
 1339 09a3 EB09     		jmp	L67
 1340              	L97:
 531:../../MMI/Resource/GIFLoader.c ****     }
 532:../../MMI/Resource/GIFLoader.c ****     else
 533:../../MMI/Resource/GIFLoader.c ****     {
 534:../../MMI/Resource/GIFLoader.c ****         y++;
 1342              	LM152:
 1343 09a5 0FB745D6 		movzwl	-42(%ebp), %eax
 1344 09a9 40       		incl	%eax
 1345 09aa 668945D6 		movw	%ax, -42(%ebp)
 535:../../MMI/Resource/GIFLoader.c ****     }
 536:../../MMI/Resource/GIFLoader.c **** }
 1347              	LM153:
 1348              	L67:
 1349 09ae 81C46004 		addl	$1120, %esp
 1349      0000
 1350 09b4 5B       		popl	%ebx
 1351 09b5 5E       		popl	%esi
 1352 09b6 5D       		popl	%ebp
 1353 09b7 C3       		ret
 1354              	LBE6:
 1374              	Lscope5:
 1376              	LC0:
 1377 09b8 47494600 		.ascii "GIF\0"
 1378 09bc 8D742600 		.align 32
 1379              	LC1:
 1380 09c0 53637265 		.ascii "Screen Width=%d, Screen Height=%d\12\0"
 1380      656E2057 
 1380      69647468 
 1380      3D25642C 
 1380      20536372 
 1381 09e3 90909090 		.align 32
 1381      90909090 
 1381      90909090 
 1381      90909090 
 1381      90909090 
 1382              	LC2:
 1383 0a00 54686520 		.ascii "The image is has transparent color:\0"
 1383      696D6167 
 1383      65206973 
 1383      20686173 
 1383      20747261 
 1384              	LC3:
 1385 0a24 2825642C 		.ascii "(%d,%d,%d)\12\0"
 1385      25642C25 
 1385      64290A00 
GAS LISTING f:/K7_TOUR/CODE/plutommi/Customer/ResGenerator/gcctmp/ccmebaaa.s 			page 30


 1386              	LC4:
 1387 0a30 6E756D62 		.ascii "number of color:%d\12\0"
 1387      6572206F 
 1387      6620636F 
 1387      6C6F723A 
 1387      25640A00 
 1388              	LC5:
 1389 0a44 4E756D62 		.ascii "Number of frames:%d\12\0"
 1389      6572206F 
 1389      66206672 
 1389      616D6573 
 1389      3A25640A 
 1394              	_Load_GIF:
 537:../../MMI/Resource/GIFLoader.c **** 
 538:../../MMI/Resource/GIFLoader.c **** 
 539:../../MMI/Resource/GIFLoader.c **** /*****************************************************************************
 540:../../MMI/Resource/GIFLoader.c ****  * FUNCTION
 541:../../MMI/Resource/GIFLoader.c ****  *  Load_GIF
 542:../../MMI/Resource/GIFLoader.c ****  * DESCRIPTION
 543:../../MMI/Resource/GIFLoader.c ****  *  
 544:../../MMI/Resource/GIFLoader.c ****  * PARAMETERS
 545:../../MMI/Resource/GIFLoader.c ****  *  file                [?]     
 546:../../MMI/Resource/GIFLoader.c ****  *  total_frames        [?]     
 547:../../MMI/Resource/GIFLoader.c ****  * RETURNS
 548:../../MMI/Resource/GIFLoader.c ****  *  
 549:../../MMI/Resource/GIFLoader.c ****  *****************************************************************************/
 550:../../MMI/Resource/GIFLoader.c **** static U8 Load_GIF(bytestream *file, S32 *total_frames)
 551:../../MMI/Resource/GIFLoader.c **** {
 1396              	LM154:
 1397 0a59 55       		pushl	%ebp
 1398 0a5a 89E5     		movl	%esp, %ebp
 1399 0a5c 53       		pushl	%ebx
 1400 0a5d 81EC6403 		subl	$868, %esp
 1400      0000
 552:../../MMI/Resource/GIFLoader.c ****     /*----------------------------------------------------------------*/
 553:../../MMI/Resource/GIFLoader.c ****     /* Local Variables                                                */
 554:../../MMI/Resource/GIFLoader.c ****     /*----------------------------------------------------------------*/
 555:../../MMI/Resource/GIFLoader.c ****     S8 gif_signature[4];
 556:../../MMI/Resource/GIFLoader.c ****     S8 descriptor_flags;
 557:../../MMI/Resource/GIFLoader.c ****     S16 bits_per_pixel;
 558:../../MMI/Resource/GIFLoader.c ****     S16 i, j, ncolors;
 559:../../MMI/Resource/GIFLoader.c ****     S16 x, y, xsize, ysize;
 560:../../MMI/Resource/GIFLoader.c ****     S8 interlace = 0;
 1402              	LM155:
 1403              	LBB7:
 1404 0a63 C645E100 		movb	$0, -31(%ebp)
 561:../../MMI/Resource/GIFLoader.c ****     S8 gif_done;
 562:../../MMI/Resource/GIFLoader.c ****     S16 screen_xsize, screen_ysize;
 563:../../MMI/Resource/GIFLoader.c ****     U8 transparent_color_index = 0;
 1406              	LM156:
 1407 0a67 C645DB00 		movb	$0, -37(%ebp)
 564:../../MMI/Resource/GIFLoader.c ****     U8 transparent_GIF = 0;
 1409              	LM157:
 1410 0a6b C645DA00 		movb	$0, -38(%ebp)
 565:../../MMI/Resource/GIFLoader.c ****     U8 palette[256][3];
 566:../../MMI/Resource/GIFLoader.c ****     S16 frame_counter = 0;
 1412              	LM158:
GAS LISTING f:/K7_TOUR/CODE/plutommi/Customer/ResGenerator/gcctmp/ccmebaaa.s 			page 31


 1413 0a6f 66C785D6 		movw	$0, -810(%ebp)
 1413      FCFFFF00 
 1413      00
 567:../../MMI/Resource/GIFLoader.c ****     S16 dest_row_bytes = 0;
 1415              	LM159:
 1416 0a78 66C785D4 		movw	$0, -812(%ebp)
 1416      FCFFFF00 
 1416      00
 568:../../MMI/Resource/GIFLoader.c ****     S32 bitmap_size;
 569:../../MMI/Resource/GIFLoader.c ****     S32 first_frame_xsize = -1, first_frame_ysize = -1;
 1418              	LM160:
 1419 0a81 C785CCFC 		movl	$-1, -820(%ebp)
 1419      FFFFFFFF 
 1419      FFFF
 1420 0a8b C785C8FC 		movl	$-1, -824(%ebp)
 1420      FFFFFFFF 
 1420      FFFF
 570:../../MMI/Resource/GIFLoader.c **** 
 571:../../MMI/Resource/GIFLoader.c ****     /*----------------------------------------------------------------*/
 572:../../MMI/Resource/GIFLoader.c ****     /* Code Body                                                      */
 573:../../MMI/Resource/GIFLoader.c ****     /*----------------------------------------------------------------*/
 574:../../MMI/Resource/GIFLoader.c ****     if (file == NULL)
 1422              	LM161:
 1423 0a95 837D0800 		cmpl	$0, 8(%ebp)
 1424 0a99 750F     		jne	L100
 575:../../MMI/Resource/GIFLoader.c ****     {
 576:../../MMI/Resource/GIFLoader.c ****         return (0);
 1426              	LM162:
 1427 0a9b C785B4FC 		movl	$0, -844(%ebp)
 1427      FFFF0000 
 1427      0000
 1428 0aa5 E9970400 		jmp	L99
 1428      00
 1429              	L100:
 577:../../MMI/Resource/GIFLoader.c ****     }
 578:../../MMI/Resource/GIFLoader.c ****     /*   read the GIF file signature   */
 579:../../MMI/Resource/GIFLoader.c ****     bytestream_fseek(file, 0, SEEK_SET);
 1431              	LM163:
 1432 0aaa C7442408 		movl	$0, 8(%esp)
 1432      00000000 
 1433 0ab2 C7442404 		movl	$0, 4(%esp)
 1433      00000000 
 1434 0aba 8B4508   		movl	8(%ebp), %eax
 1435 0abd 890424   		movl	%eax, (%esp)
 1436 0ac0 E8000000 		call	_bytestream_fseek
 1436      00
 580:../../MMI/Resource/GIFLoader.c ****     bytestream_fread((U8*) gif_signature, 1, 3, file);
 1438              	LM164:
 1439 0ac5 8B4508   		movl	8(%ebp), %eax
 1440 0ac8 8944240C 		movl	%eax, 12(%esp)
 1441 0acc C7442408 		movl	$3, 8(%esp)
 1441      03000000 
 1442 0ad4 C7442404 		movl	$1, 4(%esp)
 1442      01000000 
 1443 0adc 8D45F4   		leal	-12(%ebp), %eax
 1444 0adf 890424   		movl	%eax, (%esp)
 1445 0ae2 E8000000 		call	_bytestream_fread
GAS LISTING f:/K7_TOUR/CODE/plutommi/Customer/ResGenerator/gcctmp/ccmebaaa.s 			page 32


 1445      00
 581:../../MMI/Resource/GIFLoader.c ****     gif_signature[3] = '\0';
 1447              	LM165:
 1448 0ae7 C645F700 		movb	$0, -9(%ebp)
 582:../../MMI/Resource/GIFLoader.c ****     if (strcmp((const char*)gif_signature, (const char*)"GIF"))
 1450              	LM166:
 1451 0aeb C7442404 		movl	$LC0, 4(%esp)
 1451      B8090000 
 1452 0af3 8D45F4   		leal	-12(%ebp), %eax
 1453 0af6 890424   		movl	%eax, (%esp)
 1454 0af9 E8000000 		call	_strcmp
 1454      00
 1455 0afe 85C0     		testl	%eax, %eax
 1456 0b00 740F     		je	L101
 583:../../MMI/Resource/GIFLoader.c ****     {
 584:../../MMI/Resource/GIFLoader.c ****         return (0);
 1458              	LM167:
 1459 0b02 C785B4FC 		movl	$0, -844(%ebp)
 1459      FFFF0000 
 1459      0000
 1460 0b0c E9300400 		jmp	L99
 1460      00
 1461              	L101:
 585:../../MMI/Resource/GIFLoader.c ****     }
 586:../../MMI/Resource/GIFLoader.c ****     bytestream_fseek(file, 3, SEEK_CUR);
 1463              	LM168:
 1464 0b11 C7442408 		movl	$1, 8(%esp)
 1464      01000000 
 1465 0b19 C7442404 		movl	$3, 4(%esp)
 1465      03000000 
 1466 0b21 8B4508   		movl	8(%ebp), %eax
 1467 0b24 890424   		movl	%eax, (%esp)
 1468 0b27 E8000000 		call	_bytestream_fseek
 1468      00
 587:../../MMI/Resource/GIFLoader.c ****     screen_xsize = bytestream_fgetword(file);
 1470              	LM169:
 1471 0b2c 8B4508   		movl	8(%ebp), %eax
 1472 0b2f 890424   		movl	%eax, (%esp)
 1473 0b32 E8000000 		call	_bytestream_fgetword
 1473      00
 1474 0b37 668945DE 		movw	%ax, -34(%ebp)
 588:../../MMI/Resource/GIFLoader.c ****     screen_ysize = bytestream_fgetword(file);
 1476              	LM170:
 1477 0b3b 8B4508   		movl	8(%ebp), %eax
 1478 0b3e 890424   		movl	%eax, (%esp)
 1479 0b41 E8000000 		call	_bytestream_fgetword
 1479      00
 1480 0b46 668945DC 		movw	%ax, -36(%ebp)
 589:../../MMI/Resource/GIFLoader.c ****     printf("Screen Width=%d, Screen Height=%d\n", screen_xsize, screen_ysize);
 1482              	LM171:
 1483 0b4a 0FBF45DC 		movswl	-36(%ebp),%eax
 1484 0b4e 89442408 		movl	%eax, 8(%esp)
 1485 0b52 0FBF45DE 		movswl	-34(%ebp),%eax
 1486 0b56 89442404 		movl	%eax, 4(%esp)
 1487 0b5a C70424C0 		movl	$LC1, (%esp)
 1487      090000
 1488 0b61 E8000000 		call	_printf
GAS LISTING f:/K7_TOUR/CODE/plutommi/Customer/ResGenerator/gcctmp/ccmebaaa.s 			page 33


 1488      00
 590:../../MMI/Resource/GIFLoader.c ****     descriptor_flags = bytestream_fgetbyte(file);
 1490              	LM172:
 1491 0b66 8B4508   		movl	8(%ebp), %eax
 1492 0b69 890424   		movl	%eax, (%esp)
 1493 0b6c E8000000 		call	_bytestream_fgetbyte
 1493      00
 1494 0b71 8845F3   		movb	%al, -13(%ebp)
 591:../../MMI/Resource/GIFLoader.c ****     bytestream_fseek(file, 2, SEEK_CUR);
 1496              	LM173:
 1497 0b74 C7442408 		movl	$1, 8(%esp)
 1497      01000000 
 1498 0b7c C7442404 		movl	$2, 4(%esp)
 1498      02000000 
 1499 0b84 8B4508   		movl	8(%ebp), %eax
 1500 0b87 890424   		movl	%eax, (%esp)
 1501 0b8a E8000000 		call	_bytestream_fseek
 1501      00
 592:../../MMI/Resource/GIFLoader.c ****     if (descriptor_flags & 0x80)
 1503              	LM174:
 1504 0b8f 807DF300 		cmpb	$0, -13(%ebp)
 1505 0b93 797A     		jns	L102
 593:../../MMI/Resource/GIFLoader.c ****     {
 594:../../MMI/Resource/GIFLoader.c ****         bits_per_pixel = (S16) ((descriptor_flags & 0x07) + 1);
 1507              	LM175:
 1508 0b95 660FBE45 		movsbw	-13(%ebp),%ax
 1508      F3
 1509 0b9a 83E007   		andl	$7, %eax
 1510 0b9d 40       		incl	%eax
 1511 0b9e 668945F0 		movw	%ax, -16(%ebp)
 595:../../MMI/Resource/GIFLoader.c ****         ncolors = (S16) (1 << bits_per_pixel);
 1513              	LM176:
 1514 0ba2 0FBF4DF0 		movswl	-16(%ebp),%ecx
 1515 0ba6 B8010000 		movl	$1, %eax
 1515      00
 1516 0bab D3E0     		sall	%cl, %eax
 1517 0bad 668945EA 		movw	%ax, -22(%ebp)
 596:../../MMI/Resource/GIFLoader.c ****         /*  Read the global color palette */
 597:../../MMI/Resource/GIFLoader.c ****         for (i = 0; i < ncolors; i++)
 1519              	LM177:
 1520 0bb1 66C745EE 		movw	$0, -18(%ebp)
 1520      0000
 1521              	L103:
 1522 0bb7 0FB745EE 		movzwl	-18(%ebp), %eax
 1523 0bbb 663B45EA 		cmpw	-22(%ebp), %ax
 1524 0bbf 7C02     		jl	L106
 1525 0bc1 EB4C     		jmp	L102
 1526              	L106:
 598:../../MMI/Resource/GIFLoader.c ****         {
 599:../../MMI/Resource/GIFLoader.c ****             for (j = 0; j < 3; j++)
 1528              	LM178:
 1529 0bc3 66C745EC 		movw	$0, -20(%ebp)
 1529      0000
 1530              	L107:
 1531 0bc9 66837DEC 		cmpw	$2, -20(%ebp)
 1531      02
 1532 0bce 7E02     		jle	L110
GAS LISTING f:/K7_TOUR/CODE/plutommi/Customer/ResGenerator/gcctmp/ccmebaaa.s 			page 34


 1533 0bd0 EB32     		jmp	L105
 1534              	L110:
 600:../../MMI/Resource/GIFLoader.c ****             {
 601:../../MMI/Resource/GIFLoader.c ****                 palette[i][j] = bytestream_fgetbyte(file);
 1536              	LM179:
 1537 0bd2 0FBF4DEC 		movswl	-20(%ebp),%ecx
 1538 0bd6 0FBF55EE 		movswl	-18(%ebp),%edx
 1539 0bda 89D0     		movl	%edx, %eax
 1540 0bdc 01C0     		addl	%eax, %eax
 1541 0bde 01D0     		addl	%edx, %eax
 1542 0be0 01C8     		addl	%ecx, %eax
 1543 0be2 8D55F8   		leal	-8(%ebp), %edx
 1544 0be5 01D0     		addl	%edx, %eax
 1545 0be7 8D98E0FC 		leal	-800(%eax), %ebx
 1545      FFFF
 1546 0bed 8B4508   		movl	8(%ebp), %eax
 1547 0bf0 890424   		movl	%eax, (%esp)
 1548 0bf3 E8000000 		call	_bytestream_fgetbyte
 1548      00
 1549 0bf8 8803     		movb	%al, (%ebx)
 1551              	LM180:
 1552 0bfa 8B45EC   		movl	-20(%ebp), %eax
 1553 0bfd 40       		incl	%eax
 1554 0bfe 668945EC 		movw	%ax, -20(%ebp)
 1555 0c02 EBC5     		jmp	L107
 1557              	LM181:
 1558              	L105:
 1559 0c04 0FB745EE 		movzwl	-18(%ebp), %eax
 1560 0c08 40       		incl	%eax
 1561 0c09 668945EE 		movw	%ax, -18(%ebp)
 1562 0c0d EBA8     		jmp	L103
 1563              	L102:
 602:../../MMI/Resource/GIFLoader.c ****             }
 603:../../MMI/Resource/GIFLoader.c ****         }
 604:../../MMI/Resource/GIFLoader.c ****     }
 605:../../MMI/Resource/GIFLoader.c ****     gif_done = 0;
 1565              	LM182:
 1566 0c0f C645E000 		movb	$0, -32(%ebp)
 1567              	L111:
 606:../../MMI/Resource/GIFLoader.c ****     do
 607:../../MMI/Resource/GIFLoader.c ****     {
 608:../../MMI/Resource/GIFLoader.c ****         char block_type = bytestream_fgetbyte(file);
 1569              	LM183:
 1570              	LBB8:
 1571 0c13 8B4508   		movl	8(%ebp), %eax
 1572 0c16 890424   		movl	%eax, (%esp)
 1573 0c19 E8000000 		call	_bytestream_fgetbyte
 1573      00
 1574 0c1e 8885C7FC 		movb	%al, -825(%ebp)
 1574      FFFF
 609:../../MMI/Resource/GIFLoader.c **** 
 610:../../MMI/Resource/GIFLoader.c ****         switch (block_type)
 1576              	LM184:
 1577 0c24 0FBE85C7 		movsbl	-825(%ebp),%eax
 1577      FCFFFF
 1578 0c2b 8985B0FC 		movl	%eax, -848(%ebp)
 1578      FFFF
GAS LISTING f:/K7_TOUR/CODE/plutommi/Customer/ResGenerator/gcctmp/ccmebaaa.s 			page 35


 1579 0c31 83BDB0FC 		cmpl	$44, -848(%ebp)
 1579      FFFF2C
 1580 0c38 0F848001 		je	L126
 1580      0000
 1581 0c3e 83BDB0FC 		cmpl	$44, -848(%ebp)
 1581      FFFF2C
 1582 0c45 7F1B     		jg	L143
 1583 0c47 83BDB0FC 		cmpl	$0, -848(%ebp)
 1583      FFFF00
 1584 0c4e 0F849D02 		je	L138
 1584      0000
 1585 0c54 83BDB0FC 		cmpl	$33, -848(%ebp)
 1585      FFFF21
 1586 0c5b 7417     		je	L115
 1587 0c5d E9A80200 		jmp	L113
 1587      00
 1588              	L143:
 1589 0c62 83BDB0FC 		cmpl	$59, -848(%ebp)
 1589      FFFF3B
 1590 0c69 0F849702 		je	L140
 1590      0000
 1591 0c6f E9960200 		jmp	L113
 1591      00
 1592              	L115:
 611:../../MMI/Resource/GIFLoader.c ****         {
 612:../../MMI/Resource/GIFLoader.c ****             case '!':   /* Process the GIF extension block  */
 613:../../MMI/Resource/GIFLoader.c ****             {
 614:../../MMI/Resource/GIFLoader.c ****                 S32 block_size;
 615:../../MMI/Resource/GIFLoader.c ****                 S32 i;
 616:../../MMI/Resource/GIFLoader.c ****                 U8 label = bytestream_fgetbyte(file);
 1594              	LM185:
 1595              	LBB9:
 1596 0c74 8B4508   		movl	8(%ebp), %eax
 1597 0c77 890424   		movl	%eax, (%esp)
 1598 0c7a E8000000 		call	_bytestream_fgetbyte
 1598      00
 1599 0c7f 8885BBFC 		movb	%al, -837(%ebp)
 1599      FFFF
 617:../../MMI/Resource/GIFLoader.c ****                 U8 flags, color_index;
 618:../../MMI/Resource/GIFLoader.c **** 
 619:../../MMI/Resource/GIFLoader.c ****                 if (label == 0xf9)
 1601              	LM186:
 1602 0c85 80BDBBFC 		cmpb	$-7, -837(%ebp)
 1602      FFFFF9
 1603 0c8c 0F85DA00 		jne	L119
 1603      0000
 620:../../MMI/Resource/GIFLoader.c ****                 {
 621:../../MMI/Resource/GIFLoader.c ****                     bytestream_fgetbyte(file);
 1605              	LM187:
 1606 0c92 8B4508   		movl	8(%ebp), %eax
 1607 0c95 890424   		movl	%eax, (%esp)
 1608 0c98 E8000000 		call	_bytestream_fgetbyte
 1608      00
 622:../../MMI/Resource/GIFLoader.c ****                     flags = bytestream_fgetbyte(file);
 1610              	LM188:
 1611 0c9d 8B4508   		movl	8(%ebp), %eax
 1612 0ca0 890424   		movl	%eax, (%esp)
GAS LISTING f:/K7_TOUR/CODE/plutommi/Customer/ResGenerator/gcctmp/ccmebaaa.s 			page 36


 1613 0ca3 E8000000 		call	_bytestream_fgetbyte
 1613      00
 1614 0ca8 8885BAFC 		movb	%al, -838(%ebp)
 1614      FFFF
 623:../../MMI/Resource/GIFLoader.c ****                     bytestream_fgetbyte(file);
 1616              	LM189:
 1617 0cae 8B4508   		movl	8(%ebp), %eax
 1618 0cb1 890424   		movl	%eax, (%esp)
 1619 0cb4 E8000000 		call	_bytestream_fgetbyte
 1619      00
 624:../../MMI/Resource/GIFLoader.c ****                     bytestream_fgetbyte(file);
 1621              	LM190:
 1622 0cb9 8B4508   		movl	8(%ebp), %eax
 1623 0cbc 890424   		movl	%eax, (%esp)
 1624 0cbf E8000000 		call	_bytestream_fgetbyte
 1624      00
 625:../../MMI/Resource/GIFLoader.c ****                     color_index = bytestream_fgetbyte(file);
 1626              	LM191:
 1627 0cc4 8B4508   		movl	8(%ebp), %eax
 1628 0cc7 890424   		movl	%eax, (%esp)
 1629 0cca E8000000 		call	_bytestream_fgetbyte
 1629      00
 1630 0ccf 8885B9FC 		movb	%al, -839(%ebp)
 1630      FFFF
 626:../../MMI/Resource/GIFLoader.c ****                     if (flags & 0x01)
 1632              	LM192:
 1633 0cd5 0FB685BA 		movzbl	-838(%ebp), %eax
 1633      FCFFFF
 1634 0cdc 83E001   		andl	$1, %eax
 1635 0cdf 85C0     		testl	%eax, %eax
 1636 0ce1 0F842302 		je	L113
 1636      0000
 627:../../MMI/Resource/GIFLoader.c ****                     {
 628:../../MMI/Resource/GIFLoader.c ****                         transparent_GIF = 1;
 1638              	LM193:
 1639 0ce7 C645DA01 		movb	$1, -38(%ebp)
 629:../../MMI/Resource/GIFLoader.c ****                         transparent_color_index = color_index;
 1641              	LM194:
 1642 0ceb 0FB685B9 		movzbl	-839(%ebp), %eax
 1642      FCFFFF
 1643 0cf2 8845DB   		movb	%al, -37(%ebp)
 630:../../MMI/Resource/GIFLoader.c ****                         printf("The image is has transparent color:");
 1645              	LM195:
 1646 0cf5 C7042400 		movl	$LC2, (%esp)
 1646      0A0000
 1647 0cfc E8000000 		call	_printf
 1647      00
 631:../../MMI/Resource/GIFLoader.c ****                         printf(
 1649              	LM196:
 1650 0d01 0FB695B9 		movzbl	-839(%ebp), %edx
 1650      FCFFFF
 1651 0d08 89D0     		movl	%edx, %eax
 1652 0d0a 01C0     		addl	%eax, %eax
 1653 0d0c 01D0     		addl	%edx, %eax
 1654 0d0e 8D55F8   		leal	-8(%ebp), %edx
 1655 0d11 01D0     		addl	%edx, %eax
 1656 0d13 2D1E0300 		subl	$798, %eax
GAS LISTING f:/K7_TOUR/CODE/plutommi/Customer/ResGenerator/gcctmp/ccmebaaa.s 			page 37


 1656      00
 1657 0d18 0FB600   		movzbl	(%eax), %eax
 1658 0d1b 8944240C 		movl	%eax, 12(%esp)
 1659 0d1f 0FB695B9 		movzbl	-839(%ebp), %edx
 1659      FCFFFF
 1660 0d26 89D0     		movl	%edx, %eax
 1661 0d28 01C0     		addl	%eax, %eax
 1662 0d2a 01D0     		addl	%edx, %eax
 1663 0d2c 8D55F8   		leal	-8(%ebp), %edx
 1664 0d2f 01D0     		addl	%edx, %eax
 1665 0d31 2D1F0300 		subl	$799, %eax
 1665      00
 1666 0d36 0FB600   		movzbl	(%eax), %eax
 1667 0d39 89442408 		movl	%eax, 8(%esp)
 1668 0d3d 0FB695B9 		movzbl	-839(%ebp), %edx
 1668      FCFFFF
 1669 0d44 89D0     		movl	%edx, %eax
 1670 0d46 01C0     		addl	%eax, %eax
 1671 0d48 01D0     		addl	%edx, %eax
 1672 0d4a 8D55F8   		leal	-8(%ebp), %edx
 1673 0d4d 01D0     		addl	%edx, %eax
 1674 0d4f 2D200300 		subl	$800, %eax
 1674      00
 1675 0d54 0FB600   		movzbl	(%eax), %eax
 1676 0d57 89442404 		movl	%eax, 4(%esp)
 1677 0d5b C7042424 		movl	$LC3, (%esp)
 1677      0A0000
 1678 0d62 E8000000 		call	_printf
 1678      00
 1679 0d67 E99E0100 		jmp	L113
 1679      00
 632:../../MMI/Resource/GIFLoader.c ****                             "(%d,%d,%d)\n",
 633:../../MMI/Resource/GIFLoader.c ****                             palette[color_index][0],
 634:../../MMI/Resource/GIFLoader.c ****                             palette[color_index][1],
 635:../../MMI/Resource/GIFLoader.c ****                             palette[color_index][2]);
 636:../../MMI/Resource/GIFLoader.c ****                     }
 637:../../MMI/Resource/GIFLoader.c ****                 }
 638:../../MMI/Resource/GIFLoader.c ****                 else
 639:../../MMI/Resource/GIFLoader.c ****                 {
 640:../../MMI/Resource/GIFLoader.c ****                     while ((block_size = bytestream_fgetbyte(file)) != 0)
 1681              	LM197:
 1682              	L119:
 1683 0d6c 8B4508   		movl	8(%ebp), %eax
 1684 0d6f 890424   		movl	%eax, (%esp)
 1685 0d72 E8000000 		call	_bytestream_fgetbyte
 1685      00
 1686 0d77 0FB6C0   		movzbl	%al, %eax
 1687 0d7a 8985C0FC 		movl	%eax, -832(%ebp)
 1687      FFFF
 1688 0d80 8B85C0FC 		movl	-832(%ebp), %eax
 1688      FFFF
 1689 0d86 85C0     		testl	%eax, %eax
 1690 0d88 7505     		jne	L121
 1691 0d8a E97B0100 		jmp	L113
 1691      00
 1692              	L121:
 641:../../MMI/Resource/GIFLoader.c ****                     {
GAS LISTING f:/K7_TOUR/CODE/plutommi/Customer/ResGenerator/gcctmp/ccmebaaa.s 			page 38


 642:../../MMI/Resource/GIFLoader.c ****                         for (i = 0; i < block_size; i++)
 1694              	LM198:
 1695 0d8f C785BCFC 		movl	$0, -836(%ebp)
 1695      FFFF0000 
 1695      0000
 1696              	L122:
 1697 0d99 8B85BCFC 		movl	-836(%ebp), %eax
 1697      FFFF
 1698 0d9f 3B85C0FC 		cmpl	-832(%ebp), %eax
 1698      FFFF
 1699 0da5 7C02     		jl	L125
 1700 0da7 EBC3     		jmp	L119
 1701              	L125:
 643:../../MMI/Resource/GIFLoader.c ****                         {
 644:../../MMI/Resource/GIFLoader.c ****                             bytestream_fgetbyte(file);
 1703              	LM199:
 1704 0da9 8B4508   		movl	8(%ebp), %eax
 1705 0dac 890424   		movl	%eax, (%esp)
 1706 0daf E8000000 		call	_bytestream_fgetbyte
 1706      00
 1708              	LM200:
 1709 0db4 8D85BCFC 		leal	-836(%ebp), %eax
 1709      FFFF
 1710 0dba FF00     		incl	(%eax)
 1711 0dbc EBDB     		jmp	L122
 1712              	L126:
 645:../../MMI/Resource/GIFLoader.c ****                         }
 646:../../MMI/Resource/GIFLoader.c ****                     }
 647:../../MMI/Resource/GIFLoader.c ****                 }
 648:../../MMI/Resource/GIFLoader.c ****             }
 649:../../MMI/Resource/GIFLoader.c ****                 break;
 650:../../MMI/Resource/GIFLoader.c ****             case ',':   /* Process the GIF image   */
 651:../../MMI/Resource/GIFLoader.c ****             {
 652:../../MMI/Resource/GIFLoader.c ****                 x = bytestream_fgetword(file);
 1714              	LM201:
 1715              	LBE9:
 1716 0dbe 8B4508   		movl	8(%ebp), %eax
 1717 0dc1 890424   		movl	%eax, (%esp)
 1718 0dc4 E8000000 		call	_bytestream_fgetword
 1718      00
 1719 0dc9 668945E8 		movw	%ax, -24(%ebp)
 653:../../MMI/Resource/GIFLoader.c ****                 y = bytestream_fgetword(file);
 1721              	LM202:
 1722 0dcd 8B4508   		movl	8(%ebp), %eax
 1723 0dd0 890424   		movl	%eax, (%esp)
 1724 0dd3 E8000000 		call	_bytestream_fgetword
 1724      00
 1725 0dd8 668945E6 		movw	%ax, -26(%ebp)
 654:../../MMI/Resource/GIFLoader.c ****                 xsize = bytestream_fgetword(file);
 1727              	LM203:
 1728 0ddc 8B4508   		movl	8(%ebp), %eax
 1729 0ddf 890424   		movl	%eax, (%esp)
 1730 0de2 E8000000 		call	_bytestream_fgetword
 1730      00
 1731 0de7 668945E4 		movw	%ax, -28(%ebp)
 655:../../MMI/Resource/GIFLoader.c ****                 ysize = bytestream_fgetword(file);
 1733              	LM204:
GAS LISTING f:/K7_TOUR/CODE/plutommi/Customer/ResGenerator/gcctmp/ccmebaaa.s 			page 39


 1734 0deb 8B4508   		movl	8(%ebp), %eax
 1735 0dee 890424   		movl	%eax, (%esp)
 1736 0df1 E8000000 		call	_bytestream_fgetword
 1736      00
 1737 0df6 668945E2 		movw	%ax, -30(%ebp)
 656:../../MMI/Resource/GIFLoader.c ****                 descriptor_flags = bytestream_fgetbyte(file);
 1739              	LM205:
 1740 0dfa 8B4508   		movl	8(%ebp), %eax
 1741 0dfd 890424   		movl	%eax, (%esp)
 1742 0e00 E8000000 		call	_bytestream_fgetbyte
 1742      00
 1743 0e05 8845F3   		movb	%al, -13(%ebp)
 657:../../MMI/Resource/GIFLoader.c ****                 if (descriptor_flags & 0x80)
 1745              	LM206:
 1746 0e08 807DF300 		cmpb	$0, -13(%ebp)
 1747 0e0c 0F898E00 		jns	L127
 1747      0000
 658:../../MMI/Resource/GIFLoader.c ****                 {
 659:../../MMI/Resource/GIFLoader.c ****                     bits_per_pixel = (S16) ((descriptor_flags & 0x07) + 1);
 1749              	LM207:
 1750 0e12 660FBE45 		movsbw	-13(%ebp),%ax
 1750      F3
 1751 0e17 83E007   		andl	$7, %eax
 1752 0e1a 40       		incl	%eax
 1753 0e1b 668945F0 		movw	%ax, -16(%ebp)
 660:../../MMI/Resource/GIFLoader.c ****                     ncolors = (S16) (1 << bits_per_pixel);
 1755              	LM208:
 1756 0e1f 0FBF4DF0 		movswl	-16(%ebp),%ecx
 1757 0e23 B8010000 		movl	$1, %eax
 1757      00
 1758 0e28 D3E0     		sall	%cl, %eax
 1759 0e2a 668945EA 		movw	%ax, -22(%ebp)
 661:../../MMI/Resource/GIFLoader.c ****                     /* Read the local color palette  */
 662:../../MMI/Resource/GIFLoader.c ****                     for (i = 0; i < ncolors; i++)
 1761              	LM209:
 1762 0e2e 66C745EE 		movw	$0, -18(%ebp)
 1762      0000
 1763              	L128:
 1764 0e34 0FB745EE 		movzwl	-18(%ebp), %eax
 1765 0e38 663B45EA 		cmpw	-22(%ebp), %ax
 1766 0e3c 7C02     		jl	L131
 1767 0e3e EB4C     		jmp	L129
 1768              	L131:
 663:../../MMI/Resource/GIFLoader.c ****                     {
 664:../../MMI/Resource/GIFLoader.c ****                         for (j = 0; j < 3; j++)
 1770              	LM210:
 1771 0e40 66C745EC 		movw	$0, -20(%ebp)
 1771      0000
 1772              	L132:
 1773 0e46 66837DEC 		cmpw	$2, -20(%ebp)
 1773      02
 1774 0e4b 7E02     		jle	L135
 1775 0e4d EB32     		jmp	L130
 1776              	L135:
 665:../../MMI/Resource/GIFLoader.c ****                         {
 666:../../MMI/Resource/GIFLoader.c ****                             palette[i][j] = bytestream_fgetbyte(file);
 1778              	LM211:
GAS LISTING f:/K7_TOUR/CODE/plutommi/Customer/ResGenerator/gcctmp/ccmebaaa.s 			page 40


 1779 0e4f 0FBF4DEC 		movswl	-20(%ebp),%ecx
 1780 0e53 0FBF55EE 		movswl	-18(%ebp),%edx
 1781 0e57 89D0     		movl	%edx, %eax
 1782 0e59 01C0     		addl	%eax, %eax
 1783 0e5b 01D0     		addl	%edx, %eax
 1784 0e5d 01C8     		addl	%ecx, %eax
 1785 0e5f 8D55F8   		leal	-8(%ebp), %edx
 1786 0e62 01D0     		addl	%edx, %eax
 1787 0e64 8D98E0FC 		leal	-800(%eax), %ebx
 1787      FFFF
 1788 0e6a 8B4508   		movl	8(%ebp), %eax
 1789 0e6d 890424   		movl	%eax, (%esp)
 1790 0e70 E8000000 		call	_bytestream_fgetbyte
 1790      00
 1791 0e75 8803     		movb	%al, (%ebx)
 1793              	LM212:
 1794 0e77 8B45EC   		movl	-20(%ebp), %eax
 1795 0e7a 40       		incl	%eax
 1796 0e7b 668945EC 		movw	%ax, -20(%ebp)
 1797 0e7f EBC5     		jmp	L132
 1799              	LM213:
 1800              	L130:
 1801 0e81 0FB745EE 		movzwl	-18(%ebp), %eax
 1802 0e85 40       		incl	%eax
 1803 0e86 668945EE 		movw	%ax, -18(%ebp)
 1804 0e8a EBA8     		jmp	L128
 1805              	L129:
 667:../../MMI/Resource/GIFLoader.c ****                         }
 668:../../MMI/Resource/GIFLoader.c ****                     }
 669:../../MMI/Resource/GIFLoader.c ****                     printf("number of color:%d\n", ncolors);
 1807              	LM214:
 1808 0e8c 0FBF45EA 		movswl	-22(%ebp),%eax
 1809 0e90 89442404 		movl	%eax, 4(%esp)
 1810 0e94 C7042430 		movl	$LC4, (%esp)
 1810      0A0000
 1811 0e9b E8000000 		call	_printf
 1811      00
 1812              	L127:
 670:../../MMI/Resource/GIFLoader.c ****                 }
 671:../../MMI/Resource/GIFLoader.c ****                 if (descriptor_flags & 0x40)
 1814              	LM215:
 1815 0ea0 0FBE45F3 		movsbl	-13(%ebp),%eax
 1816 0ea4 83E040   		andl	$64, %eax
 1817 0ea7 85C0     		testl	%eax, %eax
 1818 0ea9 7404     		je	L136
 672:../../MMI/Resource/GIFLoader.c ****                 {
 673:../../MMI/Resource/GIFLoader.c ****                     interlace = 1;
 1820              	LM216:
 1821 0eab C645E101 		movb	$1, -31(%ebp)
 1822              	L136:
 674:../../MMI/Resource/GIFLoader.c ****                 }
 675:../../MMI/Resource/GIFLoader.c ****                 if (first_frame_xsize < 0)
 1824              	LM217:
 1825 0eaf 83BDCCFC 		cmpl	$0, -820(%ebp)
 1825      FFFF00
 1826 0eb6 7928     		jns	L137
 676:../../MMI/Resource/GIFLoader.c ****                 {
GAS LISTING f:/K7_TOUR/CODE/plutommi/Customer/ResGenerator/gcctmp/ccmebaaa.s 			page 41


 677:../../MMI/Resource/GIFLoader.c ****                     first_frame_xsize = xsize;
 1828              	LM218:
 1829 0eb8 0FBF45E4 		movswl	-28(%ebp),%eax
 1830 0ebc 8985CCFC 		movl	%eax, -820(%ebp)
 1830      FFFF
 678:../../MMI/Resource/GIFLoader.c ****                     first_frame_ysize = ysize;
 1832              	LM219:
 1833 0ec2 0FBF45E2 		movswl	-30(%ebp),%eax
 1834 0ec6 8985C8FC 		movl	%eax, -824(%ebp)
 1834      FFFF
 679:../../MMI/Resource/GIFLoader.c ****                     bitmap_size = dest_row_bytes * ysize;
 1836              	LM220:
 1837 0ecc 0FBF95D4 		movswl	-812(%ebp),%edx
 1837      FCFFFF
 1838 0ed3 0FBF45E2 		movswl	-30(%ebp),%eax
 1839 0ed7 0FAFC2   		imull	%edx, %eax
 1840 0eda 8985D0FC 		movl	%eax, -816(%ebp)
 1840      FFFF
 1841              	L137:
 680:../../MMI/Resource/GIFLoader.c ****                 }
 681:../../MMI/Resource/GIFLoader.c ****                 //                                                      GIF_decoder(x,y,file,b,xsiz
 682:../../MMI/Resource/GIFLoader.c ****                 //                                                      if((frame_counter>=frame_nu
 683:../../MMI/Resource/GIFLoader.c ****                 frame_counter++;
 1843              	LM221:
 1844 0ee0 0FB785D6 		movzwl	-810(%ebp), %eax
 1844      FCFFFF
 1845 0ee7 40       		incl	%eax
 1846 0ee8 668985D6 		movw	%ax, -810(%ebp)
 1846      FCFFFF
 684:../../MMI/Resource/GIFLoader.c ****             }
 685:../../MMI/Resource/GIFLoader.c ****                 break;
 1848              	LM222:
 1849 0eef EB19     		jmp	L113
 1850              	L138:
 686:../../MMI/Resource/GIFLoader.c ****             case '\0':
 687:../../MMI/Resource/GIFLoader.c ****                 if (bytestream_feof(file))
 1852              	LM223:
 1853 0ef1 8B4508   		movl	8(%ebp), %eax
 1854 0ef4 890424   		movl	%eax, (%esp)
 1855 0ef7 E8000000 		call	_bytestream_feof
 1855      00
 1856 0efc 84C0     		testb	%al, %al
 1857 0efe 740A     		je	L113
 688:../../MMI/Resource/GIFLoader.c ****                 {
 689:../../MMI/Resource/GIFLoader.c ****                     gif_done = 1;
 1859              	LM224:
 1860 0f00 C645E001 		movb	$1, -32(%ebp)
 690:../../MMI/Resource/GIFLoader.c ****                 }
 691:../../MMI/Resource/GIFLoader.c ****                 break;
 1862              	LM225:
 1863 0f04 EB04     		jmp	L113
 1864              	L140:
 692:../../MMI/Resource/GIFLoader.c ****             case ';':
 693:../../MMI/Resource/GIFLoader.c ****                 gif_done = 1;
 1866              	LM226:
 1867 0f06 C645E001 		movb	$1, -32(%ebp)
 1868              	L113:
GAS LISTING f:/K7_TOUR/CODE/plutommi/Customer/ResGenerator/gcctmp/ccmebaaa.s 			page 42


 694:../../MMI/Resource/GIFLoader.c ****                 break;
 695:../../MMI/Resource/GIFLoader.c ****         }
 696:../../MMI/Resource/GIFLoader.c ****     } while (!gif_done);
 1870              	LM227:
 1871              	LBE8:
 1872 0f0a 807DE000 		cmpb	$0, -32(%ebp)
 1873 0f0e 0F84FFFC 		je	L111
 1873      FFFF
 697:../../MMI/Resource/GIFLoader.c ****     *total_frames = frame_counter;
 1875              	LM228:
 1876 0f14 8B450C   		movl	12(%ebp), %eax
 1877 0f17 0FBF95D6 		movswl	-810(%ebp),%edx
 1877      FCFFFF
 1878 0f1e 8910     		movl	%edx, (%eax)
 698:../../MMI/Resource/GIFLoader.c ****     printf("Number of frames:%d\n", frame_counter);
 1880              	LM229:
 1881 0f20 0FBF85D6 		movswl	-810(%ebp),%eax
 1881      FCFFFF
 1882 0f27 89442404 		movl	%eax, 4(%esp)
 1883 0f2b C7042444 		movl	$LC5, (%esp)
 1883      0A0000
 1884 0f32 E8000000 		call	_printf
 1884      00
 699:../../MMI/Resource/GIFLoader.c ****     return (1);
 1886              	LM230:
 1887 0f37 C785B4FC 		movl	$1, -844(%ebp)
 1887      FFFF0100 
 1887      0000
 700:../../MMI/Resource/GIFLoader.c **** }
 1889              	LM231:
 1890              	L99:
 1891              	LBE7:
 1892 0f41 8B85B4FC 		movl	-844(%ebp), %eax
 1892      FFFF
 1893 0f47 81C46403 		addl	$868, %esp
 1893      0000
 1894 0f4d 5B       		popl	%ebx
 1895 0f4e 5D       		popl	%ebp
 1896 0f4f C3       		ret
 1931              	Lscope6:
 1933              	LC6:
 1934 0f50 726200   		.ascii "rb\0"
 1935              	LC7:
 1936 0f53 0A457272 		.ascii "\12Err opening %s\0"
 1936      206F7065 
 1936      6E696E67 
 1936      20257300 
 1937 0f63 90909090 		.align 32
 1937      90909090 
 1937      90909090 
 1937      90909090 
 1937      90909090 
 1938              	LC8:
 1939 0f80 0A457272 		.ascii "\12Err allocating memory of size %d bytes\0"
 1939      20616C6C 
 1939      6F636174 
 1939      696E6720 
GAS LISTING f:/K7_TOUR/CODE/plutommi/Customer/ResGenerator/gcctmp/ccmebaaa.s 			page 43


 1939      6D656D6F 
 1943              	.globl _GIFLoader
 1945              	_GIFLoader:
 701:../../MMI/Resource/GIFLoader.c **** 
 702:../../MMI/Resource/GIFLoader.c **** #if 0
 703:../../MMI/Resource/GIFLoader.c **** /* under construction !*/
 704:../../MMI/Resource/GIFLoader.c **** /* under construction !*/
 705:../../MMI/Resource/GIFLoader.c **** /* under construction !*/
 706:../../MMI/Resource/GIFLoader.c **** /* under construction !*/
 707:../../MMI/Resource/GIFLoader.c **** /* under construction !*/
 708:../../MMI/Resource/GIFLoader.c **** /* under construction !*/
 709:../../MMI/Resource/GIFLoader.c **** /* under construction !*/
 710:../../MMI/Resource/GIFLoader.c **** /* under construction !*/
 711:../../MMI/Resource/GIFLoader.c **** /* under construction !*/
 712:../../MMI/Resource/GIFLoader.c **** /* under construction !*/
 713:../../MMI/Resource/GIFLoader.c **** /* under construction !*/
 714:../../MMI/Resource/GIFLoader.c **** /* under construction !*/
 715:../../MMI/Resource/GIFLoader.c **** /* under construction !*/
 716:../../MMI/Resource/GIFLoader.c **** /* under construction !*/
 717:../../MMI/Resource/GIFLoader.c **** /* under construction !*/
 718:../../MMI/Resource/GIFLoader.c **** /* under construction !*/
 719:../../MMI/Resource/GIFLoader.c **** /* under construction !*/
 720:../../MMI/Resource/GIFLoader.c **** /* under construction !*/
 721:../../MMI/Resource/GIFLoader.c **** /* under construction !*/
 722:../../MMI/Resource/GIFLoader.c **** /* under construction !*/
 723:../../MMI/Resource/GIFLoader.c **** /* under construction !*/
 724:../../MMI/Resource/GIFLoader.c **** /* under construction !*/
 725:../../MMI/Resource/GIFLoader.c **** /* under construction !*/
 726:../../MMI/Resource/GIFLoader.c **** /* under construction !*/
 727:../../MMI/Resource/GIFLoader.c **** /* under construction !*/
 728:../../MMI/Resource/GIFLoader.c **** /* under construction !*/
 729:../../MMI/Resource/GIFLoader.c **** /* under construction !*/
 730:../../MMI/Resource/GIFLoader.c **** /* under construction !*/
 731:../../MMI/Resource/GIFLoader.c **** /* under construction !*/
 732:../../MMI/Resource/GIFLoader.c **** /* under construction !*/
 733:../../MMI/Resource/GIFLoader.c **** /* under construction !*/
 734:../../MMI/Resource/GIFLoader.c **** /* under construction !*/
 735:../../MMI/Resource/GIFLoader.c **** /* under construction !*/
 736:../../MMI/Resource/GIFLoader.c **** /* under construction !*/
 737:../../MMI/Resource/GIFLoader.c **** /* under construction !*/
 738:../../MMI/Resource/GIFLoader.c **** /* under construction !*/
 739:../../MMI/Resource/GIFLoader.c **** /* under construction !*/
 740:../../MMI/Resource/GIFLoader.c **** /* under construction !*/
 741:../../MMI/Resource/GIFLoader.c **** /* under construction !*/
 742:../../MMI/Resource/GIFLoader.c **** /* under construction !*/
 743:../../MMI/Resource/GIFLoader.c **** /* under construction !*/
 744:../../MMI/Resource/GIFLoader.c **** /* under construction !*/
 745:../../MMI/Resource/GIFLoader.c **** /* under construction !*/
 746:../../MMI/Resource/GIFLoader.c **** /* under construction !*/
 747:../../MMI/Resource/GIFLoader.c **** /* under construction !*/
 748:../../MMI/Resource/GIFLoader.c **** /* under construction !*/
 749:../../MMI/Resource/GIFLoader.c **** /* under construction !*/
 750:../../MMI/Resource/GIFLoader.c **** /* under construction !*/
 751:../../MMI/Resource/GIFLoader.c **** /* under construction !*/
 752:../../MMI/Resource/GIFLoader.c **** /* under construction !*/
 753:../../MMI/Resource/GIFLoader.c **** /* under construction !*/
 754:../../MMI/Resource/GIFLoader.c **** /* under construction !*/
GAS LISTING f:/K7_TOUR/CODE/plutommi/Customer/ResGenerator/gcctmp/ccmebaaa.s 			page 44


 755:../../MMI/Resource/GIFLoader.c **** /* under construction !*/
 756:../../MMI/Resource/GIFLoader.c **** /* under construction !*/
 757:../../MMI/Resource/GIFLoader.c **** /* under construction !*/
 758:../../MMI/Resource/GIFLoader.c **** /* under construction !*/
 759:../../MMI/Resource/GIFLoader.c **** /* under construction !*/
 760:../../MMI/Resource/GIFLoader.c **** /* under construction !*/
 761:../../MMI/Resource/GIFLoader.c **** /* under construction !*/
 762:../../MMI/Resource/GIFLoader.c **** /* under construction !*/
 763:../../MMI/Resource/GIFLoader.c **** /* under construction !*/
 764:../../MMI/Resource/GIFLoader.c **** /* under construction !*/
 765:../../MMI/Resource/GIFLoader.c **** /* under construction !*/
 766:../../MMI/Resource/GIFLoader.c **** /* under construction !*/
 767:../../MMI/Resource/GIFLoader.c **** /* under construction !*/
 768:../../MMI/Resource/GIFLoader.c **** /* under construction !*/
 769:../../MMI/Resource/GIFLoader.c **** /* under construction !*/
 770:../../MMI/Resource/GIFLoader.c **** /* under construction !*/
 771:../../MMI/Resource/GIFLoader.c **** /* under construction !*/
 772:../../MMI/Resource/GIFLoader.c **** /* under construction !*/
 773:../../MMI/Resource/GIFLoader.c **** /* under construction !*/
 774:../../MMI/Resource/GIFLoader.c **** /* under construction !*/
 775:../../MMI/Resource/GIFLoader.c **** /* under construction !*/
 776:../../MMI/Resource/GIFLoader.c **** /* under construction !*/
 777:../../MMI/Resource/GIFLoader.c **** /* under construction !*/
 778:../../MMI/Resource/GIFLoader.c **** /* under construction !*/
 779:../../MMI/Resource/GIFLoader.c **** /* under construction !*/
 780:../../MMI/Resource/GIFLoader.c **** /* under construction !*/
 781:../../MMI/Resource/GIFLoader.c **** /* under construction !*/
 782:../../MMI/Resource/GIFLoader.c **** /* under construction !*/
 783:../../MMI/Resource/GIFLoader.c **** /* under construction !*/
 784:../../MMI/Resource/GIFLoader.c **** /* under construction !*/
 785:../../MMI/Resource/GIFLoader.c **** /* under construction !*/
 786:../../MMI/Resource/GIFLoader.c **** /* under construction !*/
 787:../../MMI/Resource/GIFLoader.c **** /* under construction !*/
 788:../../MMI/Resource/GIFLoader.c **** /* under construction !*/
 789:../../MMI/Resource/GIFLoader.c **** /* under construction !*/
 790:../../MMI/Resource/GIFLoader.c **** /* under construction !*/
 791:../../MMI/Resource/GIFLoader.c **** /* under construction !*/
 792:../../MMI/Resource/GIFLoader.c **** /* under construction !*/
 793:../../MMI/Resource/GIFLoader.c **** /* under construction !*/
 794:../../MMI/Resource/GIFLoader.c **** /* under construction !*/
 795:../../MMI/Resource/GIFLoader.c **** /* under construction !*/
 796:../../MMI/Resource/GIFLoader.c **** /* under construction !*/
 797:../../MMI/Resource/GIFLoader.c **** /* under construction !*/
 798:../../MMI/Resource/GIFLoader.c **** /* under construction !*/
 799:../../MMI/Resource/GIFLoader.c **** /* under construction !*/
 800:../../MMI/Resource/GIFLoader.c **** /* under construction !*/
 801:../../MMI/Resource/GIFLoader.c **** /* under construction !*/
 802:../../MMI/Resource/GIFLoader.c **** /* under construction !*/
 803:../../MMI/Resource/GIFLoader.c **** /* under construction !*/
 804:../../MMI/Resource/GIFLoader.c **** /* under construction !*/
 805:../../MMI/Resource/GIFLoader.c **** /* under construction !*/
 806:../../MMI/Resource/GIFLoader.c **** /* under construction !*/
 807:../../MMI/Resource/GIFLoader.c **** /* under construction !*/
 808:../../MMI/Resource/GIFLoader.c **** /* under construction !*/
 809:../../MMI/Resource/GIFLoader.c **** /* under construction !*/
 810:../../MMI/Resource/GIFLoader.c **** /* under construction !*/
 811:../../MMI/Resource/GIFLoader.c **** /* under construction !*/
GAS LISTING f:/K7_TOUR/CODE/plutommi/Customer/ResGenerator/gcctmp/ccmebaaa.s 			page 45


 812:../../MMI/Resource/GIFLoader.c **** /* under construction !*/
 813:../../MMI/Resource/GIFLoader.c **** /* under construction !*/
 814:../../MMI/Resource/GIFLoader.c **** /* under construction !*/
 815:../../MMI/Resource/GIFLoader.c **** /* under construction !*/
 816:../../MMI/Resource/GIFLoader.c **** /* under construction !*/
 817:../../MMI/Resource/GIFLoader.c **** /* under construction !*/
 818:../../MMI/Resource/GIFLoader.c **** /* under construction !*/
 819:../../MMI/Resource/GIFLoader.c **** /* under construction !*/
 820:../../MMI/Resource/GIFLoader.c **** /* under construction !*/
 821:../../MMI/Resource/GIFLoader.c **** /* under construction !*/
 822:../../MMI/Resource/GIFLoader.c **** /* under construction !*/
 823:../../MMI/Resource/GIFLoader.c **** /* under construction !*/
 824:../../MMI/Resource/GIFLoader.c **** /* under construction !*/
 825:../../MMI/Resource/GIFLoader.c **** /* under construction !*/
 826:../../MMI/Resource/GIFLoader.c **** /* under construction !*/
 827:../../MMI/Resource/GIFLoader.c **** /* under construction !*/
 828:../../MMI/Resource/GIFLoader.c **** /* under construction !*/
 829:../../MMI/Resource/GIFLoader.c **** /* under construction !*/
 830:../../MMI/Resource/GIFLoader.c **** /* under construction !*/
 831:../../MMI/Resource/GIFLoader.c **** /* under construction !*/
 832:../../MMI/Resource/GIFLoader.c **** /* under construction !*/
 833:../../MMI/Resource/GIFLoader.c **** /* under construction !*/
 834:../../MMI/Resource/GIFLoader.c **** /* under construction !*/
 835:../../MMI/Resource/GIFLoader.c **** /* under construction !*/
 836:../../MMI/Resource/GIFLoader.c **** /* under construction !*/
 837:../../MMI/Resource/GIFLoader.c **** /* under construction !*/
 838:../../MMI/Resource/GIFLoader.c **** /* under construction !*/
 839:../../MMI/Resource/GIFLoader.c **** /* under construction !*/
 840:../../MMI/Resource/GIFLoader.c **** /* under construction !*/
 841:../../MMI/Resource/GIFLoader.c **** /* under construction !*/
 842:../../MMI/Resource/GIFLoader.c **** /* under construction !*/
 843:../../MMI/Resource/GIFLoader.c **** /* under construction !*/
 844:../../MMI/Resource/GIFLoader.c **** /* under construction !*/
 845:../../MMI/Resource/GIFLoader.c **** /* under construction !*/
 846:../../MMI/Resource/GIFLoader.c **** /* under construction !*/
 847:../../MMI/Resource/GIFLoader.c **** /* under construction !*/
 848:../../MMI/Resource/GIFLoader.c **** #endif /* 0 */ 
 849:../../MMI/Resource/GIFLoader.c **** 
 850:../../MMI/Resource/GIFLoader.c **** 
 851:../../MMI/Resource/GIFLoader.c **** /*****************************************************************************
 852:../../MMI/Resource/GIFLoader.c ****  * FUNCTION
 853:../../MMI/Resource/GIFLoader.c ****  *  GIFLoader
 854:../../MMI/Resource/GIFLoader.c ****  * DESCRIPTION
 855:../../MMI/Resource/GIFLoader.c ****  *  
 856:../../MMI/Resource/GIFLoader.c ****  * PARAMETERS
 857:../../MMI/Resource/GIFLoader.c ****  *  in_filename         [?]     
 858:../../MMI/Resource/GIFLoader.c ****  *  out_filename        [?]     
 859:../../MMI/Resource/GIFLoader.c ****  * RETURNS
 860:../../MMI/Resource/GIFLoader.c ****  *  
 861:../../MMI/Resource/GIFLoader.c ****  *****************************************************************************/
 862:../../MMI/Resource/GIFLoader.c **** int GIFLoader(char *in_filename, char *out_filename)
 863:../../MMI/Resource/GIFLoader.c **** {
 1947              	LM232:
 1948 0fa8 55       		pushl	%ebp
 1949 0fa9 89E5     		movl	%esp, %ebp
 1950 0fab 81EC8800 		subl	$136, %esp
 1950      0000
GAS LISTING f:/K7_TOUR/CODE/plutommi/Customer/ResGenerator/gcctmp/ccmebaaa.s 			page 46


 864:../../MMI/Resource/GIFLoader.c ****     /*----------------------------------------------------------------*/
 865:../../MMI/Resource/GIFLoader.c ****     /* Local Variables                                                */
 866:../../MMI/Resource/GIFLoader.c ****     /*----------------------------------------------------------------*/
 867:../../MMI/Resource/GIFLoader.c ****     bitmap outimage;
 868:../../MMI/Resource/GIFLoader.c ****     FILE *infile;
 869:../../MMI/Resource/GIFLoader.c ****     FILE *outfile;
 870:../../MMI/Resource/GIFLoader.c ****     bytestream inimage;
 871:../../MMI/Resource/GIFLoader.c ****     S32 file_length;
 872:../../MMI/Resource/GIFLoader.c ****     U8 *buffer;
 873:../../MMI/Resource/GIFLoader.c ****     S32 i, bitmap_size;
 874:../../MMI/Resource/GIFLoader.c ****     S32 n_frames, frame_counter, temp_n_frames;
 875:../../MMI/Resource/GIFLoader.c ****     S32 total_data_size;
 876:../../MMI/Resource/GIFLoader.c **** 
 877:../../MMI/Resource/GIFLoader.c ****     /*----------------------------------------------------------------*/
 878:../../MMI/Resource/GIFLoader.c ****     /* Code Body                                                      */
 879:../../MMI/Resource/GIFLoader.c ****     /*----------------------------------------------------------------*/
 880:../../MMI/Resource/GIFLoader.c ****     infile = fopen(in_filename, "rb");
 1952              	LM233:
 1953              	LBB10:
 1954 0fb1 C7442404 		movl	$LC6, 4(%esp)
 1954      500F0000 
 1955 0fb9 8B4508   		movl	8(%ebp), %eax
 1956 0fbc 890424   		movl	%eax, (%esp)
 1957 0fbf E8000000 		call	_fopen
 1957      00
 1958 0fc4 8945D4   		movl	%eax, -44(%ebp)
 881:../../MMI/Resource/GIFLoader.c ****     if (infile == NULL)
 1960              	LM234:
 1961 0fc7 837DD400 		cmpl	$0, -44(%ebp)
 1962 0fcb 751F     		jne	L146
 882:../../MMI/Resource/GIFLoader.c ****     {
 883:../../MMI/Resource/GIFLoader.c ****         printf("\nErr opening %s", in_filename);
 1964              	LM235:
 1965 0fcd 8B4508   		movl	8(%ebp), %eax
 1966 0fd0 89442404 		movl	%eax, 4(%esp)
 1967 0fd4 C7042453 		movl	$LC7, (%esp)
 1967      0F0000
 1968 0fdb E8000000 		call	_printf
 1968      00
 884:../../MMI/Resource/GIFLoader.c ****         return 0;
 1970              	LM236:
 1971 0fe0 C7459400 		movl	$0, -108(%ebp)
 1971      000000
 1972 0fe7 E9EF0000 		jmp	L145
 1972      00
 1973              	L146:
 885:../../MMI/Resource/GIFLoader.c ****     }
 886:../../MMI/Resource/GIFLoader.c **** 
 887:../../MMI/Resource/GIFLoader.c ****     fseek(infile, 0, SEEK_END);
 1975              	LM237:
 1976 0fec C7442408 		movl	$2, 8(%esp)
 1976      02000000 
 1977 0ff4 C7442404 		movl	$0, 4(%esp)
 1977      00000000 
 1978 0ffc 8B45D4   		movl	-44(%ebp), %eax
 1979 0fff 890424   		movl	%eax, (%esp)
 1980 1002 E8000000 		call	_fseek
GAS LISTING f:/K7_TOUR/CODE/plutommi/Customer/ResGenerator/gcctmp/ccmebaaa.s 			page 47


 1980      00
 888:../../MMI/Resource/GIFLoader.c ****     file_length = ftell(infile);
 1982              	LM238:
 1983 1007 8B45D4   		movl	-44(%ebp), %eax
 1984 100a 890424   		movl	%eax, (%esp)
 1985 100d E8000000 		call	_ftell
 1985      00
 1986 1012 8945B4   		movl	%eax, -76(%ebp)
 889:../../MMI/Resource/GIFLoader.c ****     fseek(infile, 0, SEEK_SET);
 1988              	LM239:
 1989 1015 C7442408 		movl	$0, 8(%esp)
 1989      00000000 
 1990 101d C7442404 		movl	$0, 4(%esp)
 1990      00000000 
 1991 1025 8B45D4   		movl	-44(%ebp), %eax
 1992 1028 890424   		movl	%eax, (%esp)
 1993 102b E8000000 		call	_fseek
 1993      00
 890:../../MMI/Resource/GIFLoader.c **** 
 891:../../MMI/Resource/GIFLoader.c ****     buffer = (U8*) malloc(file_length);
 1995              	LM240:
 1996 1030 8B45B4   		movl	-76(%ebp), %eax
 1997 1033 890424   		movl	%eax, (%esp)
 1998 1036 E8000000 		call	_malloc
 1998      00
 1999 103b 8945B0   		movl	%eax, -80(%ebp)
 892:../../MMI/Resource/GIFLoader.c ****     if (buffer == NULL)
 2001              	LM241:
 2002 103e 837DB000 		cmpl	$0, -80(%ebp)
 2003 1042 7527     		jne	L147
 893:../../MMI/Resource/GIFLoader.c ****     {
 894:../../MMI/Resource/GIFLoader.c ****         printf("\nErr allocating memory of size %d bytes", file_length);
 2005              	LM242:
 2006 1044 8B45B4   		movl	-76(%ebp), %eax
 2007 1047 89442404 		movl	%eax, 4(%esp)
 2008 104b C7042480 		movl	$LC8, (%esp)
 2008      0F0000
 2009 1052 E8000000 		call	_printf
 2009      00
 895:../../MMI/Resource/GIFLoader.c ****         fclose(infile);
 2011              	LM243:
 2012 1057 8B45D4   		movl	-44(%ebp), %eax
 2013 105a 890424   		movl	%eax, (%esp)
 2014 105d E8000000 		call	_fclose
 2014      00
 896:../../MMI/Resource/GIFLoader.c ****         return 0;
 2016              	LM244:
 2017 1062 C7459400 		movl	$0, -108(%ebp)
 2017      000000
 2018 1069 EB70     		jmp	L145
 2019              	L147:
 897:../../MMI/Resource/GIFLoader.c ****     }
 898:../../MMI/Resource/GIFLoader.c **** 
 899:../../MMI/Resource/GIFLoader.c ****     fread(buffer, 1, file_length, infile);
 2021              	LM245:
 2022 106b 8B45D4   		movl	-44(%ebp), %eax
 2023 106e 8944240C 		movl	%eax, 12(%esp)
GAS LISTING f:/K7_TOUR/CODE/plutommi/Customer/ResGenerator/gcctmp/ccmebaaa.s 			page 48


 2024 1072 8B45B4   		movl	-76(%ebp), %eax
 2025 1075 89442408 		movl	%eax, 8(%esp)
 2026 1079 C7442404 		movl	$1, 4(%esp)
 2026      01000000 
 2027 1081 8B45B0   		movl	-80(%ebp), %eax
 2028 1084 890424   		movl	%eax, (%esp)
 2029 1087 E8000000 		call	_fread
 2029      00
 900:../../MMI/Resource/GIFLoader.c ****     fclose(infile);
 2031              	LM246:
 2032 108c 8B45D4   		movl	-44(%ebp), %eax
 2033 108f 890424   		movl	%eax, (%esp)
 2034 1092 E8000000 		call	_fclose
 2034      00
 901:../../MMI/Resource/GIFLoader.c ****     bytestream_initialize(&inimage, buffer, file_length);
 2036              	LM247:
 2037 1097 8B45B4   		movl	-76(%ebp), %eax
 2038 109a 89442408 		movl	%eax, 8(%esp)
 2039 109e 8B45B0   		movl	-80(%ebp), %eax
 2040 10a1 89442404 		movl	%eax, 4(%esp)
 2041 10a5 8D45B8   		leal	-72(%ebp), %eax
 2042 10a8 890424   		movl	%eax, (%esp)
 2043 10ab E8000000 		call	_bytestream_initialize
 2043      00
 902:../../MMI/Resource/GIFLoader.c ****     /* Get the number of frames   */
 903:../../MMI/Resource/GIFLoader.c ****     Load_GIF(&inimage, &n_frames);
 2045              	LM248:
 2046 10b0 8D45A4   		leal	-92(%ebp), %eax
 2047 10b3 89442404 		movl	%eax, 4(%esp)
 2048 10b7 8D45B8   		leal	-72(%ebp), %eax
 2049 10ba 890424   		movl	%eax, (%esp)
 2050 10bd E897F9FF 		call	_Load_GIF
 2050      FF
 904:../../MMI/Resource/GIFLoader.c ****     /* GIF_load(&inimage,NULL,DEVICE_COLOR_DEPTH,0,&n_frames); */
 905:../../MMI/Resource/GIFLoader.c ****     frame_counter = 0;
 2052              	LM249:
 2053 10c2 C745A000 		movl	$0, -96(%ebp)
 2053      000000
 906:../../MMI/Resource/GIFLoader.c **** 
 907:../../MMI/Resource/GIFLoader.c ****     free(buffer);
 2055              	LM250:
 2056 10c9 8B45B0   		movl	-80(%ebp), %eax
 2057 10cc 890424   		movl	%eax, (%esp)
 2058 10cf E8000000 		call	_free
 2058      00
 908:../../MMI/Resource/GIFLoader.c ****     return 1;
 2060              	LM251:
 2061 10d4 C7459401 		movl	$1, -108(%ebp)
 2061      000000
 909:../../MMI/Resource/GIFLoader.c **** }
 2063              	LM252:
 2064              	L145:
 2065              	LBE10:
 2066 10db 8B4594   		movl	-108(%ebp), %eax
 2067 10de C9       		leave
 2068 10df C3       		ret
 2083              	Lscope7:
GAS LISTING f:/K7_TOUR/CODE/plutommi/Customer/ResGenerator/gcctmp/ccmebaaa.s 			page 49


 2085              		.comm	_GIF_current_code_size, 16	 # 2
 2086              		.comm	_GIF_clear_code, 16	 # 2
 2087              		.comm	_GIF_end_code, 16	 # 2
 2088              		.comm	_GIF_new_codes, 16	 # 2
 2089              		.comm	_GIF_top_slot, 16	 # 2
 2090              		.comm	_GIF_slot, 16	 # 2
 2091              		.comm	_GIF_navailable_bytes, 16	 # 2
 2092              		.comm	_GIF_nbits_left, 16	 # 2
 2093              		.comm	_GIF_b1, 16	 # 2
 2094              		.comm	_GIF_byte_buffer, 272	 # 257
 2095              		.comm	_GIF_pbytes, 16	 # 4
 2096              		.comm	_GIF_stack, 8192	 # 8192
 2097              		.comm	_GIF_suffix, 8192	 # 8192
 2098              		.comm	_GIF_prefix, 8192	 # 8192
 2114              		.text
 2116              	Letext:
GAS LISTING f:/K7_TOUR/CODE/plutommi/Customer/ResGenerator/gcctmp/ccmebaaa.s 			page 50


DEFINED SYMBOLS
                            *ABS*:00000000 GIFLoader.c
f:/K7_TOUR/CODE/plutommi/Customer/ResGenerator/gcctmp/ccmebaaa.s:210    .text:00000000 _GIF_get_byte
f:/K7_TOUR/CODE/plutommi/Customer/ResGenerator/gcctmp/ccmebaaa.s:239    .text:00000016 _GIF_write_line
f:/K7_TOUR/CODE/plutommi/Customer/ResGenerator/gcctmp/ccmebaaa.s:470    .data:00000000 _GIF_code_mask
f:/K7_TOUR/CODE/plutommi/Customer/ResGenerator/gcctmp/ccmebaaa.s:488    .text:000001dd _GIF_initialize_decoder
                            *COM*:00000010 _GIF_current_code_size
                            *COM*:00000010 _GIF_top_slot
                            *COM*:00000010 _GIF_clear_code
                            *COM*:00000010 _GIF_end_code
                            *COM*:00000010 _GIF_new_codes
                            *COM*:00000010 _GIF_slot
                            *COM*:00000010 _GIF_nbits_left
                            *COM*:00000010 _GIF_navailable_bytes
f:/K7_TOUR/CODE/plutommi/Customer/ResGenerator/gcctmp/ccmebaaa.s:538    .text:00000250 _GIF_get_next_code
                            *COM*:00000110 _GIF_byte_buffer
                            *COM*:00000010 _GIF_pbytes
                            *COM*:00000010 _GIF_b1
f:/K7_TOUR/CODE/plutommi/Customer/ResGenerator/gcctmp/ccmebaaa.s:781    .text:000004a2 _GIF_interlace_pass
f:/K7_TOUR/CODE/plutommi/Customer/ResGenerator/gcctmp/ccmebaaa.s:919    .text:0000058f _GIF_decoder
                            *COM*:00002000 _GIF_stack
                            *COM*:00002000 _GIF_suffix
                            *COM*:00002000 _GIF_prefix
f:/K7_TOUR/CODE/plutommi/Customer/ResGenerator/gcctmp/ccmebaaa.s:1394   .text:00000a59 _Load_GIF
f:/K7_TOUR/CODE/plutommi/Customer/ResGenerator/gcctmp/ccmebaaa.s:1945   .text:00000fa8 _GIFLoader

UNDEFINED SYMBOLS
_free
_bytestream_initialize
_fread
_fclose
_malloc
_ftell
_fseek
_fopen
_bytestream_feof
_printf
_bytestream_fgetword
_strcmp
_bytestream_fread
_bytestream_fseek
_bytestream_fgetbyte
