GAS LISTING f:/K7_TOUR/CODE/plutommi/Customer/ResGenerator/gcctmp/cceGcaaa.s 			page 1


   1              		.file	"ResBytestream.c"
   4              		.text
   5              	Ltext0:
 203              	.globl _bytestream_initialize
 205              	_bytestream_initialize:
   1:../../MMI/Resource/ResBytestream.c **** /*****************************************************************************
   2:../../MMI/Resource/ResBytestream.c **** *  Copyright Statement:
   3:../../MMI/Resource/ResBytestream.c **** *  --------------------
   4:../../MMI/Resource/ResBytestream.c **** *  This software is protected by Copyright and the information contained
   5:../../MMI/Resource/ResBytestream.c **** *  herein is confidential. The software may not be copied and the information
   6:../../MMI/Resource/ResBytestream.c **** *  contained herein may not be used or disclosed except with the written
   7:../../MMI/Resource/ResBytestream.c **** *  permission of MediaTek Inc. (C) 2005
   8:../../MMI/Resource/ResBytestream.c **** *
   9:../../MMI/Resource/ResBytestream.c **** *  BY OPENING THIS FILE, BUYER HEREBY UNEQUIVOCALLY ACKNOWLEDGES AND AGREES
  10:../../MMI/Resource/ResBytestream.c **** *  THAT THE SOFTWARE/FIRMWARE AND ITS DOCUMENTATIONS ("MEDIATEK SOFTWARE")
  11:../../MMI/Resource/ResBytestream.c **** *  RECEIVED FROM MEDIATEK AND/OR ITS REPRESENTATIVES ARE PROVIDED TO BUYER ON
  12:../../MMI/Resource/ResBytestream.c **** *  AN "AS-IS" BASIS ONLY. MEDIATEK EXPRESSLY DISCLAIMS ANY AND ALL WARRANTIES,
  13:../../MMI/Resource/ResBytestream.c **** *  EXPRESS OR IMPLIED, INCLUDING BUT NOT LIMITED TO THE IMPLIED WARRANTIES OF
  14:../../MMI/Resource/ResBytestream.c **** *  MERCHANTABILITY, FITNESS FOR A PARTICULAR PURPOSE OR NONINFRINGEMENT.
  15:../../MMI/Resource/ResBytestream.c **** *  NEITHER DOES MEDIATEK PROVIDE ANY WARRANTY WHATSOEVER WITH RESPECT TO THE
  16:../../MMI/Resource/ResBytestream.c **** *  SOFTWARE OF ANY THIRD PARTY WHICH MAY BE USED BY, INCORPORATED IN, OR
  17:../../MMI/Resource/ResBytestream.c **** *  SUPPLIED WITH THE MEDIATEK SOFTWARE, AND BUYER AGREES TO LOOK ONLY TO SUCH
  18:../../MMI/Resource/ResBytestream.c **** *  THIRD PARTY FOR ANY WARRANTY CLAIM RELATING THERETO. MEDIATEK SHALL ALSO
  19:../../MMI/Resource/ResBytestream.c **** *  NOT BE RESPONSIBLE FOR ANY MEDIATEK SOFTWARE RELEASES MADE TO BUYER'S
  20:../../MMI/Resource/ResBytestream.c **** *  SPECIFICATION OR TO CONFORM TO A PARTICULAR STANDARD OR OPEN FORUM.
  21:../../MMI/Resource/ResBytestream.c **** *
  22:../../MMI/Resource/ResBytestream.c **** *  BUYER'S SOLE AND EXCLUSIVE REMEDY AND MEDIATEK'S ENTIRE AND CUMULATIVE
  23:../../MMI/Resource/ResBytestream.c **** *  LIABILITY WITH RESPECT TO THE MEDIATEK SOFTWARE RELEASED HEREUNDER WILL BE,
  24:../../MMI/Resource/ResBytestream.c **** *  AT MEDIATEK'S OPTION, TO REVISE OR REPLACE THE MEDIATEK SOFTWARE AT ISSUE,
  25:../../MMI/Resource/ResBytestream.c **** *  OR REFUND ANY SOFTWARE LICENSE FEES OR SERVICE CHARGE PAID BY BUYER TO
  26:../../MMI/Resource/ResBytestream.c **** *  MEDIATEK FOR SUCH MEDIATEK SOFTWARE AT ISSUE. 
  27:../../MMI/Resource/ResBytestream.c **** *
  28:../../MMI/Resource/ResBytestream.c **** *  THE TRANSACTION CONTEMPLATED HEREUNDER SHALL BE CONSTRUED IN ACCORDANCE
  29:../../MMI/Resource/ResBytestream.c **** *  WITH THE LAWS OF THE STATE OF CALIFORNIA, USA, EXCLUDING ITS CONFLICT OF
  30:../../MMI/Resource/ResBytestream.c **** *  LAWS PRINCIPLES.  ANY DISPUTES, CONTROVERSIES OR CLAIMS ARISING THEREOF AND
  31:../../MMI/Resource/ResBytestream.c **** *  RELATED THERETO SHALL BE SETTLED BY ARBITRATION IN SAN FRANCISCO, CA, UNDER
  32:../../MMI/Resource/ResBytestream.c **** *  THE RULES OF THE INTERNATIONAL CHAMBER OF COMMERCE (ICC).
  33:../../MMI/Resource/ResBytestream.c **** *
  34:../../MMI/Resource/ResBytestream.c **** *****************************************************************************/
  35:../../MMI/Resource/ResBytestream.c **** 
  36:../../MMI/Resource/ResBytestream.c **** /*******************************************************************************
  37:../../MMI/Resource/ResBytestream.c ****  * Filename:
  38:../../MMI/Resource/ResBytestream.c ****  * ---------
  39:../../MMI/Resource/ResBytestream.c ****  *  ResBytestream.c
  40:../../MMI/Resource/ResBytestream.c ****  *
  41:../../MMI/Resource/ResBytestream.c ****  * Project:
  42:../../MMI/Resource/ResBytestream.c ****  * --------
  43:../../MMI/Resource/ResBytestream.c ****  *  MAUI
  44:../../MMI/Resource/ResBytestream.c ****  *
  45:../../MMI/Resource/ResBytestream.c ****  * Description:
  46:../../MMI/Resource/ResBytestream.c ****  * ------------
  47:../../MMI/Resource/ResBytestream.c ****  *  
  48:../../MMI/Resource/ResBytestream.c ****  *
  49:../../MMI/Resource/ResBytestream.c ****  * Author:
  50:../../MMI/Resource/ResBytestream.c ****  * -------
  51:../../MMI/Resource/ResBytestream.c ****  *  
  52:../../MMI/Resource/ResBytestream.c ****  *
GAS LISTING f:/K7_TOUR/CODE/plutommi/Customer/ResGenerator/gcctmp/cceGcaaa.s 			page 2


  53:../../MMI/Resource/ResBytestream.c ****  *==============================================================================
  54:../../MMI/Resource/ResBytestream.c ****  *             HISTORY
  55:../../MMI/Resource/ResBytestream.c ****  * Below this line, this part is controlled by PVCS VM. DO NOT MODIFY!! 
  56:../../MMI/Resource/ResBytestream.c ****  *------------------------------------------------------------------------------
  57:../../MMI/Resource/ResBytestream.c ****  * removed!
  58:../../MMI/Resource/ResBytestream.c ****  *
  59:../../MMI/Resource/ResBytestream.c ****  * removed!
  60:../../MMI/Resource/ResBytestream.c ****  * removed!
  61:../../MMI/Resource/ResBytestream.c ****  * removed!
  62:../../MMI/Resource/ResBytestream.c ****  *
  63:../../MMI/Resource/ResBytestream.c ****  * removed!
  64:../../MMI/Resource/ResBytestream.c ****  * removed!
  65:../../MMI/Resource/ResBytestream.c ****  * removed!
  66:../../MMI/Resource/ResBytestream.c ****  *
  67:../../MMI/Resource/ResBytestream.c ****  *------------------------------------------------------------------------------
  68:../../MMI/Resource/ResBytestream.c ****  * Upper this line, this part is controlled by PVCS VM. DO NOT MODIFY!! 
  69:../../MMI/Resource/ResBytestream.c ****  *==============================================================================
  70:../../MMI/Resource/ResBytestream.c ****  *******************************************************************************/
  71:../../MMI/Resource/ResBytestream.c **** 
  72:../../MMI/Resource/ResBytestream.c **** /**
  73:../../MMI/Resource/ResBytestream.c ****  * Copyright Notice
  74:../../MMI/Resource/ResBytestream.c ****  * (c) 2002 - 2003, Pixtel Communications, Inc., 1489 43rd Ave. W.,
  75:../../MMI/Resource/ResBytestream.c ****  * Vancouver, B.C. V6M 4K8 Canada. All Rights Reserved.
  76:../../MMI/Resource/ResBytestream.c ****  *  (It is illegal to remove this copyright notice from this software or any
  77:../../MMI/Resource/ResBytestream.c ****  *  portion of it)
  78:../../MMI/Resource/ResBytestream.c ****  */
  79:../../MMI/Resource/ResBytestream.c **** 
  80:../../MMI/Resource/ResBytestream.c **** /**********************************************************************************
  81:../../MMI/Resource/ResBytestream.c ****    External tool required for the MMI
  82:../../MMI/Resource/ResBytestream.c **** 
  83:../../MMI/Resource/ResBytestream.c ****    Filename:      bytestream.c
  84:../../MMI/Resource/ResBytestream.c ****    Author:        manju
  85:../../MMI/Resource/ResBytestream.c ****    Date Created:  June-10-2002
  86:../../MMI/Resource/ResBytestream.c ****    Contains:      bytestream data type
  87:../../MMI/Resource/ResBytestream.c ****                These are used to process ROM images of binary files
  88:../../MMI/Resource/ResBytestream.c **** **********************************************************************************/
  89:../../MMI/Resource/ResBytestream.c **** 
  90:../../MMI/Resource/ResBytestream.c ****     #include "MMIDataType.h"
  91:../../MMI/Resource/ResBytestream.c **** #include "ResBytestream.h"
  92:../../MMI/Resource/ResBytestream.c **** 
  93:../../MMI/Resource/ResBytestream.c **** 
  94:../../MMI/Resource/ResBytestream.c **** /*****************************************************************************
  95:../../MMI/Resource/ResBytestream.c ****  * FUNCTION
  96:../../MMI/Resource/ResBytestream.c ****  *  bytestream_initialize
  97:../../MMI/Resource/ResBytestream.c ****  * DESCRIPTION
  98:../../MMI/Resource/ResBytestream.c ****  *  
  99:../../MMI/Resource/ResBytestream.c ****  * PARAMETERS
 100:../../MMI/Resource/ResBytestream.c ****  *  file        [?]         
 101:../../MMI/Resource/ResBytestream.c ****  *  data        [?]         
 102:../../MMI/Resource/ResBytestream.c ****  *  size        [IN]        
 103:../../MMI/Resource/ResBytestream.c ****  * RETURNS
 104:../../MMI/Resource/ResBytestream.c ****  *  void
 105:../../MMI/Resource/ResBytestream.c ****  *****************************************************************************/
 106:../../MMI/Resource/ResBytestream.c **** void bytestream_initialize(bytestream *file, U8 *data, long int size)
 107:../../MMI/Resource/ResBytestream.c **** {
 207              	LM1:
 208 0000 55       		pushl	%ebp
GAS LISTING f:/K7_TOUR/CODE/plutommi/Customer/ResGenerator/gcctmp/cceGcaaa.s 			page 3


 209 0001 89E5     		movl	%esp, %ebp
 108:../../MMI/Resource/ResBytestream.c ****     /*----------------------------------------------------------------*/
 109:../../MMI/Resource/ResBytestream.c ****     /* Local Variables                                                */
 110:../../MMI/Resource/ResBytestream.c ****     /*----------------------------------------------------------------*/
 111:../../MMI/Resource/ResBytestream.c **** 
 112:../../MMI/Resource/ResBytestream.c ****     /*----------------------------------------------------------------*/
 113:../../MMI/Resource/ResBytestream.c ****     /* Code Body                                                      */
 114:../../MMI/Resource/ResBytestream.c ****     /*----------------------------------------------------------------*/
 115:../../MMI/Resource/ResBytestream.c ****     file->data = data;
 211              	LM2:
 212 0003 8B5508   		movl	8(%ebp), %edx
 213 0006 8B450C   		movl	12(%ebp), %eax
 214 0009 894208   		movl	%eax, 8(%edx)
 116:../../MMI/Resource/ResBytestream.c ****     file->size = size;
 216              	LM3:
 217 000c 8B5508   		movl	8(%ebp), %edx
 218 000f 8B4510   		movl	16(%ebp), %eax
 219 0012 8902     		movl	%eax, (%edx)
 117:../../MMI/Resource/ResBytestream.c ****     file->current_offset = 0;
 221              	LM4:
 222 0014 8B4508   		movl	8(%ebp), %eax
 223 0017 C7400400 		movl	$0, 4(%eax)
 223      000000
 118:../../MMI/Resource/ResBytestream.c **** }
 225              	LM5:
 226 001e 5D       		popl	%ebp
 227 001f C3       		ret
 228              	Lscope0:
 232              	.globl _bytestream_fclose
 234              	_bytestream_fclose:
 119:../../MMI/Resource/ResBytestream.c **** 
 120:../../MMI/Resource/ResBytestream.c **** 
 121:../../MMI/Resource/ResBytestream.c **** /*****************************************************************************
 122:../../MMI/Resource/ResBytestream.c ****  * FUNCTION
 123:../../MMI/Resource/ResBytestream.c ****  *  bytestream_fclose
 124:../../MMI/Resource/ResBytestream.c ****  * DESCRIPTION
 125:../../MMI/Resource/ResBytestream.c ****  *  
 126:../../MMI/Resource/ResBytestream.c ****  * PARAMETERS
 127:../../MMI/Resource/ResBytestream.c ****  *  file        [?]     
 128:../../MMI/Resource/ResBytestream.c ****  * RETURNS
 129:../../MMI/Resource/ResBytestream.c ****  *  void
 130:../../MMI/Resource/ResBytestream.c ****  *****************************************************************************/
 131:../../MMI/Resource/ResBytestream.c **** void bytestream_fclose(bytestream *file)
 132:../../MMI/Resource/ResBytestream.c **** {
 236              	LM6:
 237 0020 55       		pushl	%ebp
 238 0021 89E5     		movl	%esp, %ebp
 133:../../MMI/Resource/ResBytestream.c ****     /*----------------------------------------------------------------*/
 134:../../MMI/Resource/ResBytestream.c ****     /* Local Variables                                                */
 135:../../MMI/Resource/ResBytestream.c ****     /*----------------------------------------------------------------*/
 136:../../MMI/Resource/ResBytestream.c **** 
 137:../../MMI/Resource/ResBytestream.c ****     /*----------------------------------------------------------------*/
 138:../../MMI/Resource/ResBytestream.c ****     /* Code Body                                                      */
 139:../../MMI/Resource/ResBytestream.c ****     /*----------------------------------------------------------------*/
 140:../../MMI/Resource/ResBytestream.c ****     file->data = NULL;
 240              	LM7:
 241 0023 8B4508   		movl	8(%ebp), %eax
GAS LISTING f:/K7_TOUR/CODE/plutommi/Customer/ResGenerator/gcctmp/cceGcaaa.s 			page 4


 242 0026 C7400800 		movl	$0, 8(%eax)
 242      000000
 141:../../MMI/Resource/ResBytestream.c ****     file->size = 0;
 244              	LM8:
 245 002d 8B4508   		movl	8(%ebp), %eax
 246 0030 C7000000 		movl	$0, (%eax)
 246      0000
 142:../../MMI/Resource/ResBytestream.c ****     file->current_offset = 0;
 248              	LM9:
 249 0036 8B4508   		movl	8(%ebp), %eax
 250 0039 C7400400 		movl	$0, 4(%eax)
 250      000000
 143:../../MMI/Resource/ResBytestream.c **** }
 252              	LM10:
 253 0040 5D       		popl	%ebp
 254 0041 C3       		ret
 255              	Lscope1:
 261              	.globl _bytestream_fseek
 263              	_bytestream_fseek:
 144:../../MMI/Resource/ResBytestream.c **** 
 145:../../MMI/Resource/ResBytestream.c **** 
 146:../../MMI/Resource/ResBytestream.c **** /*****************************************************************************
 147:../../MMI/Resource/ResBytestream.c ****  * FUNCTION
 148:../../MMI/Resource/ResBytestream.c ****  *  bytestream_fseek
 149:../../MMI/Resource/ResBytestream.c ****  * DESCRIPTION
 150:../../MMI/Resource/ResBytestream.c ****  *  
 151:../../MMI/Resource/ResBytestream.c ****  * PARAMETERS
 152:../../MMI/Resource/ResBytestream.c ****  *  file        [?]         
 153:../../MMI/Resource/ResBytestream.c ****  *  offset      [IN]        
 154:../../MMI/Resource/ResBytestream.c ****  *  mode        [IN]        
 155:../../MMI/Resource/ResBytestream.c ****  * RETURNS
 156:../../MMI/Resource/ResBytestream.c ****  *  
 157:../../MMI/Resource/ResBytestream.c ****  *****************************************************************************/
 158:../../MMI/Resource/ResBytestream.c **** U8 bytestream_fseek(bytestream *file, long int offset, int mode)
 159:../../MMI/Resource/ResBytestream.c **** {
 265              	LM11:
 266 0042 55       		pushl	%ebp
 267 0043 89E5     		movl	%esp, %ebp
 268 0045 83EC10   		subl	$16, %esp
 160:../../MMI/Resource/ResBytestream.c ****     /*----------------------------------------------------------------*/
 161:../../MMI/Resource/ResBytestream.c ****     /* Local Variables                                                */
 162:../../MMI/Resource/ResBytestream.c ****     /*----------------------------------------------------------------*/
 163:../../MMI/Resource/ResBytestream.c ****     int start_offset, final_offset;
 164:../../MMI/Resource/ResBytestream.c **** 
 165:../../MMI/Resource/ResBytestream.c ****     /*----------------------------------------------------------------*/
 166:../../MMI/Resource/ResBytestream.c ****     /* Code Body                                                      */
 167:../../MMI/Resource/ResBytestream.c ****     /*----------------------------------------------------------------*/
 168:../../MMI/Resource/ResBytestream.c ****     switch (mode)
 270              	LM12:
 271              	LBB2:
 272 0048 8B4510   		movl	16(%ebp), %eax
 273 004b 8945F0   		movl	%eax, -16(%ebp)
 274 004e 837DF001 		cmpl	$1, -16(%ebp)
 275 0052 742A     		je	L24
 276 0054 837DF001 		cmpl	$1, -16(%ebp)
 277 0058 7F08     		jg	L26
 278 005a 837DF000 		cmpl	$0, -16(%ebp)
GAS LISTING f:/K7_TOUR/CODE/plutommi/Customer/ResGenerator/gcctmp/cceGcaaa.s 			page 5


 279 005e 7415     		je	L22
 280 0060 EB1C     		jmp	L24
 281              	L26:
 282 0062 837DF002 		cmpl	$2, -16(%ebp)
 283 0066 7402     		je	L21
 284 0068 EB14     		jmp	L24
 285              	L21:
 169:../../MMI/Resource/ResBytestream.c ****     {
 170:../../MMI/Resource/ResBytestream.c ****         case SEEK_END:
 171:../../MMI/Resource/ResBytestream.c ****             start_offset = file->size - 1;
 287              	LM13:
 288 006a 8B4508   		movl	8(%ebp), %eax
 289 006d 8B00     		movl	(%eax), %eax
 290 006f 48       		decl	%eax
 291 0070 8945FC   		movl	%eax, -4(%ebp)
 172:../../MMI/Resource/ResBytestream.c ****             break;
 293              	LM14:
 294 0073 EB12     		jmp	L20
 295              	L22:
 173:../../MMI/Resource/ResBytestream.c ****         case SEEK_SET:
 174:../../MMI/Resource/ResBytestream.c ****             start_offset = 0;
 297              	LM15:
 298 0075 C745FC00 		movl	$0, -4(%ebp)
 298      000000
 175:../../MMI/Resource/ResBytestream.c ****             break;
 300              	LM16:
 301 007c EB09     		jmp	L20
 302              	L24:
 176:../../MMI/Resource/ResBytestream.c ****         case SEEK_CUR:
 177:../../MMI/Resource/ResBytestream.c ****         default:
 178:../../MMI/Resource/ResBytestream.c ****             start_offset = file->current_offset;
 304              	LM17:
 305 007e 8B4508   		movl	8(%ebp), %eax
 306 0081 8B4004   		movl	4(%eax), %eax
 307 0084 8945FC   		movl	%eax, -4(%ebp)
 308              	L20:
 179:../../MMI/Resource/ResBytestream.c ****             break;
 180:../../MMI/Resource/ResBytestream.c ****     }
 181:../../MMI/Resource/ResBytestream.c ****     final_offset = start_offset + offset;
 310              	LM18:
 311 0087 8B450C   		movl	12(%ebp), %eax
 312 008a 0345FC   		addl	-4(%ebp), %eax
 313 008d 8945F8   		movl	%eax, -8(%ebp)
 182:../../MMI/Resource/ResBytestream.c ****     if (final_offset < 0 || final_offset >= file->size)
 315              	LM19:
 316 0090 837DF800 		cmpl	$0, -8(%ebp)
 317 0094 780C     		js	L28
 318 0096 8B5508   		movl	8(%ebp), %edx
 319 0099 8B45F8   		movl	-8(%ebp), %eax
 320 009c 3B02     		cmpl	(%edx), %eax
 321 009e 7D02     		jge	L28
 322 00a0 EB09     		jmp	L27
 323              	L28:
 183:../../MMI/Resource/ResBytestream.c ****     {
 184:../../MMI/Resource/ResBytestream.c ****         return (1);
 325              	LM20:
 326 00a2 C745F401 		movl	$1, -12(%ebp)
GAS LISTING f:/K7_TOUR/CODE/plutommi/Customer/ResGenerator/gcctmp/cceGcaaa.s 			page 6


 326      000000
 327 00a9 EB10     		jmp	L19
 328              	L27:
 185:../../MMI/Resource/ResBytestream.c ****     }
 186:../../MMI/Resource/ResBytestream.c ****     else
 187:../../MMI/Resource/ResBytestream.c ****     {
 188:../../MMI/Resource/ResBytestream.c ****         file->current_offset = final_offset;
 330              	LM21:
 331 00ab 8B5508   		movl	8(%ebp), %edx
 332 00ae 8B45F8   		movl	-8(%ebp), %eax
 333 00b1 894204   		movl	%eax, 4(%edx)
 189:../../MMI/Resource/ResBytestream.c ****         return (0);
 335              	LM22:
 336 00b4 C745F400 		movl	$0, -12(%ebp)
 336      000000
 190:../../MMI/Resource/ResBytestream.c ****     }
 191:../../MMI/Resource/ResBytestream.c **** }
 338              	LM23:
 339              	L19:
 340              	LBE2:
 341 00bb 8B45F4   		movl	-12(%ebp), %eax
 342 00be C9       		leave
 343 00bf C3       		ret
 348              	Lscope2:
 352              	.globl _bytestream_feof
 354              	_bytestream_feof:
 192:../../MMI/Resource/ResBytestream.c **** 
 193:../../MMI/Resource/ResBytestream.c **** 
 194:../../MMI/Resource/ResBytestream.c **** /*****************************************************************************
 195:../../MMI/Resource/ResBytestream.c ****  * FUNCTION
 196:../../MMI/Resource/ResBytestream.c ****  *  bytestream_feof
 197:../../MMI/Resource/ResBytestream.c ****  * DESCRIPTION
 198:../../MMI/Resource/ResBytestream.c ****  *  
 199:../../MMI/Resource/ResBytestream.c ****  * PARAMETERS
 200:../../MMI/Resource/ResBytestream.c ****  *  file        [?]     
 201:../../MMI/Resource/ResBytestream.c ****  * RETURNS
 202:../../MMI/Resource/ResBytestream.c ****  *  
 203:../../MMI/Resource/ResBytestream.c ****  *****************************************************************************/
 204:../../MMI/Resource/ResBytestream.c **** U8 bytestream_feof(bytestream *file)
 205:../../MMI/Resource/ResBytestream.c **** {
 356              	LM24:
 357 00c0 55       		pushl	%ebp
 358 00c1 89E5     		movl	%esp, %ebp
 359 00c3 83EC04   		subl	$4, %esp
 206:../../MMI/Resource/ResBytestream.c ****     /*----------------------------------------------------------------*/
 207:../../MMI/Resource/ResBytestream.c ****     /* Local Variables                                                */
 208:../../MMI/Resource/ResBytestream.c ****     /*----------------------------------------------------------------*/
 209:../../MMI/Resource/ResBytestream.c **** 
 210:../../MMI/Resource/ResBytestream.c ****     /*----------------------------------------------------------------*/
 211:../../MMI/Resource/ResBytestream.c ****     /* Code Body                                                      */
 212:../../MMI/Resource/ResBytestream.c ****     /*----------------------------------------------------------------*/
 213:../../MMI/Resource/ResBytestream.c ****     if (file->current_offset >= file->size)
 361              	LM25:
 362 00c6 8B4508   		movl	8(%ebp), %eax
 363 00c9 8B5508   		movl	8(%ebp), %edx
 364 00cc 8B4004   		movl	4(%eax), %eax
 365 00cf 3B02     		cmpl	(%edx), %eax
GAS LISTING f:/K7_TOUR/CODE/plutommi/Customer/ResGenerator/gcctmp/cceGcaaa.s 			page 7


 366 00d1 7C09     		jl	L31
 214:../../MMI/Resource/ResBytestream.c ****     {
 215:../../MMI/Resource/ResBytestream.c ****         return (1);
 368              	LM26:
 369 00d3 C745FC01 		movl	$1, -4(%ebp)
 369      000000
 370 00da EB07     		jmp	L30
 371              	L31:
 216:../../MMI/Resource/ResBytestream.c ****     }
 217:../../MMI/Resource/ResBytestream.c ****     else
 218:../../MMI/Resource/ResBytestream.c ****     {
 219:../../MMI/Resource/ResBytestream.c ****         return (0);
 373              	LM27:
 374 00dc C745FC00 		movl	$0, -4(%ebp)
 374      000000
 220:../../MMI/Resource/ResBytestream.c ****     }
 221:../../MMI/Resource/ResBytestream.c **** }
 376              	LM28:
 377              	L30:
 378 00e3 8B45FC   		movl	-4(%ebp), %eax
 379 00e6 C9       		leave
 380 00e7 C3       		ret
 381              	Lscope3:
 385              	.globl _bytestream_fgetbyte
 387              	_bytestream_fgetbyte:
 222:../../MMI/Resource/ResBytestream.c **** 
 223:../../MMI/Resource/ResBytestream.c **** 
 224:../../MMI/Resource/ResBytestream.c **** /*****************************************************************************
 225:../../MMI/Resource/ResBytestream.c ****  * FUNCTION
 226:../../MMI/Resource/ResBytestream.c ****  *  bytestream_fgetbyte
 227:../../MMI/Resource/ResBytestream.c ****  * DESCRIPTION
 228:../../MMI/Resource/ResBytestream.c ****  *  
 229:../../MMI/Resource/ResBytestream.c ****  * PARAMETERS
 230:../../MMI/Resource/ResBytestream.c ****  *  file        [?]     
 231:../../MMI/Resource/ResBytestream.c ****  * RETURNS
 232:../../MMI/Resource/ResBytestream.c ****  *  
 233:../../MMI/Resource/ResBytestream.c ****  *****************************************************************************/
 234:../../MMI/Resource/ResBytestream.c **** U8 bytestream_fgetbyte(bytestream *file)
 235:../../MMI/Resource/ResBytestream.c **** {
 389              	LM29:
 390 00e8 55       		pushl	%ebp
 391 00e9 89E5     		movl	%esp, %ebp
 392 00eb 83EC18   		subl	$24, %esp
 236:../../MMI/Resource/ResBytestream.c ****     /*----------------------------------------------------------------*/
 237:../../MMI/Resource/ResBytestream.c ****     /* Local Variables                                                */
 238:../../MMI/Resource/ResBytestream.c ****     /*----------------------------------------------------------------*/
 239:../../MMI/Resource/ResBytestream.c ****     U8 c;
 240:../../MMI/Resource/ResBytestream.c **** 
 241:../../MMI/Resource/ResBytestream.c ****     /*----------------------------------------------------------------*/
 242:../../MMI/Resource/ResBytestream.c ****     /* Code Body                                                      */
 243:../../MMI/Resource/ResBytestream.c ****     /*----------------------------------------------------------------*/
 244:../../MMI/Resource/ResBytestream.c ****     if (bytestream_feof(file))
 394              	LM30:
 395              	LBB3:
 396 00ee 8B4508   		movl	8(%ebp), %eax
 397 00f1 890424   		movl	%eax, (%esp)
 398 00f4 E8C7FFFF 		call	_bytestream_feof
GAS LISTING f:/K7_TOUR/CODE/plutommi/Customer/ResGenerator/gcctmp/cceGcaaa.s 			page 8


 398      FF
 399 00f9 84C0     		testb	%al, %al
 400 00fb 7409     		je	L34
 245:../../MMI/Resource/ResBytestream.c ****     {
 246:../../MMI/Resource/ResBytestream.c ****         return (0);
 402              	LM31:
 403 00fd C745F800 		movl	$0, -8(%ebp)
 403      000000
 404 0104 EB1F     		jmp	L33
 405              	L34:
 247:../../MMI/Resource/ResBytestream.c ****     }
 248:../../MMI/Resource/ResBytestream.c ****     c = file->data[file->current_offset];
 407              	LM32:
 408 0106 8B5508   		movl	8(%ebp), %edx
 409 0109 8B4508   		movl	8(%ebp), %eax
 410 010c 8B4004   		movl	4(%eax), %eax
 411 010f 034208   		addl	8(%edx), %eax
 412 0112 0FB600   		movzbl	(%eax), %eax
 413 0115 8845FF   		movb	%al, -1(%ebp)
 249:../../MMI/Resource/ResBytestream.c ****     file->current_offset++;
 415              	LM33:
 416 0118 8B4508   		movl	8(%ebp), %eax
 417 011b FF4004   		incl	4(%eax)
 250:../../MMI/Resource/ResBytestream.c ****     return (c);
 419              	LM34:
 420 011e 0FB645FF 		movzbl	-1(%ebp), %eax
 421 0122 8945F8   		movl	%eax, -8(%ebp)
 251:../../MMI/Resource/ResBytestream.c **** }
 423              	LM35:
 424              	L33:
 425              	LBE3:
 426 0125 8B45F8   		movl	-8(%ebp), %eax
 427 0128 C9       		leave
 428 0129 C3       		ret
 432              	Lscope4:
 437              	.globl _bytestream_fputbyte
 439              	_bytestream_fputbyte:
 252:../../MMI/Resource/ResBytestream.c **** 
 253:../../MMI/Resource/ResBytestream.c **** 
 254:../../MMI/Resource/ResBytestream.c **** /*****************************************************************************
 255:../../MMI/Resource/ResBytestream.c ****  * FUNCTION
 256:../../MMI/Resource/ResBytestream.c ****  *  bytestream_fputbyte
 257:../../MMI/Resource/ResBytestream.c ****  * DESCRIPTION
 258:../../MMI/Resource/ResBytestream.c ****  *  
 259:../../MMI/Resource/ResBytestream.c ****  * PARAMETERS
 260:../../MMI/Resource/ResBytestream.c ****  *  file        [?]         
 261:../../MMI/Resource/ResBytestream.c ****  *  c           [IN]        
 262:../../MMI/Resource/ResBytestream.c ****  * RETURNS
 263:../../MMI/Resource/ResBytestream.c ****  *  
 264:../../MMI/Resource/ResBytestream.c ****  *****************************************************************************/
 265:../../MMI/Resource/ResBytestream.c **** U8 bytestream_fputbyte(bytestream *file, U8 c)
 266:../../MMI/Resource/ResBytestream.c **** {
 441              	LM36:
 442 012a 55       		pushl	%ebp
 443 012b 89E5     		movl	%esp, %ebp
 444 012d 83EC18   		subl	$24, %esp
 445 0130 8B450C   		movl	12(%ebp), %eax
GAS LISTING f:/K7_TOUR/CODE/plutommi/Customer/ResGenerator/gcctmp/cceGcaaa.s 			page 9


 446 0133 8845FF   		movb	%al, -1(%ebp)
 267:../../MMI/Resource/ResBytestream.c ****     /*----------------------------------------------------------------*/
 268:../../MMI/Resource/ResBytestream.c ****     /* Local Variables                                                */
 269:../../MMI/Resource/ResBytestream.c ****     /*----------------------------------------------------------------*/
 270:../../MMI/Resource/ResBytestream.c **** 
 271:../../MMI/Resource/ResBytestream.c ****     /*----------------------------------------------------------------*/
 272:../../MMI/Resource/ResBytestream.c ****     /* Code Body                                                      */
 273:../../MMI/Resource/ResBytestream.c ****     /*----------------------------------------------------------------*/
 274:../../MMI/Resource/ResBytestream.c ****     if (bytestream_feof(file))
 448              	LM37:
 449 0136 8B4508   		movl	8(%ebp), %eax
 450 0139 890424   		movl	%eax, (%esp)
 451 013c E87FFFFF 		call	_bytestream_feof
 451      FF
 452 0141 84C0     		testb	%al, %al
 453 0143 7409     		je	L36
 275:../../MMI/Resource/ResBytestream.c ****     {
 276:../../MMI/Resource/ResBytestream.c ****         return (0);
 455              	LM38:
 456 0145 C745F800 		movl	$0, -8(%ebp)
 456      000000
 457 014c EB21     		jmp	L35
 458              	L36:
 277:../../MMI/Resource/ResBytestream.c ****     }
 278:../../MMI/Resource/ResBytestream.c ****     file->data[file->current_offset] = c;
 460              	LM39:
 461 014e 8B5508   		movl	8(%ebp), %edx
 462 0151 8B4508   		movl	8(%ebp), %eax
 463 0154 8B4004   		movl	4(%eax), %eax
 464 0157 8B5208   		movl	8(%edx), %edx
 465 015a 01C2     		addl	%eax, %edx
 466 015c 0FB645FF 		movzbl	-1(%ebp), %eax
 467 0160 8802     		movb	%al, (%edx)
 279:../../MMI/Resource/ResBytestream.c ****     file->current_offset++;
 469              	LM40:
 470 0162 8B4508   		movl	8(%ebp), %eax
 471 0165 FF4004   		incl	4(%eax)
 280:../../MMI/Resource/ResBytestream.c ****     return (1);
 473              	LM41:
 474 0168 C745F801 		movl	$1, -8(%ebp)
 474      000000
 281:../../MMI/Resource/ResBytestream.c **** }
 476              	LM42:
 477              	L35:
 478 016f 8B45F8   		movl	-8(%ebp), %eax
 479 0172 C9       		leave
 480 0173 C3       		ret
 482              	Lscope5:
 489              	.globl _bytestream_fread
 491              	_bytestream_fread:
 282:../../MMI/Resource/ResBytestream.c **** 
 283:../../MMI/Resource/ResBytestream.c **** 
 284:../../MMI/Resource/ResBytestream.c **** /*****************************************************************************
 285:../../MMI/Resource/ResBytestream.c ****  * FUNCTION
 286:../../MMI/Resource/ResBytestream.c ****  *  bytestream_fread
 287:../../MMI/Resource/ResBytestream.c ****  * DESCRIPTION
 288:../../MMI/Resource/ResBytestream.c ****  *  
GAS LISTING f:/K7_TOUR/CODE/plutommi/Customer/ResGenerator/gcctmp/cceGcaaa.s 			page 10


 289:../../MMI/Resource/ResBytestream.c ****  * PARAMETERS
 290:../../MMI/Resource/ResBytestream.c ****  *  buffer      [?]         
 291:../../MMI/Resource/ResBytestream.c ****  *  size        [IN]        
 292:../../MMI/Resource/ResBytestream.c ****  *  number      [IN]        
 293:../../MMI/Resource/ResBytestream.c ****  *  file        [?]         
 294:../../MMI/Resource/ResBytestream.c ****  * RETURNS
 295:../../MMI/Resource/ResBytestream.c ****  *  
 296:../../MMI/Resource/ResBytestream.c ****  *****************************************************************************/
 297:../../MMI/Resource/ResBytestream.c **** size_t bytestream_fread(U8 *buffer, size_t size, size_t number, bytestream *file)
 298:../../MMI/Resource/ResBytestream.c **** {
 493              	LM43:
 494 0174 55       		pushl	%ebp
 495 0175 89E5     		movl	%esp, %ebp
 496 0177 83EC18   		subl	$24, %esp
 299:../../MMI/Resource/ResBytestream.c ****     /*----------------------------------------------------------------*/
 300:../../MMI/Resource/ResBytestream.c ****     /* Local Variables                                                */
 301:../../MMI/Resource/ResBytestream.c ****     /*----------------------------------------------------------------*/
 302:../../MMI/Resource/ResBytestream.c ****     unsigned long int count = 0, i;
 498              	LM44:
 499              	LBB4:
 500 017a C745FC00 		movl	$0, -4(%ebp)
 500      000000
 303:../../MMI/Resource/ResBytestream.c **** 
 304:../../MMI/Resource/ResBytestream.c ****     /*----------------------------------------------------------------*/
 305:../../MMI/Resource/ResBytestream.c ****     /* Code Body                                                      */
 306:../../MMI/Resource/ResBytestream.c ****     /*----------------------------------------------------------------*/
 307:../../MMI/Resource/ResBytestream.c ****     for (i = 0; i < (long)size * number; i++)
 502              	LM45:
 503 0181 C745F800 		movl	$0, -8(%ebp)
 503      000000
 504              	L38:
 505 0188 8B450C   		movl	12(%ebp), %eax
 506 018b 0FAF4510 		imull	16(%ebp), %eax
 507 018f 3945F8   		cmpl	%eax, -8(%ebp)
 508 0192 7202     		jb	L41
 509 0194 EB32     		jmp	L39
 510              	L41:
 308:../../MMI/Resource/ResBytestream.c ****     {
 309:../../MMI/Resource/ResBytestream.c ****         if (bytestream_feof(file))
 512              	LM46:
 513 0196 8B4514   		movl	20(%ebp), %eax
 514 0199 890424   		movl	%eax, (%esp)
 515 019c E81FFFFF 		call	_bytestream_feof
 515      FF
 516 01a1 84C0     		testb	%al, %al
 517 01a3 7402     		je	L42
 310:../../MMI/Resource/ResBytestream.c ****         {
 311:../../MMI/Resource/ResBytestream.c ****             break;
 519              	LM47:
 520 01a5 EB21     		jmp	L39
 521              	L42:
 312:../../MMI/Resource/ResBytestream.c ****         }
 313:../../MMI/Resource/ResBytestream.c ****         buffer[count++] = bytestream_fgetbyte(file);
 523              	LM48:
 524 01a7 8B4514   		movl	20(%ebp), %eax
 525 01aa 890424   		movl	%eax, (%esp)
 526 01ad E836FFFF 		call	_bytestream_fgetbyte
GAS LISTING f:/K7_TOUR/CODE/plutommi/Customer/ResGenerator/gcctmp/cceGcaaa.s 			page 11


 526      FF
 527 01b2 88C2     		movb	%al, %dl
 528 01b4 8B45FC   		movl	-4(%ebp), %eax
 529 01b7 034508   		addl	8(%ebp), %eax
 530 01ba 8810     		movb	%dl, (%eax)
 531 01bc 8D45FC   		leal	-4(%ebp), %eax
 532 01bf FF00     		incl	(%eax)
 534              	LM49:
 535 01c1 8D45F8   		leal	-8(%ebp), %eax
 536 01c4 FF00     		incl	(%eax)
 537 01c6 EBC0     		jmp	L38
 538              	L39:
 314:../../MMI/Resource/ResBytestream.c ****     }
 315:../../MMI/Resource/ResBytestream.c ****     return (count);
 540              	LM50:
 541 01c8 8B45FC   		movl	-4(%ebp), %eax
 316:../../MMI/Resource/ResBytestream.c **** }
 543              	LM51:
 544 01cb C9       		leave
 545 01cc C3       		ret
 546              	LBE4:
 551              	Lscope6:
 555              	.globl _bytestream_fgetword
 557              	_bytestream_fgetword:
 317:../../MMI/Resource/ResBytestream.c **** 
 318:../../MMI/Resource/ResBytestream.c **** 
 319:../../MMI/Resource/ResBytestream.c **** /*****************************************************************************
 320:../../MMI/Resource/ResBytestream.c ****  * FUNCTION
 321:../../MMI/Resource/ResBytestream.c ****  *  bytestream_fgetword
 322:../../MMI/Resource/ResBytestream.c ****  * DESCRIPTION
 323:../../MMI/Resource/ResBytestream.c ****  *  
 324:../../MMI/Resource/ResBytestream.c ****  * PARAMETERS
 325:../../MMI/Resource/ResBytestream.c ****  *  file        [?]     
 326:../../MMI/Resource/ResBytestream.c ****  * RETURNS
 327:../../MMI/Resource/ResBytestream.c ****  *  
 328:../../MMI/Resource/ResBytestream.c ****  *****************************************************************************/
 329:../../MMI/Resource/ResBytestream.c **** U16 bytestream_fgetword(bytestream *file)
 330:../../MMI/Resource/ResBytestream.c **** {
 559              	LM52:
 560 01cd 55       		pushl	%ebp
 561 01ce 89E5     		movl	%esp, %ebp
 562 01d0 83EC08   		subl	$8, %esp
 331:../../MMI/Resource/ResBytestream.c ****     /*----------------------------------------------------------------*/
 332:../../MMI/Resource/ResBytestream.c ****     /* Local Variables                                                */
 333:../../MMI/Resource/ResBytestream.c ****     /*----------------------------------------------------------------*/
 334:../../MMI/Resource/ResBytestream.c ****     U16 MSB, LSB;
 335:../../MMI/Resource/ResBytestream.c **** 
 336:../../MMI/Resource/ResBytestream.c ****     /*----------------------------------------------------------------*/
 337:../../MMI/Resource/ResBytestream.c ****     /* Code Body                                                      */
 338:../../MMI/Resource/ResBytestream.c ****     /*----------------------------------------------------------------*/
 339:../../MMI/Resource/ResBytestream.c ****     LSB = bytestream_fgetbyte(file);
 564              	LM53:
 565              	LBB5:
 566 01d3 8B4508   		movl	8(%ebp), %eax
 567 01d6 890424   		movl	%eax, (%esp)
 568 01d9 E80AFFFF 		call	_bytestream_fgetbyte
 568      FF
GAS LISTING f:/K7_TOUR/CODE/plutommi/Customer/ResGenerator/gcctmp/cceGcaaa.s 			page 12


 569 01de 660FB6C0 		movzbw	%al, %ax
 570 01e2 668945FC 		movw	%ax, -4(%ebp)
 340:../../MMI/Resource/ResBytestream.c ****     MSB = bytestream_fgetbyte(file);
 572              	LM54:
 573 01e6 8B4508   		movl	8(%ebp), %eax
 574 01e9 890424   		movl	%eax, (%esp)
 575 01ec E8F7FEFF 		call	_bytestream_fgetbyte
 575      FF
 576 01f1 660FB6C0 		movzbw	%al, %ax
 577 01f5 668945FE 		movw	%ax, -2(%ebp)
 341:../../MMI/Resource/ResBytestream.c ****     return ((MSB << 8) | LSB);
 579              	LM55:
 580 01f9 0FB745FE 		movzwl	-2(%ebp), %eax
 581 01fd C1E008   		sall	$8, %eax
 582 0200 89C2     		movl	%eax, %edx
 583 0202 8B45FC   		movl	-4(%ebp), %eax
 584 0205 09D0     		orl	%edx, %eax
 585 0207 0FB7C0   		movzwl	%ax, %eax
 342:../../MMI/Resource/ResBytestream.c **** }
 587              	LM56:
 588 020a C9       		leave
 589 020b C3       		ret
 590              	LBE5:
 595              	Lscope7:
 599              	.globl _bytestream_fgetdword
 601              	_bytestream_fgetdword:
 343:../../MMI/Resource/ResBytestream.c **** 
 344:../../MMI/Resource/ResBytestream.c **** 
 345:../../MMI/Resource/ResBytestream.c **** /*****************************************************************************
 346:../../MMI/Resource/ResBytestream.c ****  * FUNCTION
 347:../../MMI/Resource/ResBytestream.c ****  *  bytestream_fgetdword
 348:../../MMI/Resource/ResBytestream.c ****  * DESCRIPTION
 349:../../MMI/Resource/ResBytestream.c ****  *  
 350:../../MMI/Resource/ResBytestream.c ****  * PARAMETERS
 351:../../MMI/Resource/ResBytestream.c ****  *  file        [?]     
 352:../../MMI/Resource/ResBytestream.c ****  * RETURNS
 353:../../MMI/Resource/ResBytestream.c ****  *  
 354:../../MMI/Resource/ResBytestream.c ****  *****************************************************************************/
 355:../../MMI/Resource/ResBytestream.c **** U32 bytestream_fgetdword(bytestream *file)
 356:../../MMI/Resource/ResBytestream.c **** {
 603              	LM57:
 604 020c 55       		pushl	%ebp
 605 020d 89E5     		movl	%esp, %ebp
 606 020f 83EC18   		subl	$24, %esp
 357:../../MMI/Resource/ResBytestream.c ****     /*----------------------------------------------------------------*/
 358:../../MMI/Resource/ResBytestream.c ****     /* Local Variables                                                */
 359:../../MMI/Resource/ResBytestream.c ****     /*----------------------------------------------------------------*/
 360:../../MMI/Resource/ResBytestream.c ****     U32 MSB, LSB;
 361:../../MMI/Resource/ResBytestream.c **** 
 362:../../MMI/Resource/ResBytestream.c ****     /*----------------------------------------------------------------*/
 363:../../MMI/Resource/ResBytestream.c ****     /* Code Body                                                      */
 364:../../MMI/Resource/ResBytestream.c ****     /*----------------------------------------------------------------*/
 365:../../MMI/Resource/ResBytestream.c ****     LSB = bytestream_fgetword(file);
 608              	LM58:
 609              	LBB6:
 610 0212 8B4508   		movl	8(%ebp), %eax
 611 0215 890424   		movl	%eax, (%esp)
GAS LISTING f:/K7_TOUR/CODE/plutommi/Customer/ResGenerator/gcctmp/cceGcaaa.s 			page 13


 612 0218 E8B0FFFF 		call	_bytestream_fgetword
 612      FF
 613 021d 0FB7C0   		movzwl	%ax, %eax
 614 0220 8945F8   		movl	%eax, -8(%ebp)
 366:../../MMI/Resource/ResBytestream.c ****     MSB = bytestream_fgetword(file);
 616              	LM59:
 617 0223 8B4508   		movl	8(%ebp), %eax
 618 0226 890424   		movl	%eax, (%esp)
 619 0229 E89FFFFF 		call	_bytestream_fgetword
 619      FF
 620 022e 0FB7C0   		movzwl	%ax, %eax
 621 0231 8945FC   		movl	%eax, -4(%ebp)
 367:../../MMI/Resource/ResBytestream.c ****     return ((MSB << 16) | LSB);
 623              	LM60:
 624 0234 8B45FC   		movl	-4(%ebp), %eax
 625 0237 C1E010   		sall	$16, %eax
 626 023a 0B45F8   		orl	-8(%ebp), %eax
 368:../../MMI/Resource/ResBytestream.c **** }
 628              	LM61:
 629 023d C9       		leave
 630 023e C3       		ret
 631              	LBE6:
 636              	Lscope8:
 641              	.globl _bytestream_fputword
 643              	_bytestream_fputword:
 369:../../MMI/Resource/ResBytestream.c **** 
 370:../../MMI/Resource/ResBytestream.c **** 
 371:../../MMI/Resource/ResBytestream.c **** /*****************************************************************************
 372:../../MMI/Resource/ResBytestream.c ****  * FUNCTION
 373:../../MMI/Resource/ResBytestream.c ****  *  bytestream_fputword
 374:../../MMI/Resource/ResBytestream.c ****  * DESCRIPTION
 375:../../MMI/Resource/ResBytestream.c ****  *  
 376:../../MMI/Resource/ResBytestream.c ****  * PARAMETERS
 377:../../MMI/Resource/ResBytestream.c ****  *  file        [?]         
 378:../../MMI/Resource/ResBytestream.c ****  *  w           [IN]        
 379:../../MMI/Resource/ResBytestream.c ****  * RETURNS
 380:../../MMI/Resource/ResBytestream.c ****  *  
 381:../../MMI/Resource/ResBytestream.c ****  *****************************************************************************/
 382:../../MMI/Resource/ResBytestream.c **** U8 bytestream_fputword(bytestream *file, U16 w)
 383:../../MMI/Resource/ResBytestream.c **** {
 645              	LM62:
 646 023f 55       		pushl	%ebp
 647 0240 89E5     		movl	%esp, %ebp
 648 0242 83EC18   		subl	$24, %esp
 649 0245 8B450C   		movl	12(%ebp), %eax
 650 0248 668945FE 		movw	%ax, -2(%ebp)
 384:../../MMI/Resource/ResBytestream.c ****     /*----------------------------------------------------------------*/
 385:../../MMI/Resource/ResBytestream.c ****     /* Local Variables                                                */
 386:../../MMI/Resource/ResBytestream.c ****     /*----------------------------------------------------------------*/
 387:../../MMI/Resource/ResBytestream.c ****     U8 MSB, LSB, rvalue;
 388:../../MMI/Resource/ResBytestream.c **** 
 389:../../MMI/Resource/ResBytestream.c ****     /*----------------------------------------------------------------*/
 390:../../MMI/Resource/ResBytestream.c ****     /* Code Body                                                      */
 391:../../MMI/Resource/ResBytestream.c ****     /*----------------------------------------------------------------*/
 392:../../MMI/Resource/ResBytestream.c ****     LSB = w & 0xff;
 652              	LM63:
 653              	LBB7:
GAS LISTING f:/K7_TOUR/CODE/plutommi/Customer/ResGenerator/gcctmp/cceGcaaa.s 			page 14


 654 024c 0FB645FE 		movzbl	-2(%ebp), %eax
 655 0250 8845FC   		movb	%al, -4(%ebp)
 393:../../MMI/Resource/ResBytestream.c ****     MSB = w >> 8;
 657              	LM64:
 658 0253 0FB745FE 		movzwl	-2(%ebp), %eax
 659 0257 C1E808   		shrl	$8, %eax
 660 025a 8845FD   		movb	%al, -3(%ebp)
 394:../../MMI/Resource/ResBytestream.c ****     rvalue = bytestream_fputbyte(file, LSB);
 662              	LM65:
 663 025d 0FB645FC 		movzbl	-4(%ebp), %eax
 664 0261 89442404 		movl	%eax, 4(%esp)
 665 0265 8B4508   		movl	8(%ebp), %eax
 666 0268 890424   		movl	%eax, (%esp)
 667 026b E8BAFEFF 		call	_bytestream_fputbyte
 667      FF
 668 0270 8845FB   		movb	%al, -5(%ebp)
 395:../../MMI/Resource/ResBytestream.c ****     rvalue = bytestream_fputbyte(file, MSB);
 670              	LM66:
 671 0273 0FB645FD 		movzbl	-3(%ebp), %eax
 672 0277 89442404 		movl	%eax, 4(%esp)
 673 027b 8B4508   		movl	8(%ebp), %eax
 674 027e 890424   		movl	%eax, (%esp)
 675 0281 E8A4FEFF 		call	_bytestream_fputbyte
 675      FF
 676 0286 8845FB   		movb	%al, -5(%ebp)
 396:../../MMI/Resource/ResBytestream.c ****     return (rvalue);
 678              	LM67:
 679 0289 0FB645FB 		movzbl	-5(%ebp), %eax
 397:../../MMI/Resource/ResBytestream.c **** }
 681              	LM68:
 682 028d C9       		leave
 683 028e C3       		ret
 684              	LBE7:
 691              	Lscope9:
 696              	.globl _bytestream_fputword_bigendian
 698              	_bytestream_fputword_bigendian:
 398:../../MMI/Resource/ResBytestream.c **** 
 399:../../MMI/Resource/ResBytestream.c **** 
 400:../../MMI/Resource/ResBytestream.c **** /*****************************************************************************
 401:../../MMI/Resource/ResBytestream.c ****  * FUNCTION
 402:../../MMI/Resource/ResBytestream.c ****  *  bytestream_fputword_bigendian
 403:../../MMI/Resource/ResBytestream.c ****  * DESCRIPTION
 404:../../MMI/Resource/ResBytestream.c ****  *  
 405:../../MMI/Resource/ResBytestream.c ****  * PARAMETERS
 406:../../MMI/Resource/ResBytestream.c ****  *  file        [?]         
 407:../../MMI/Resource/ResBytestream.c ****  *  w           [IN]        
 408:../../MMI/Resource/ResBytestream.c ****  * RETURNS
 409:../../MMI/Resource/ResBytestream.c ****  *  
 410:../../MMI/Resource/ResBytestream.c ****  *****************************************************************************/
 411:../../MMI/Resource/ResBytestream.c **** U8 bytestream_fputword_bigendian(bytestream *file, U16 w)
 412:../../MMI/Resource/ResBytestream.c **** {
 700              	LM69:
 701 028f 55       		pushl	%ebp
 702 0290 89E5     		movl	%esp, %ebp
 703 0292 83EC18   		subl	$24, %esp
 704 0295 8B450C   		movl	12(%ebp), %eax
 705 0298 668945FE 		movw	%ax, -2(%ebp)
GAS LISTING f:/K7_TOUR/CODE/plutommi/Customer/ResGenerator/gcctmp/cceGcaaa.s 			page 15


 413:../../MMI/Resource/ResBytestream.c ****     /*----------------------------------------------------------------*/
 414:../../MMI/Resource/ResBytestream.c ****     /* Local Variables                                                */
 415:../../MMI/Resource/ResBytestream.c ****     /*----------------------------------------------------------------*/
 416:../../MMI/Resource/ResBytestream.c ****     U8 MSB, LSB, rvalue;
 417:../../MMI/Resource/ResBytestream.c **** 
 418:../../MMI/Resource/ResBytestream.c ****     /*----------------------------------------------------------------*/
 419:../../MMI/Resource/ResBytestream.c ****     /* Code Body                                                      */
 420:../../MMI/Resource/ResBytestream.c ****     /*----------------------------------------------------------------*/
 421:../../MMI/Resource/ResBytestream.c ****     LSB = w & 0xff;
 707              	LM70:
 708              	LBB8:
 709 029c 0FB645FE 		movzbl	-2(%ebp), %eax
 710 02a0 8845FC   		movb	%al, -4(%ebp)
 422:../../MMI/Resource/ResBytestream.c ****     MSB = w >> 8;
 712              	LM71:
 713 02a3 0FB745FE 		movzwl	-2(%ebp), %eax
 714 02a7 C1E808   		shrl	$8, %eax
 715 02aa 8845FD   		movb	%al, -3(%ebp)
 423:../../MMI/Resource/ResBytestream.c ****     rvalue = bytestream_fputbyte(file, MSB);
 717              	LM72:
 718 02ad 0FB645FD 		movzbl	-3(%ebp), %eax
 719 02b1 89442404 		movl	%eax, 4(%esp)
 720 02b5 8B4508   		movl	8(%ebp), %eax
 721 02b8 890424   		movl	%eax, (%esp)
 722 02bb E86AFEFF 		call	_bytestream_fputbyte
 722      FF
 723 02c0 8845FB   		movb	%al, -5(%ebp)
 424:../../MMI/Resource/ResBytestream.c ****     rvalue = bytestream_fputbyte(file, LSB);
 725              	LM73:
 726 02c3 0FB645FC 		movzbl	-4(%ebp), %eax
 727 02c7 89442404 		movl	%eax, 4(%esp)
 728 02cb 8B4508   		movl	8(%ebp), %eax
 729 02ce 890424   		movl	%eax, (%esp)
 730 02d1 E854FEFF 		call	_bytestream_fputbyte
 730      FF
 731 02d6 8845FB   		movb	%al, -5(%ebp)
 425:../../MMI/Resource/ResBytestream.c ****     return (rvalue);
 733              	LM74:
 734 02d9 0FB645FB 		movzbl	-5(%ebp), %eax
 426:../../MMI/Resource/ResBytestream.c **** }
 736              	LM75:
 737 02dd C9       		leave
 738 02de C3       		ret
 739              	LBE8:
 746              	Lscope10:
 751              	.globl _bytestream_fputdword
 753              	_bytestream_fputdword:
 427:../../MMI/Resource/ResBytestream.c **** 
 428:../../MMI/Resource/ResBytestream.c **** 
 429:../../MMI/Resource/ResBytestream.c **** /*****************************************************************************
 430:../../MMI/Resource/ResBytestream.c ****  * FUNCTION
 431:../../MMI/Resource/ResBytestream.c ****  *  bytestream_fputdword
 432:../../MMI/Resource/ResBytestream.c ****  * DESCRIPTION
 433:../../MMI/Resource/ResBytestream.c ****  *  
 434:../../MMI/Resource/ResBytestream.c ****  * PARAMETERS
 435:../../MMI/Resource/ResBytestream.c ****  *  file        [?]         
 436:../../MMI/Resource/ResBytestream.c ****  *  d           [IN]        
GAS LISTING f:/K7_TOUR/CODE/plutommi/Customer/ResGenerator/gcctmp/cceGcaaa.s 			page 16


 437:../../MMI/Resource/ResBytestream.c ****  * RETURNS
 438:../../MMI/Resource/ResBytestream.c ****  *  
 439:../../MMI/Resource/ResBytestream.c ****  *****************************************************************************/
 440:../../MMI/Resource/ResBytestream.c **** U8 bytestream_fputdword(bytestream *file, U32 d)
 441:../../MMI/Resource/ResBytestream.c **** {
 755              	LM76:
 756 02df 55       		pushl	%ebp
 757 02e0 89E5     		movl	%esp, %ebp
 758 02e2 83EC18   		subl	$24, %esp
 442:../../MMI/Resource/ResBytestream.c ****     /*----------------------------------------------------------------*/
 443:../../MMI/Resource/ResBytestream.c ****     /* Local Variables                                                */
 444:../../MMI/Resource/ResBytestream.c ****     /*----------------------------------------------------------------*/
 445:../../MMI/Resource/ResBytestream.c ****     U16 MSB, LSB;
 446:../../MMI/Resource/ResBytestream.c ****     U8 rvalue;
 447:../../MMI/Resource/ResBytestream.c **** 
 448:../../MMI/Resource/ResBytestream.c ****     /*----------------------------------------------------------------*/
 449:../../MMI/Resource/ResBytestream.c ****     /* Code Body                                                      */
 450:../../MMI/Resource/ResBytestream.c ****     /*----------------------------------------------------------------*/
 451:../../MMI/Resource/ResBytestream.c ****     LSB = (U16) d & 0xffff;
 760              	LM77:
 761              	LBB9:
 762 02e5 8B450C   		movl	12(%ebp), %eax
 763 02e8 668945FC 		movw	%ax, -4(%ebp)
 452:../../MMI/Resource/ResBytestream.c ****     MSB = (U16) d >> 16;
 765              	LM78:
 766 02ec 0FB7450C 		movzwl	12(%ebp), %eax
 767 02f0 C1F810   		sarl	$16, %eax
 768 02f3 668945FE 		movw	%ax, -2(%ebp)
 453:../../MMI/Resource/ResBytestream.c ****     rvalue = bytestream_fputword(file, LSB);
 770              	LM79:
 771 02f7 0FB745FC 		movzwl	-4(%ebp), %eax
 772 02fb 89442404 		movl	%eax, 4(%esp)
 773 02ff 8B4508   		movl	8(%ebp), %eax
 774 0302 890424   		movl	%eax, (%esp)
 775 0305 E835FFFF 		call	_bytestream_fputword
 775      FF
 776 030a 8845FB   		movb	%al, -5(%ebp)
 454:../../MMI/Resource/ResBytestream.c ****     rvalue = bytestream_fputword(file, MSB);
 778              	LM80:
 779 030d 0FB745FE 		movzwl	-2(%ebp), %eax
 780 0311 89442404 		movl	%eax, 4(%esp)
 781 0315 8B4508   		movl	8(%ebp), %eax
 782 0318 890424   		movl	%eax, (%esp)
 783 031b E81FFFFF 		call	_bytestream_fputword
 783      FF
 784 0320 8845FB   		movb	%al, -5(%ebp)
 455:../../MMI/Resource/ResBytestream.c ****     return (rvalue);
 786              	LM81:
 787 0323 0FB645FB 		movzbl	-5(%ebp), %eax
 456:../../MMI/Resource/ResBytestream.c **** }
 789              	LM82:
 790 0327 C9       		leave
 791 0328 C3       		ret
 792              	LBE9:
 798              	Lscope11:
 803              	.globl _bytestream_fputdword_bigendian
 805              	_bytestream_fputdword_bigendian:
GAS LISTING f:/K7_TOUR/CODE/plutommi/Customer/ResGenerator/gcctmp/cceGcaaa.s 			page 17


 457:../../MMI/Resource/ResBytestream.c **** 
 458:../../MMI/Resource/ResBytestream.c **** 
 459:../../MMI/Resource/ResBytestream.c **** /*****************************************************************************
 460:../../MMI/Resource/ResBytestream.c ****  * FUNCTION
 461:../../MMI/Resource/ResBytestream.c ****  *  bytestream_fputdword_bigendian
 462:../../MMI/Resource/ResBytestream.c ****  * DESCRIPTION
 463:../../MMI/Resource/ResBytestream.c ****  *  
 464:../../MMI/Resource/ResBytestream.c ****  * PARAMETERS
 465:../../MMI/Resource/ResBytestream.c ****  *  file        [?]         
 466:../../MMI/Resource/ResBytestream.c ****  *  d           [IN]        
 467:../../MMI/Resource/ResBytestream.c ****  * RETURNS
 468:../../MMI/Resource/ResBytestream.c ****  *  
 469:../../MMI/Resource/ResBytestream.c ****  *****************************************************************************/
 470:../../MMI/Resource/ResBytestream.c **** U8 bytestream_fputdword_bigendian(bytestream *file, U32 d)
 471:../../MMI/Resource/ResBytestream.c **** {
 807              	LM83:
 808 0329 55       		pushl	%ebp
 809 032a 89E5     		movl	%esp, %ebp
 810 032c 83EC18   		subl	$24, %esp
 472:../../MMI/Resource/ResBytestream.c ****     /*----------------------------------------------------------------*/
 473:../../MMI/Resource/ResBytestream.c ****     /* Local Variables                                                */
 474:../../MMI/Resource/ResBytestream.c ****     /*----------------------------------------------------------------*/
 475:../../MMI/Resource/ResBytestream.c ****     U16 MSB, LSB;
 476:../../MMI/Resource/ResBytestream.c ****     U8 rvalue;
 477:../../MMI/Resource/ResBytestream.c **** 
 478:../../MMI/Resource/ResBytestream.c ****     /*----------------------------------------------------------------*/
 479:../../MMI/Resource/ResBytestream.c ****     /* Code Body                                                      */
 480:../../MMI/Resource/ResBytestream.c ****     /*----------------------------------------------------------------*/
 481:../../MMI/Resource/ResBytestream.c ****     LSB = (U16) d & 0xffff;
 812              	LM84:
 813              	LBB10:
 814 032f 8B450C   		movl	12(%ebp), %eax
 815 0332 668945FC 		movw	%ax, -4(%ebp)
 482:../../MMI/Resource/ResBytestream.c ****     MSB = (U16) d >> 16;
 817              	LM85:
 818 0336 0FB7450C 		movzwl	12(%ebp), %eax
 819 033a C1F810   		sarl	$16, %eax
 820 033d 668945FE 		movw	%ax, -2(%ebp)
 483:../../MMI/Resource/ResBytestream.c ****     rvalue = bytestream_fputword_bigendian(file, MSB);
 822              	LM86:
 823 0341 0FB745FE 		movzwl	-2(%ebp), %eax
 824 0345 89442404 		movl	%eax, 4(%esp)
 825 0349 8B4508   		movl	8(%ebp), %eax
 826 034c 890424   		movl	%eax, (%esp)
 827 034f E83BFFFF 		call	_bytestream_fputword_bigendian
 827      FF
 828 0354 8845FB   		movb	%al, -5(%ebp)
 484:../../MMI/Resource/ResBytestream.c ****     rvalue = bytestream_fputword_bigendian(file, LSB);
 830              	LM87:
 831 0357 0FB745FC 		movzwl	-4(%ebp), %eax
 832 035b 89442404 		movl	%eax, 4(%esp)
 833 035f 8B4508   		movl	8(%ebp), %eax
 834 0362 890424   		movl	%eax, (%esp)
 835 0365 E825FFFF 		call	_bytestream_fputword_bigendian
 835      FF
 836 036a 8845FB   		movb	%al, -5(%ebp)
 485:../../MMI/Resource/ResBytestream.c ****     return (rvalue);
GAS LISTING f:/K7_TOUR/CODE/plutommi/Customer/ResGenerator/gcctmp/cceGcaaa.s 			page 18


 838              	LM88:
 839 036d 0FB645FB 		movzbl	-5(%ebp), %eax
 486:../../MMI/Resource/ResBytestream.c **** }
 841              	LM89:
 842 0371 C9       		leave
 843 0372 C3       		ret
 844              	LBE10:
 850              	Lscope12:
 854              	.globl _bytestream_fgetword_bigendian
 856              	_bytestream_fgetword_bigendian:
 487:../../MMI/Resource/ResBytestream.c **** 
 488:../../MMI/Resource/ResBytestream.c **** 
 489:../../MMI/Resource/ResBytestream.c **** /*****************************************************************************
 490:../../MMI/Resource/ResBytestream.c ****  * FUNCTION
 491:../../MMI/Resource/ResBytestream.c ****  *  bytestream_fgetword_bigendian
 492:../../MMI/Resource/ResBytestream.c ****  * DESCRIPTION
 493:../../MMI/Resource/ResBytestream.c ****  *  
 494:../../MMI/Resource/ResBytestream.c ****  * PARAMETERS
 495:../../MMI/Resource/ResBytestream.c ****  *  file        [?]     
 496:../../MMI/Resource/ResBytestream.c ****  * RETURNS
 497:../../MMI/Resource/ResBytestream.c ****  *  
 498:../../MMI/Resource/ResBytestream.c ****  *****************************************************************************/
 499:../../MMI/Resource/ResBytestream.c **** U16 bytestream_fgetword_bigendian(bytestream *file)
 500:../../MMI/Resource/ResBytestream.c **** {
 858              	LM90:
 859 0373 55       		pushl	%ebp
 860 0374 89E5     		movl	%esp, %ebp
 861 0376 83EC08   		subl	$8, %esp
 501:../../MMI/Resource/ResBytestream.c ****     /*----------------------------------------------------------------*/
 502:../../MMI/Resource/ResBytestream.c ****     /* Local Variables                                                */
 503:../../MMI/Resource/ResBytestream.c ****     /*----------------------------------------------------------------*/
 504:../../MMI/Resource/ResBytestream.c ****     U16 MSB, LSB;
 505:../../MMI/Resource/ResBytestream.c **** 
 506:../../MMI/Resource/ResBytestream.c ****     /*----------------------------------------------------------------*/
 507:../../MMI/Resource/ResBytestream.c ****     /* Code Body                                                      */
 508:../../MMI/Resource/ResBytestream.c ****     /*----------------------------------------------------------------*/
 509:../../MMI/Resource/ResBytestream.c ****     MSB = bytestream_fgetbyte(file);
 863              	LM91:
 864              	LBB11:
 865 0379 8B4508   		movl	8(%ebp), %eax
 866 037c 890424   		movl	%eax, (%esp)
 867 037f E864FDFF 		call	_bytestream_fgetbyte
 867      FF
 868 0384 660FB6C0 		movzbw	%al, %ax
 869 0388 668945FE 		movw	%ax, -2(%ebp)
 510:../../MMI/Resource/ResBytestream.c ****     LSB = bytestream_fgetbyte(file);
 871              	LM92:
 872 038c 8B4508   		movl	8(%ebp), %eax
 873 038f 890424   		movl	%eax, (%esp)
 874 0392 E851FDFF 		call	_bytestream_fgetbyte
 874      FF
 875 0397 660FB6C0 		movzbw	%al, %ax
 876 039b 668945FC 		movw	%ax, -4(%ebp)
 511:../../MMI/Resource/ResBytestream.c ****     return ((MSB << 8) | LSB);
 878              	LM93:
 879 039f 0FB745FE 		movzwl	-2(%ebp), %eax
 880 03a3 C1E008   		sall	$8, %eax
GAS LISTING f:/K7_TOUR/CODE/plutommi/Customer/ResGenerator/gcctmp/cceGcaaa.s 			page 19


 881 03a6 89C2     		movl	%eax, %edx
 882 03a8 8B45FC   		movl	-4(%ebp), %eax
 883 03ab 09D0     		orl	%edx, %eax
 884 03ad 0FB7C0   		movzwl	%ax, %eax
 512:../../MMI/Resource/ResBytestream.c **** }
 886              	LM94:
 887 03b0 C9       		leave
 888 03b1 C3       		ret
 889              	LBE11:
 894              	Lscope13:
 898              	.globl _bytestream_fgetdword_bigendian
 900              	_bytestream_fgetdword_bigendian:
 513:../../MMI/Resource/ResBytestream.c **** 
 514:../../MMI/Resource/ResBytestream.c **** 
 515:../../MMI/Resource/ResBytestream.c **** /*****************************************************************************
 516:../../MMI/Resource/ResBytestream.c ****  * FUNCTION
 517:../../MMI/Resource/ResBytestream.c ****  *  bytestream_fgetdword_bigendian
 518:../../MMI/Resource/ResBytestream.c ****  * DESCRIPTION
 519:../../MMI/Resource/ResBytestream.c ****  *  
 520:../../MMI/Resource/ResBytestream.c ****  * PARAMETERS
 521:../../MMI/Resource/ResBytestream.c ****  *  file        [?]     
 522:../../MMI/Resource/ResBytestream.c ****  * RETURNS
 523:../../MMI/Resource/ResBytestream.c ****  *  
 524:../../MMI/Resource/ResBytestream.c ****  *****************************************************************************/
 525:../../MMI/Resource/ResBytestream.c **** U32 bytestream_fgetdword_bigendian(bytestream *file)
 526:../../MMI/Resource/ResBytestream.c **** {
 902              	LM95:
 903 03b2 55       		pushl	%ebp
 904 03b3 89E5     		movl	%esp, %ebp
 905 03b5 83EC18   		subl	$24, %esp
 527:../../MMI/Resource/ResBytestream.c ****     /*----------------------------------------------------------------*/
 528:../../MMI/Resource/ResBytestream.c ****     /* Local Variables                                                */
 529:../../MMI/Resource/ResBytestream.c ****     /*----------------------------------------------------------------*/
 530:../../MMI/Resource/ResBytestream.c ****     U32 MSB, LSB;
 531:../../MMI/Resource/ResBytestream.c **** 
 532:../../MMI/Resource/ResBytestream.c ****     /*----------------------------------------------------------------*/
 533:../../MMI/Resource/ResBytestream.c ****     /* Code Body                                                      */
 534:../../MMI/Resource/ResBytestream.c ****     /*----------------------------------------------------------------*/
 535:../../MMI/Resource/ResBytestream.c ****     MSB = bytestream_fgetword_bigendian(file);
 907              	LM96:
 908              	LBB12:
 909 03b8 8B4508   		movl	8(%ebp), %eax
 910 03bb 890424   		movl	%eax, (%esp)
 911 03be E8B0FFFF 		call	_bytestream_fgetword_bigendian
 911      FF
 912 03c3 0FB7C0   		movzwl	%ax, %eax
 913 03c6 8945FC   		movl	%eax, -4(%ebp)
 536:../../MMI/Resource/ResBytestream.c ****     LSB = bytestream_fgetword_bigendian(file);
 915              	LM97:
 916 03c9 8B4508   		movl	8(%ebp), %eax
 917 03cc 890424   		movl	%eax, (%esp)
 918 03cf E89FFFFF 		call	_bytestream_fgetword_bigendian
 918      FF
 919 03d4 0FB7C0   		movzwl	%ax, %eax
 920 03d7 8945F8   		movl	%eax, -8(%ebp)
 537:../../MMI/Resource/ResBytestream.c ****     return ((MSB << 16) | LSB);
 922              	LM98:
GAS LISTING f:/K7_TOUR/CODE/plutommi/Customer/ResGenerator/gcctmp/cceGcaaa.s 			page 20


 923 03da 8B45FC   		movl	-4(%ebp), %eax
 924 03dd C1E010   		sall	$16, %eax
 925 03e0 0B45F8   		orl	-8(%ebp), %eax
 538:../../MMI/Resource/ResBytestream.c **** }
 927              	LM99:
 928 03e3 C9       		leave
 929 03e4 C3       		ret
 930              	LBE12:
 935              	Lscope14:
 939              	.globl _bytestream_fgetvdata
 941              	_bytestream_fgetvdata:
 539:../../MMI/Resource/ResBytestream.c **** 
 540:../../MMI/Resource/ResBytestream.c **** /* Used to read variable length data: Useful only for MIDI files  */
 541:../../MMI/Resource/ResBytestream.c **** 
 542:../../MMI/Resource/ResBytestream.c **** 
 543:../../MMI/Resource/ResBytestream.c **** /*****************************************************************************
 544:../../MMI/Resource/ResBytestream.c ****  * FUNCTION
 545:../../MMI/Resource/ResBytestream.c ****  *  bytestream_fgetvdata
 546:../../MMI/Resource/ResBytestream.c ****  * DESCRIPTION
 547:../../MMI/Resource/ResBytestream.c ****  *  
 548:../../MMI/Resource/ResBytestream.c ****  * PARAMETERS
 549:../../MMI/Resource/ResBytestream.c ****  *  file        [?]     
 550:../../MMI/Resource/ResBytestream.c ****  * RETURNS
 551:../../MMI/Resource/ResBytestream.c ****  *  
 552:../../MMI/Resource/ResBytestream.c ****  *****************************************************************************/
 553:../../MMI/Resource/ResBytestream.c **** U32 bytestream_fgetvdata(bytestream *file)
 554:../../MMI/Resource/ResBytestream.c **** {
 943              	LM100:
 944 03e5 55       		pushl	%ebp
 945 03e6 89E5     		movl	%esp, %ebp
 946 03e8 53       		pushl	%ebx
 947 03e9 83EC14   		subl	$20, %esp
 555:../../MMI/Resource/ResBytestream.c ****     /*----------------------------------------------------------------*/
 556:../../MMI/Resource/ResBytestream.c ****     /* Local Variables                                                */
 557:../../MMI/Resource/ResBytestream.c ****     /*----------------------------------------------------------------*/
 558:../../MMI/Resource/ResBytestream.c ****     U32 rvalue;
 559:../../MMI/Resource/ResBytestream.c ****     U8 b;
 560:../../MMI/Resource/ResBytestream.c **** 
 561:../../MMI/Resource/ResBytestream.c ****     /*----------------------------------------------------------------*/
 562:../../MMI/Resource/ResBytestream.c ****     /* Code Body                                                      */
 563:../../MMI/Resource/ResBytestream.c ****     /*----------------------------------------------------------------*/
 564:../../MMI/Resource/ResBytestream.c ****     if ((rvalue = bytestream_fgetbyte(file)) & 0x80)
 949              	LM101:
 950              	LBB13:
 951 03ec 8B4508   		movl	8(%ebp), %eax
 952 03ef 890424   		movl	%eax, (%esp)
 953 03f2 E8F1FCFF 		call	_bytestream_fgetbyte
 953      FF
 954 03f7 0FB6C0   		movzbl	%al, %eax
 955 03fa 8945F8   		movl	%eax, -8(%ebp)
 956 03fd 8B45F8   		movl	-8(%ebp), %eax
 957 0400 2480     		andb	$-128, %al
 958 0402 84C0     		testb	%al, %al
 959 0404 742F     		je	L52
 565:../../MMI/Resource/ResBytestream.c ****     {
 566:../../MMI/Resource/ResBytestream.c ****         rvalue &= 0x7f;
 961              	LM102:
GAS LISTING f:/K7_TOUR/CODE/plutommi/Customer/ResGenerator/gcctmp/cceGcaaa.s 			page 21


 962 0406 8D45F8   		leal	-8(%ebp), %eax
 963 0409 83207F   		andl	$127, (%eax)
 964              	L53:
 567:../../MMI/Resource/ResBytestream.c ****         do
 568:../../MMI/Resource/ResBytestream.c ****         {
 569:../../MMI/Resource/ResBytestream.c ****             rvalue = (rvalue << 7) + ((b = bytestream_fgetbyte(file)) & 0x7f);
 966              	LM103:
 967 040c 8B45F8   		movl	-8(%ebp), %eax
 968 040f 89C3     		movl	%eax, %ebx
 969 0411 C1E307   		sall	$7, %ebx
 970 0414 8B4508   		movl	8(%ebp), %eax
 971 0417 890424   		movl	%eax, (%esp)
 972 041a E8C9FCFF 		call	_bytestream_fgetbyte
 972      FF
 973 041f 8845F7   		movb	%al, -9(%ebp)
 974 0422 0FB645F7 		movzbl	-9(%ebp), %eax
 975 0426 83E07F   		andl	$127, %eax
 976 0429 8D0418   		leal	(%eax,%ebx), %eax
 977 042c 8945F8   		movl	%eax, -8(%ebp)
 570:../../MMI/Resource/ResBytestream.c ****         } while (b & 0x80);
 979              	LM104:
 980 042f 807DF700 		cmpb	$0, -9(%ebp)
 981 0433 78D7     		js	L53
 982              	L52:
 571:../../MMI/Resource/ResBytestream.c ****     }
 572:../../MMI/Resource/ResBytestream.c ****     return (rvalue);
 984              	LM105:
 985 0435 8B45F8   		movl	-8(%ebp), %eax
 573:../../MMI/Resource/ResBytestream.c **** }
 987              	LM106:
 988 0438 83C414   		addl	$20, %esp
 989 043b 5B       		popl	%ebx
 990 043c 5D       		popl	%ebp
 991 043d C3       		ret
 992              	LBE13:
 997              	Lscope15:
 999              		.text
 1001 043e 9090     	Letext:
GAS LISTING f:/K7_TOUR/CODE/plutommi/Customer/ResGenerator/gcctmp/cceGcaaa.s 			page 22


DEFINED SYMBOLS
                            *ABS*:00000000 ResBytestream.c
f:/K7_TOUR/CODE/plutommi/Customer/ResGenerator/gcctmp/cceGcaaa.s:205    .text:00000000 _bytestream_initialize
f:/K7_TOUR/CODE/plutommi/Customer/ResGenerator/gcctmp/cceGcaaa.s:234    .text:00000020 _bytestream_fclose
f:/K7_TOUR/CODE/plutommi/Customer/ResGenerator/gcctmp/cceGcaaa.s:263    .text:00000042 _bytestream_fseek
f:/K7_TOUR/CODE/plutommi/Customer/ResGenerator/gcctmp/cceGcaaa.s:354    .text:000000c0 _bytestream_feof
f:/K7_TOUR/CODE/plutommi/Customer/ResGenerator/gcctmp/cceGcaaa.s:387    .text:000000e8 _bytestream_fgetbyte
f:/K7_TOUR/CODE/plutommi/Customer/ResGenerator/gcctmp/cceGcaaa.s:439    .text:0000012a _bytestream_fputbyte
f:/K7_TOUR/CODE/plutommi/Customer/ResGenerator/gcctmp/cceGcaaa.s:491    .text:00000174 _bytestream_fread
f:/K7_TOUR/CODE/plutommi/Customer/ResGenerator/gcctmp/cceGcaaa.s:557    .text:000001cd _bytestream_fgetword
f:/K7_TOUR/CODE/plutommi/Customer/ResGenerator/gcctmp/cceGcaaa.s:601    .text:0000020c _bytestream_fgetdword
f:/K7_TOUR/CODE/plutommi/Customer/ResGenerator/gcctmp/cceGcaaa.s:643    .text:0000023f _bytestream_fputword
f:/K7_TOUR/CODE/plutommi/Customer/ResGenerator/gcctmp/cceGcaaa.s:698    .text:0000028f _bytestream_fputword_bigendian
f:/K7_TOUR/CODE/plutommi/Customer/ResGenerator/gcctmp/cceGcaaa.s:753    .text:000002df _bytestream_fputdword
f:/K7_TOUR/CODE/plutommi/Customer/ResGenerator/gcctmp/cceGcaaa.s:805    .text:00000329 _bytestream_fputdword_bigendian
f:/K7_TOUR/CODE/plutommi/Customer/ResGenerator/gcctmp/cceGcaaa.s:856    .text:00000373 _bytestream_fgetword_bigendian
f:/K7_TOUR/CODE/plutommi/Customer/ResGenerator/gcctmp/cceGcaaa.s:900    .text:000003b2 _bytestream_fgetdword_bigendian
f:/K7_TOUR/CODE/plutommi/Customer/ResGenerator/gcctmp/cceGcaaa.s:941    .text:000003e5 _bytestream_fgetvdata

NO UNDEFINED SYMBOLS
